; CHECK: factorial
; ModuleID = 'edu_device-20256b.cpp'
source_filename = "edu_device-20256b.cpp"
target datalayout = "e-m:e-p270:32:32-p271:32:32-p272:64:64-i64:64-f80:128-n8:16:32:64-S128"
target triple = "x86_64-unknown-fuchsia"

%"class.fuchsia_hardware_pci::Command" = type { i16 }
%"class.fuchsia_hardware_pci::Status" = type { i16 }
%"class.fuchsia_hardware_pci::Config" = type { i16 }
%"class.fuchsia_hardware_pci::HeaderType" = type { i8 }
%"class.fuchsia_hardware_pci::CapabilityId" = type { i8 }
%"class.fuchsia_hardware_pci::ExtendedCapabilityId" = type { i16 }
%"class.fuchsia_hardware_pci::InterruptMode" = type { i8 }
%"class.fuchsia_io::OpenFlags" = type { i32 }
%"class.fuchsia_io::WatchMask" = type { i32 }
%"class.fuchsia_io::ConnectorFlags" = type { i64 }
%"class.fuchsia_io::NodeFlags" = type { i64 }
%"class.fuchsia_io::FileProtocolFlags" = type { i64 }
%"class.fuchsia_io::UnlinkFlags" = type { i64 }
%"class.fuchsia_io::VmoFlags" = type { i32 }
%"class.fuchsia_io::FileSignal" = type { i32 }
%"class.fuchsia_io::InotifyWatchMask" = type { i32 }
%"class.fuchsia_io::NodeProtocolKinds" = type { i64 }
%"class.fuchsia_io::NodeAttributeFlags" = type { i32 }
%"class.fuchsia_io::NodeAttributesQuery" = type { i64 }
%"class.fuchsia_io::Operations" = type { i64 }
%"class.fuchsia_io::UdpMetadataEncodingProtocolVersion" = type { i16 }
%"class.fuchsia_component_decl::ConfigTypeLayout" = type { i32 }
%"struct.std::__2::nullopt_t" = type { i8 }
%"struct.fidl::internal::TransportVTable" = type { i8, ptr, ptr, ptr, ptr, ptr, ptr }
%"struct.fdf::internal::MmioBufferOps" = type { ptr, ptr, ptr, ptr, ptr, ptr, ptr, ptr, ptr, ptr }
%"struct.std::__2::in_place_t" = type { i8 }
%"class.zx::status" = type { %"class.fit::result" }
%"class.fit::result" = type { %"struct.fit::internal::storage_type" }
%"struct.fit::internal::storage_type" = type { i32, %"union.fit::internal::error_or_value_type" }
%"union.fit::internal::error_or_value_type" = type { i32 }
%"class.fidl::WireResult" = type { %"class.fidl::BaseWireResult", %"struct.fidl::internal::BoxedMessageBuffer", %"class.fidl::DecodedValue" }
%"class.fidl::BaseWireResult" = type { %"class.fidl::Status", %"class.std::__2::optional.26" }
%"class.fidl::Status" = type { i32, i32, ptr }
%"class.std::__2::optional.26" = type { %"struct.std::__2::__optional_move_assign_base.base.42", [7 x i8] }
%"struct.std::__2::__optional_move_assign_base.base.42" = type { %"struct.std::__2::__optional_copy_assign_base.base.41" }
%"struct.std::__2::__optional_copy_assign_base.base.41" = type { %"struct.std::__2::__optional_move_base.base.40" }
%"struct.std::__2::__optional_move_base.base.40" = type { %"struct.std::__2::__optional_copy_base.base.39" }
%"struct.std::__2::__optional_copy_base.base.39" = type { %"struct.std::__2::__optional_storage_base.base.38" }
%"struct.std::__2::__optional_storage_base.base.38" = type { %"struct.std::__2::__optional_destruct_base.base.37" }
%"struct.std::__2::__optional_destruct_base.base.37" = type <{ %union.anon.33, i8 }>
%union.anon.33 = type { %"class.fit::result.34" }
%"class.fit::result.34" = type { %"struct.fit::internal::storage_type.35" }
%"struct.fit::internal::storage_type.35" = type { i32, %"union.fit::internal::error_or_value_type.36" }
%"union.fit::internal::error_or_value_type.36" = type { ptr }
%"struct.fidl::internal::BoxedMessageBuffer" = type { ptr }
%"class.fidl::DecodedValue" = type { ptr }
%"struct.fidl::internal::SyncEndpointManagedVeneer" = type { %"class.fidl::internal::AnyUnownedTransport" }
%"class.fidl::internal::AnyUnownedTransport" = type <{ ptr, i32, [4 x i8] }>
%"class.fit::error" = type { i32 }
%"class.zx::status.51" = type { %"class.fit::result.52" }
%"class.fit::result.52" = type { %"struct.fit::internal::storage_type.53" }
%"struct.fit::internal::storage_type.53" = type { i32, %"union.fit::internal::error_or_value_type.54" }
%"union.fit::internal::error_or_value_type.54" = type { %"class.fdf::MmioBuffer" }
%"class.fdf::MmioBuffer" = type { ptr, %struct.mmio_buffer_t, ptr, ptr }
%struct.mmio_buffer_t = type { ptr addrspace(100), i64, i64, i32 }
%"class.zx::vmo" = type { %"class.zx::object.55" }
%"class.zx::object.55" = type { %"class.zx::object_base" }
%"class.zx::object_base" = type { i32 }
%"class.fidl::WireResult.56" = type { %"class.fidl::BaseWireResult.base", [4 x i8], %"struct.fidl::internal::InlineMessageBuffer", %"class.fidl::DecodedValue.73" }
%"class.fidl::BaseWireResult.base" = type <{ %"class.fidl::Status", %"class.std::__2::optional.58" }>
%"class.std::__2::optional.58" = type { %"struct.std::__2::__optional_move_assign_base.base.71", [3 x i8] }
%"struct.std::__2::__optional_move_assign_base.base.71" = type { %"struct.std::__2::__optional_copy_assign_base.base.70" }
%"struct.std::__2::__optional_copy_assign_base.base.70" = type { %"struct.std::__2::__optional_move_base.base.69" }
%"struct.std::__2::__optional_move_base.base.69" = type { %"struct.std::__2::__optional_copy_base.base.68" }
%"struct.std::__2::__optional_copy_base.base.68" = type { %"struct.std::__2::__optional_storage_base.base.67" }
%"struct.std::__2::__optional_storage_base.base.67" = type { %"struct.std::__2::__optional_destruct_base.base.66" }
%"struct.std::__2::__optional_destruct_base.base.66" = type <{ %union.anon.65, i8 }>
%union.anon.65 = type { %"class.fit::result" }
%"struct.fidl::internal::InlineMessageBuffer" = type { [48 x i8] }
%"class.fidl::DecodedValue.73" = type { ptr }
%"class.fidl::WireResult.75" = type { %"class.fidl::BaseWireResult.76", %"struct.fidl::internal::InlineMessageBuffer", %"class.fidl::DecodedValue.95" }
%"class.fidl::BaseWireResult.76" = type { %"class.fidl::Status", %"class.std::__2::optional.77" }
%"class.std::__2::optional.77" = type { %"struct.std::__2::__optional_move_assign_base.base.93", [7 x i8] }
%"struct.std::__2::__optional_move_assign_base.base.93" = type { %"struct.std::__2::__optional_copy_assign_base.base.92" }
%"struct.std::__2::__optional_copy_assign_base.base.92" = type { %"struct.std::__2::__optional_move_base.base.91" }
%"struct.std::__2::__optional_move_base.base.91" = type { %"struct.std::__2::__optional_copy_base.base.90" }
%"struct.std::__2::__optional_copy_base.base.90" = type { %"struct.std::__2::__optional_storage_base.base.89" }
%"struct.std::__2::__optional_storage_base.base.89" = type { %"struct.std::__2::__optional_destruct_base.base.88" }
%"struct.std::__2::__optional_destruct_base.base.88" = type <{ %union.anon.84, i8 }>
%union.anon.84 = type { %"class.fit::result.85" }
%"class.fit::result.85" = type { %"struct.fit::internal::storage_type.86" }
%"struct.fit::internal::storage_type.86" = type { i32, %"union.fit::internal::error_or_value_type.87" }
%"union.fit::internal::error_or_value_type.87" = type { ptr }
%"class.fidl::DecodedValue.95" = type { ptr }
%"class.fit::success" = type { i8 }
%"class.edu_device::QemuEduDevice" = type { ptr, %"class.driver::Logger", %"class.fidl::WireSyncClient", [4 x i8], %"class.std::__2::optional", %"class.zx::interrupt", %"class.async::IrqMethod", %"class.std::__2::optional.10" }
%"class.driver::Logger" = type <{ %"class.std::__2::basic_string", %"class.zx::socket", %"struct.std::__2::atomic", [3 x i8], %"struct.std::__2::atomic.2", [4 x i8] }>
%"class.std::__2::basic_string" = type { %"class.std::__2::__compressed_pair" }
%"class.std::__2::__compressed_pair" = type { %"struct.std::__2::__compressed_pair_elem" }
%"struct.std::__2::__compressed_pair_elem" = type { %"struct.std::__2::basic_string<char>::__rep" }
%"struct.std::__2::basic_string<char>::__rep" = type { %union.anon }
%union.anon = type { %"struct.std::__2::basic_string<char>::__long" }
%"struct.std::__2::basic_string<char>::__long" = type { ptr, i64, i64 }
%"class.zx::socket" = type { %"class.zx::object" }
%"class.zx::object" = type { %"class.zx::object_base" }
%"struct.std::__2::atomic" = type { %"struct.std::__2::__atomic_base" }
%"struct.std::__2::__atomic_base" = type { %"struct.std::__2::__atomic_base.1" }
%"struct.std::__2::__atomic_base.1" = type { %"struct.std::__2::__cxx_atomic_impl" }
%"struct.std::__2::__cxx_atomic_impl" = type { %"struct.std::__2::__cxx_atomic_base_impl" }
%"struct.std::__2::__cxx_atomic_base_impl" = type { i8 }
%"struct.std::__2::atomic.2" = type { %"struct.std::__2::__atomic_base.3" }
%"struct.std::__2::__atomic_base.3" = type { %"struct.std::__2::__atomic_base.4" }
%"struct.std::__2::__atomic_base.4" = type { %"struct.std::__2::__cxx_atomic_impl.5" }
%"struct.std::__2::__cxx_atomic_impl.5" = type { %"struct.std::__2::__cxx_atomic_base_impl.6" }
%"struct.std::__2::__cxx_atomic_base_impl.6" = type { i32 }
%"class.fidl::WireSyncClient" = type { %"class.fidl::ClientEnd" }
%"class.fidl::ClientEnd" = type { %"class.fidl::internal::ClientEndBase" }
%"class.fidl::internal::ClientEndBase" = type { %"class.fidl::internal::TransportEnd" }
%"class.fidl::internal::TransportEnd" = type { %"class.zx::channel" }
%"class.zx::channel" = type { %"class.zx::object.7" }
%"class.zx::object.7" = type { %"class.zx::object_base" }
%"class.std::__2::optional" = type { %"struct.std::__2::__optional_move_assign_base.base", [7 x i8] }
%"struct.std::__2::__optional_move_assign_base.base" = type { %"struct.std::__2::__optional_copy_assign_base.base" }
%"struct.std::__2::__optional_copy_assign_base.base" = type { %"struct.std::__2::__optional_move_base.base" }
%"struct.std::__2::__optional_move_base.base" = type { %"struct.std::__2::__optional_copy_base.base" }
%"struct.std::__2::__optional_copy_base.base" = type { %"struct.std::__2::__optional_storage_base.base" }
%"struct.std::__2::__optional_storage_base.base" = type { %"struct.std::__2::__optional_destruct_base.base" }
%"struct.std::__2::__optional_destruct_base.base" = type <{ %union.anon.8, i8 }>
%union.anon.8 = type { %"class.fdf::MmioBuffer" }
%"class.zx::interrupt" = type { %"class.zx::object.9" }
%"class.zx::object.9" = type { %"class.zx::object_base" }
%"class.async::IrqMethod" = type { %"class.async::IrqBase", ptr }
%"class.async::IrqBase" = type { %struct.async_irq, ptr }
%struct.async_irq = type { %struct.async_state_t, ptr, i32 }
%struct.async_state_t = type { [2 x i64] }
%"class.std::__2::optional.10" = type { %"struct.std::__2::__optional_move_assign_base.base.24", [15 x i8] }
%"struct.std::__2::__optional_move_assign_base.base.24" = type { %"struct.std::__2::__optional_copy_assign_base.base.23" }
%"struct.std::__2::__optional_copy_assign_base.base.23" = type { %"struct.std::__2::__optional_move_base.base.22" }
%"struct.std::__2::__optional_move_base.base.22" = type { %"struct.std::__2::__optional_copy_base.base.21" }
%"struct.std::__2::__optional_copy_base.base.21" = type { %"struct.std::__2::__optional_storage_base.base.20" }
%"struct.std::__2::__optional_storage_base.base.20" = type { %"struct.std::__2::__optional_destruct_base.base.19" }
%"struct.std::__2::__optional_destruct_base.base.19" = type <{ %union.anon.17, i8 }>
%union.anon.17 = type { %"class.fit::callback_impl" }
%"class.fit::callback_impl" = type { %"class.fit::internal::function_base.base", [8 x i8] }
%"class.fit::internal::function_base.base" = type { %"class.fit::internal::generic_function_base.base" }
%"class.fit::internal::generic_function_base.base" = type { %union.anon.18, ptr }
%union.anon.18 = type { [16 x i8] }
%"struct.fuchsia_hardware_pci::wire::DeviceGetBarResponse" = type { %"struct.fuchsia_hardware_pci::wire::Bar" }
%"struct.fuchsia_hardware_pci::wire::Bar" = type { i32, i64, %"class.fuchsia_hardware_pci::wire::BarResult" }
%"class.fuchsia_hardware_pci::wire::BarResult" = type { i64, %"class.fidl::UntypedEnvelope" }
%"class.fidl::UntypedEnvelope" = type { i64 }
%"struct.fuchsia_hardware_pci::wire::DeviceMapInterruptResponse" = type { %"class.zx::interrupt" }
%"class.zx::unowned" = type { %"class.zx::channel" }
%"struct.fidl::internal::TransactionalRequest" = type <{ %struct.fidl_message_header, %"struct.fuchsia_hardware_pci::wire::DeviceGetBarRequest", [4 x i8] }>
%struct.fidl_message_header = type { i32, [2 x i8], i8, i8, i64 }
%"struct.fuchsia_hardware_pci::wire::DeviceGetBarRequest" = type { i32 }
%"class.fidl::UnownedClientEnd" = type { %"class.fidl::internal::UnownedClientEndBase" }
%"class.fidl::internal::UnownedClientEndBase" = type { %"class.fidl::internal::UnownedTransportEnd" }
%"class.fidl::internal::UnownedTransportEnd" = type { i32 }
%"struct.driver_internal::LogValue" = type { ptr, %"struct.driver_internal::Tuplet" }
%"struct.driver_internal::Tuplet" = type { %"class.std::__2::tuple", i64 }
%"class.std::__2::tuple" = type { %"struct.std::__2::__tuple_impl" }
%"struct.std::__2::__tuple_impl" = type { %"class.std::__2::__tuple_leaf" }
%"class.std::__2::__tuple_leaf" = type { %"struct.driver_internal::KeyValue" }
%"struct.driver_internal::KeyValue" = type <{ ptr, i32, [4 x i8] }>
%"class.std::__2::tuple.113" = type { %"struct.std::__2::__tuple_impl.114" }
%"struct.std::__2::__tuple_impl.114" = type <{ %"class.std::__2::__tuple_leaf.115", %"class.std::__2::__tuple_leaf.116", [4 x i8] }>
%"class.std::__2::__tuple_leaf.115" = type { ptr }
%"class.std::__2::__tuple_leaf.116" = type { i32 }
%"struct.driver_internal::LogValue.158" = type { ptr, %"struct.driver_internal::Tuplet.159" }
%"struct.driver_internal::Tuplet.159" = type { %"class.std::__2::tuple.117", i64 }
%"class.std::__2::tuple.117" = type { i8 }
%"class.fit::success.107" = type { %"class.fdf::MmioBuffer" }
%"struct.fidl::internal::TransactionalRequest.108" = type { %struct.fidl_message_header, %"struct.fuchsia_hardware_pci::wire::DeviceSetInterruptModeRequest" }
%"struct.fuchsia_hardware_pci::wire::DeviceSetInterruptModeRequest" = type { %"class.fuchsia_hardware_pci::InterruptMode", i32 }
%"struct.fidl::internal::TransactionalRequest.109" = type <{ %struct.fidl_message_header, %"struct.fuchsia_hardware_pci::wire::DeviceMapInterruptRequest", [4 x i8] }>
%"struct.fuchsia_hardware_pci::wire::DeviceMapInterruptRequest" = type { i32 }
%"class.zx::status.97" = type { %"class.fit::result.98" }
%"class.fit::result.98" = type { %"struct.fit::internal::storage_type.99" }
%"struct.fit::internal::storage_type.99" = type { i32, %"union.fit::internal::error_or_value_type.100" }
%"union.fit::internal::error_or_value_type.100" = type { i32 }
%"class.edu_device::Status" = type { %"class.hwreg::RegisterBase" }
%"class.hwreg::RegisterBase" = type { %"struct.hwreg::internal::FieldParameters", i32, i32 }
%"struct.hwreg::internal::FieldParameters" = type { i32, i32 }
%"struct.std::__2::__optional_destruct_base.16" = type <{ %union.anon.17, i8, [15 x i8] }>
%"class.hwreg::RegisterAddr" = type { i32 }
%"class.hwreg::BitfieldRef" = type { ptr, i32, i32 }
%class.anon.160 = type { ptr }
%"class.fidl::WireResult.101" = type { %"class.fidl::BaseWireResult.base.103", [4 x i8], %"struct.fidl::internal::InlineMessageBuffer", %"class.fidl::DecodedValue.104" }
%"class.fidl::BaseWireResult.base.103" = type <{ %"class.fidl::Status", %"class.std::__2::optional.58" }>
%"class.fidl::DecodedValue.104" = type { ptr }
%"class.fit::success.106" = type { i32 }
%"struct.driver_internal::LogValue.162" = type { ptr, %"struct.driver_internal::Tuplet.163" }
%"struct.driver_internal::Tuplet.163" = type { %"class.std::__2::tuple.164", i64 }
%"class.std::__2::tuple.164" = type { %"struct.std::__2::__tuple_impl.165" }
%"struct.std::__2::__tuple_impl.165" = type { %"class.std::__2::__tuple_leaf.166" }
%"class.std::__2::__tuple_leaf.166" = type { %"struct.driver_internal::KeyValue.167" }
%"struct.driver_internal::KeyValue.167" = type { ptr, ptr }
%"class.std::__2::tuple.168" = type { %"struct.std::__2::__tuple_impl.169" }
%"struct.std::__2::__tuple_impl.169" = type { %"class.std::__2::__tuple_leaf.115", %"class.std::__2::__tuple_leaf.170" }
%"class.std::__2::__tuple_leaf.170" = type { ptr }
%"struct.fidl::internal::TransactionalRequest.112" = type { %struct.fidl_message_header }
%"struct.driver_internal::LogValue.177" = type { ptr, %"struct.driver_internal::Tuplet.178" }
%"struct.driver_internal::Tuplet.178" = type { %"class.std::__2::tuple.179", i64 }
%"class.std::__2::tuple.179" = type { %"struct.std::__2::__tuple_impl.180" }
%"struct.std::__2::__tuple_impl.180" = type { %"class.std::__2::__tuple_leaf.181" }
%"class.std::__2::__tuple_leaf.181" = type { %"struct.driver_internal::KeyValue.182" }
%"struct.driver_internal::KeyValue.182" = type <{ ptr, i32, [4 x i8] }>
%"class.std::__2::tuple.184" = type { %"struct.std::__2::__tuple_impl.185" }
%"struct.std::__2::__tuple_impl.185" = type <{ %"class.std::__2::__tuple_leaf.115", %"class.std::__2::__tuple_leaf.186", [4 x i8] }>
%"class.std::__2::__tuple_leaf.186" = type { i32 }
%"class.fidl::Envelope" = type { %"class.zx::vmo", i16, i16 }
%"struct.fit::internal::empty_type" = type { i8 }
%class.anon = type { ptr }
%"struct.std::__2::__optional_destruct_base" = type <{ %union.anon.8, i8, [7 x i8] }>
%"class.fit::internal::generic_function_base" = type { %union.anon.18, ptr, [8 x i8] }
%"struct.fit::internal::base_target_ops" = type { ptr, ptr, ptr, ptr }
%"struct.driver_internal::EncoderState" = type { %"class.fuchsia_syslog::LogBuffer" }
%"class.fuchsia_syslog::LogBuffer" = type { %struct.fuchsia_log_buffer }
%struct.fuchsia_log_buffer = type { [15 x i64], [4096 x i64] }
%"class.std::__2::optional.127" = type { %"struct.std::__2::__optional_move_assign_base.base.140", [7 x i8] }
%"struct.std::__2::__optional_move_assign_base.base.140" = type { %"struct.std::__2::__optional_copy_assign_base.base.139" }
%"struct.std::__2::__optional_copy_assign_base.base.139" = type { %"struct.std::__2::__optional_move_base.base.138" }
%"struct.std::__2::__optional_move_base.base.138" = type { %"struct.std::__2::__optional_copy_base.base.137" }
%"struct.std::__2::__optional_copy_base.base.137" = type { %"struct.std::__2::__optional_storage_base.base.136" }
%"struct.std::__2::__optional_storage_base.base.136" = type { %"struct.std::__2::__optional_destruct_base.base.135" }
%"struct.std::__2::__optional_destruct_base.base.135" = type <{ %union.anon.134, i8 }>
%union.anon.134 = type { %"class.std::__2::basic_string_view" }
%"class.std::__2::basic_string_view" = type { ptr, i64 }
%"class.std::__2::tuple.118" = type { %"struct.std::__2::__tuple_impl.119" }
%"struct.std::__2::__tuple_impl.119" = type { %"class.std::__2::__tuple_leaf.120" }
%"class.std::__2::__tuple_leaf.120" = type { ptr }
%"struct.std::__2::__tuple_cat" = type { i8 }
%"struct.std::__2::__tuple_cat.121" = type { i8 }
%"struct.std::__2::__tuple_indices" = type { i8 }
%"struct.std::__2::__tuple_types" = type { i8 }
%"struct.std::__2::__tuple_indices.122" = type { i8 }
%"struct.std::__2::__tuple_types.123" = type { i8 }
%"struct.std::__2::__tuple_types.124" = type { i8 }
%"struct.std::__2::__tuple_indices.125" = type { i8 }
%"struct.std::__2::__tuple_types.126" = type { i8 }
%"class.std::__2::optional.142" = type { %"struct.std::__2::__optional_move_assign_base.base.155", [7 x i8] }
%"struct.std::__2::__optional_move_assign_base.base.155" = type { %"struct.std::__2::__optional_copy_assign_base.base.154" }
%"struct.std::__2::__optional_copy_assign_base.base.154" = type { %"struct.std::__2::__optional_move_base.base.153" }
%"struct.std::__2::__optional_move_base.base.153" = type { %"struct.std::__2::__optional_copy_base.base.152" }
%"struct.std::__2::__optional_copy_base.base.152" = type { %"struct.std::__2::__optional_storage_base.base.151" }
%"struct.std::__2::__optional_storage_base.base.151" = type { %"struct.std::__2::__optional_destruct_base.base.150" }
%"struct.std::__2::__optional_destruct_base.base.150" = type <{ %union.anon.149, i8 }>
%union.anon.149 = type { ptr }
%"struct.std::__2::__optional_destruct_base.148" = type <{ %union.anon.149, i8, [7 x i8] }>
%"struct.std::__2::__optional_destruct_base.133" = type <{ %union.anon.134, i8, [7 x i8] }>
%"struct.driver_internal::KeyValue.157" = type { ptr, i64 }
%"struct.std::__2::__optional_destruct_base.32" = type <{ %union.anon.33, i8, [7 x i8] }>
%"class.fidl::BaseWireResult.57" = type <{ %"class.fidl::Status", %"class.std::__2::optional.58", [4 x i8] }>
%"struct.std::__2::__optional_destruct_base.64" = type <{ %union.anon.65, i8, [3 x i8] }>
%"struct.std::__2::__optional_destruct_base.83" = type <{ %union.anon.84, i8, [7 x i8] }>
%"struct.fit::internal::target_ops" = type { %"struct.fit::internal::base_target_ops", ptr }
%"class.std::__2::tuple.171" = type { %"struct.std::__2::__tuple_impl.172" }
%"struct.std::__2::__tuple_impl.172" = type { %"class.std::__2::__tuple_leaf.173" }
%"class.std::__2::__tuple_leaf.173" = type { ptr }
%"struct.std::__2::__tuple_types.174" = type { i8 }
%"struct.std::__2::__tuple_types.175" = type { i8 }
%"struct.std::__2::__tuple_types.176" = type { i8 }
%"class.fidl::BaseWireResult.102" = type <{ %"class.fidl::Status", %"class.std::__2::optional.58", [4 x i8] }>
%"class.std::__2::tuple.188" = type { %"struct.std::__2::__tuple_impl.189" }
%"struct.std::__2::__tuple_impl.189" = type { %"class.std::__2::__tuple_leaf.190" }
%"class.std::__2::__tuple_leaf.190" = type { ptr }
%"struct.std::__2::__tuple_types.191" = type { i8 }
%"struct.std::__2::__tuple_types.192" = type { i8 }
%"struct.std::__2::__tuple_types.193" = type { i8 }
%"struct.driver_internal::KeyValue.194" = type { ptr, i64 }

$_ZNK4fidl14WireSyncClientIN20fuchsia_hardware_pci6DeviceEEptEv = comdat any

$_ZNO4fidl8internal25SyncEndpointManagedVeneerINS0_18WireSyncClientImplIN20fuchsia_hardware_pci6DeviceEEEEptEv = comdat any

$_ZN4fidl8internal18WireSyncClientImplIN20fuchsia_hardware_pci6DeviceEE6GetBarEj = comdat any

$_ZNK4fidl6Status2okEv = comdat any

$_ZNK4fidl6Status6statusEv = comdat any

$_ZN3fit5errorIiEC2IJiELb1EEEDpOT_ = comdat any

$_ZN2zx6statusIJEEC2EN3fit5errorIiEE = comdat any

$_ZN4fidl14BaseWireResultIN20fuchsia_hardware_pci6Device6GetBarEvEptEv = comdat any

$_ZNK3fit6resultIiJPN20fuchsia_hardware_pci4wire20DeviceGetBarResponseEEE8is_errorEv = comdat any

$_ZNR3fit6resultIiJPN20fuchsia_hardware_pci4wire20DeviceGetBarResponseEEE11error_valueEv = comdat any

$_ZN3fit5errorIiEC2IJRiELb1EEEDpOT_ = comdat any

$_ZNR3fit6resultIiJPN20fuchsia_hardware_pci4wire20DeviceGetBarResponseEEE5valueEv = comdat any

$_ZNK20fuchsia_hardware_pci4wire9BarResult6is_vmoEv = comdat any

$_ZN3fdf10MmioBuffer6CreateEmmN2zx3vmoEj = comdat any

$_ZN20fuchsia_hardware_pci4wire9BarResult3vmoEv = comdat any

$_ZN2zx3vmoC2EOS0_ = comdat any

$_ZN2zx3vmoD2Ev = comdat any

$_ZNK3fit6resultIiJN3fdf10MmioBufferEEE8is_errorEv = comdat any

$_ZNK2zx6statusIJN3fdf10MmioBufferEEE12status_valueEv = comdat any

$_ZN3fit6resultIiJN3fdf10MmioBufferEEE10take_errorEv = comdat any

$_ZNO3fit6resultIiJN3fdf10MmioBufferEEEdeEv = comdat any

$_ZNSt3__28optionalIN3fdf10MmioBufferEEaSB7v160000IS2_vEERS3_OT_ = comdat any

$_ZN2zx6statusIJN3fdf10MmioBufferEEED2Ev = comdat any

$_ZN4fidl8internal18WireSyncClientImplIN20fuchsia_hardware_pci6DeviceEE16SetInterruptModeENS2_13InterruptModeEj = comdat any

$_ZN4fidl14BaseWireResultIN20fuchsia_hardware_pci6Device16SetInterruptModeEvEptEv = comdat any

$_ZNK3fit6resultIiJEE8is_errorEv = comdat any

$_ZNR3fit6resultIiJEE11error_valueEv = comdat any

$_ZN4fidl8internal18WireSyncClientImplIN20fuchsia_hardware_pci6DeviceEE12MapInterruptEj = comdat any

$_ZN4fidl14BaseWireResultIN20fuchsia_hardware_pci6Device12MapInterruptEvEptEv = comdat any

$_ZNK3fit6resultIiJPN20fuchsia_hardware_pci4wire26DeviceMapInterruptResponseEEE8is_errorEv = comdat any

$_ZNR3fit6resultIiJPN20fuchsia_hardware_pci4wire26DeviceMapInterruptResponseEEE11error_valueEv = comdat any

$_ZNR3fit6resultIiJPN20fuchsia_hardware_pci4wire26DeviceMapInterruptResponseEEE5valueEv = comdat any

$_ZN2zx9interruptaSEOS0_ = comdat any

$_ZN5async7IrqBase10set_objectEj = comdat any

$_ZNK2zx11object_base3getEv = comdat any

$_ZN3fit2okEv = comdat any

$_ZN2zx6statusIJEECI2N3fit6resultIiJEEEENS2_7successIJEEE = comdat any

$_ZN4fidl10WireResultIN20fuchsia_hardware_pci6Device12MapInterruptEED2Ev = comdat any

$_ZN4fidl10WireResultIN20fuchsia_hardware_pci6Device16SetInterruptModeEED2Ev = comdat any

$_ZN4fidl10WireResultIN20fuchsia_hardware_pci6Device6GetBarEED2Ev = comdat any

$_ZNKSt3__223__optional_storage_baseIN3fit13callback_implILm16ELb0EFvN2zx6statusIJjEEEEEELb0EE9has_valueB7v160000Ev = comdat any

$_ZN3fit13callback_implILm16ELb0EFvN2zx6statusIJjEEEEEclES3_ = comdat any

$_ZN2zx6statusIJjEEC2EN3fit5errorIiEE = comdat any

$_ZN10edu_device13QemuEduDevice14StatusRegisterEv = comdat any

$_ZN10edu_device6Status14set_irq_enableEj = comdat any

$_ZN5hwreg12RegisterBaseIN10edu_device6StatusEjvE7WriteToIN3fdf10MmioBufferEEERS2_PT_ = comdat any

$_ZNRSt3__28optionalIN3fdf10MmioBufferEEdeB7v160000Ev = comdat any

$_ZNSt3__28optionalIN3fdf10MmioBufferEEptB7v160000Ev = comdat any

$_ZNK3fdf10MmioBuffer7Write32Ejm = comdat any

$_ZNSt3__28optionalIN3fit13callback_implILm16ELb0EFvN2zx6statusIJjEEEEEEEaSB7v160000IS7_vEERS8_OT_ = comdat any

$_ZNK2zx9interrupt3ackEv = comdat any

$_ZNRSt3__28optionalIN3fit13callback_implILm16ELb0EFvN2zx6statusIJjEEEEEEEdeB7v160000Ev = comdat any

$_ZN3fit13callback_implILm16ELb0EFvN2zx6statusIJjEEEEEC2EOS5_ = comdat any

$_ZNSt3__28optionalIN3fit13callback_implILm16ELb0EFvN2zx6statusIJjEEEEEEEaSB7v160000ENS_9nullopt_tE = comdat any

$_ZNK3fdf10MmioBuffer6Read32Em = comdat any

$_ZN4fidl8internal18WireSyncClientImplIN20fuchsia_hardware_pci6DeviceEE12AckInterruptEv = comdat any

$_ZN4fidl14BaseWireResultIN20fuchsia_hardware_pci6Device12AckInterruptEvEptEv = comdat any

$_ZN3fit2okIRjEENS_7successIJNSt3__25decayIT_E4typeEEEEOS5_ = comdat any

$_ZN2zx6statusIJjEECI2N3fit6resultIiJjEEEIjLb1EEENS2_7successIJT_EEE = comdat any

$_ZN4fidl10WireResultIN20fuchsia_hardware_pci6Device12AckInterruptEED2Ev = comdat any

$_ZN3fit13callback_implILm16ELb0EFvN2zx6statusIJjEEEEED2Ev = comdat any

$_ZN4fidl8internal20TransactionalRequestIN20fuchsia_hardware_pci6Device6GetBarEEC2Ej = comdat any

$_ZNK4fidl8internal18WireSyncClientImplIN20fuchsia_hardware_pci6DeviceEE11_client_endEv = comdat any

$_ZNK4fidl8internal25SyncEndpointManagedVeneerINS0_18WireSyncClientImplIN20fuchsia_hardware_pci6DeviceEEEE10_transportEv = comdat any

$_ZNK4fidl8internal19AnyUnownedTransport3getINS0_16ChannelTransportEEENT_11UnownedTypeEv = comdat any

$_ZN4fidl16UnownedClientEndIN20fuchsia_hardware_pci6DeviceEECI2NS_8internal19UnownedTransportEndIS2_NS4_16ChannelTransportEEEERKN2zx7unownedINS7_7channelEEE = comdat any

$_ZN2zx7unownedINS_7channelEED2Ev = comdat any

$_ZN2zx7unownedINS_7channelEEC2Ej = comdat any

$_ZN2zx7channelC2Ej = comdat any

$_ZN2zx6objectINS_7channelEEC2Ej = comdat any

$_ZN2zx11object_baseC2Ej = comdat any

$_ZN4fidl8internal20UnownedClientEndBaseIN20fuchsia_hardware_pci6DeviceENS0_16ChannelTransportEECI2NS0_19UnownedTransportEndIS3_S4_EEERKN2zx7unownedINS7_7channelEEE = comdat any

$_ZN4fidl8internal19UnownedTransportEndIN20fuchsia_hardware_pci6DeviceENS0_16ChannelTransportEEC2ERKN2zx7unownedINS6_7channelEEE = comdat any

$_ZNK2zx7unownedINS_7channelEEptEv = comdat any

$_ZN2zx7unownedINS_7channelEE13release_valueEv = comdat any

$__clang_call_terminate = comdat any

$_ZN2zx7channelD2Ev = comdat any

$_ZN2zx11object_base7releaseEv = comdat any

$_ZN2zx6objectINS_7channelEED2Ev = comdat any

$_ZN2zx11object_baseD2Ev = comdat any

$_ZN2zx11object_base5closeEv = comdat any

$_ZN3fit6resultIiJEEC2IiLb1EEENS_5errorIT_EE = comdat any

$_ZN3fit8internal12storage_typeILNS0_15storage_class_eE0EiJEEC2IiEENS0_7error_tEOT_ = comdat any

$_ZN3fit8internal19error_or_value_typeIiNS0_10empty_typeELNS0_15storage_class_eE0EEC2IiEENS0_7error_tEOT_ = comdat any

$_ZNK3fit6resultIiJPN20fuchsia_hardware_pci4wire20DeviceGetBarResponseEEE5is_okEv = comdat any

$_ZN2zx6statusIJN3fdf10MmioBufferEEEC2EN3fit5errorIiEE = comdat any

$_ZN3fit2okIN3fdf10MmioBufferEEENS_7successIJNSt3__25decayIT_E4typeEEEEOS6_ = comdat any

$_ZN3fdf10MmioBufferC2E13mmio_buffer_tPKNS_8internal13MmioBufferOpsEPKv = comdat any

$_ZN2zx6statusIJN3fdf10MmioBufferEEECI2N3fit6resultIiJS2_EEEIS2_Lb1EEENS4_7successIJT_EEE = comdat any

$_ZN3fit7successIJN3fdf10MmioBufferEEED2Ev = comdat any

$_ZN3fdf10MmioBufferD2Ev = comdat any

$_ZN3fit6resultIiJN3fdf10MmioBufferEEEC2IiLb1EEENS_5errorIT_EE = comdat any

$_ZNR3fit6resultIiJN3fdf10MmioBufferEEE11error_valueEv = comdat any

$_ZN3fit6resultIiJN3fdf10MmioBufferEEED2Ev = comdat any

$_ZN3fit8internal12storage_typeILNS0_15storage_class_eE1EiJN3fdf10MmioBufferEEEC2IiEENS0_7error_tEOT_ = comdat any

$_ZN3fit8internal19error_or_value_typeIiN3fdf10MmioBufferELNS0_15storage_class_eE1EEC2IiEENS0_7error_tEOT_ = comdat any

$_ZN3fit8internal12storage_typeILNS0_15storage_class_eE1EiJN3fdf10MmioBufferEEED2Ev = comdat any

$_ZN3fit8internal12storage_typeILNS0_15storage_class_eE1EiJN3fdf10MmioBufferEEE7destroyEv = comdat any

$_ZN3fit8internal19error_or_value_typeIiN3fdf10MmioBufferELNS0_15storage_class_eE1EED2Ev = comdat any

$_ZN3fit8internal19error_or_value_typeIiN3fdf10MmioBufferELNS0_15storage_class_eE1EE7destroyENS0_7value_tE = comdat any

$_ZN3fit8internal19error_or_value_typeIiN3fdf10MmioBufferELNS0_15storage_class_eE1EE7destroyENS0_7error_tE = comdat any

$_ZN3fit7successIJN3fdf10MmioBufferEEEC2IJS2_ELb1EEEDpOT_ = comdat any

$_ZN3fdf10MmioBufferC2EOS0_ = comdat any

$_ZN3fdf10MmioBuffer8transferEOS0_ = comdat any

$_ZN3fdf10MmioBufferD0Ev = comdat any

$_ZN3fit6resultIiJN3fdf10MmioBufferEEEC2IS2_Lb1EEENS_7successIJT_EEE = comdat any

$_ZN3fit8internal12storage_typeILNS0_15storage_class_eE1EiJN3fdf10MmioBufferEEEC2IS4_EENS0_7value_tEOT_ = comdat any

$_ZN3fit8internal19error_or_value_typeIiN3fdf10MmioBufferELNS0_15storage_class_eE1EEC2IS3_EENS0_7value_tEOT_ = comdat any

$_ZN4fidl15UntypedEnvelope2AsIN2zx3vmoEEERNS_8EnvelopeIT_vEEv = comdat any

$_ZN4fidl8EnvelopeIN2zx3vmoEvE8get_dataEv = comdat any

$_ZNK4fidl8EnvelopeIN2zx3vmoEvE8has_dataEv = comdat any

$_ZN2zx6objectINS_3vmoEEC2Ej = comdat any

$_ZN2zx6objectINS_3vmoEED2Ev = comdat any

$_ZNKR3fit6resultIiJN3fdf10MmioBufferEEE11error_valueEv = comdat any

$_ZNR3fit6resultIiJN3fdf10MmioBufferEEE5valueEv = comdat any

$_ZNK3fit6resultIiJN3fdf10MmioBufferEEE5is_okEv = comdat any

$_ZN4fidl8internal20TransactionalRequestIN20fuchsia_hardware_pci6Device16SetInterruptModeEEC2ENS2_13InterruptModeEj = comdat any

$_ZN4fidl8internal20TransactionalRequestIN20fuchsia_hardware_pci6Device12MapInterruptEEC2Ej = comdat any

$_ZNK3fit6resultIiJPN20fuchsia_hardware_pci4wire26DeviceMapInterruptResponseEEE5is_okEv = comdat any

$_ZN2zx11object_base5resetEj = comdat any

$_ZN3fit6resultIiJEEC2ENS_7successIJEEE = comdat any

$_ZN3fit8internal12storage_typeILNS0_15storage_class_eE0EiJEEC2ENS0_7value_tE = comdat any

$_ZN3fit8internal19error_or_value_typeIiNS0_10empty_typeELNS0_15storage_class_eE0EEC2IS2_EENS0_7value_tEOT_ = comdat any

$_ZN4fidl12DecodedValueINS_12WireResponseIN20fuchsia_hardware_pci6Device12MapInterruptEEEED2Ev = comdat any

$_ZN4fidl12DecodedValueINS_12WireResponseIN20fuchsia_hardware_pci6Device16SetInterruptModeEEEED2Ev = comdat any

$_ZN4fidl12DecodedValueINS_12WireResponseIN20fuchsia_hardware_pci6Device6GetBarEEEED2Ev = comdat any

$_ZN4fidl8internal18BoxedMessageBufferILm65536EED2Ev = comdat any

$_ZN3fit6resultIiJjEEC2IiLb1EEENS_5errorIT_EE = comdat any

$_ZNR3fit6resultIiJjEE11error_valueEv = comdat any

$_ZN3fit8internal12storage_typeILNS0_15storage_class_eE0EiJjEEC2IiEENS0_7error_tEOT_ = comdat any

$_ZN3fit8internal19error_or_value_typeIijLNS0_15storage_class_eE0EEC2IiEENS0_7error_tEOT_ = comdat any

$_ZNK3fit6resultIiJjEE8is_errorEv = comdat any

$_ZN10edu_device6Status3GetEv = comdat any

$_ZN5hwreg12RegisterAddrIN10edu_device6StatusEE8ReadFromIN3fdf10MmioBufferEEES2_PT_ = comdat any

$_ZN5hwreg12RegisterAddrIN10edu_device6StatusEEC2Ej = comdat any

$_ZN10edu_device6StatusC2Ev = comdat any

$_ZN5hwreg12RegisterBaseIN10edu_device6StatusEjvE12set_reg_addrEj = comdat any

$_ZN5hwreg12RegisterBaseIN10edu_device6StatusEjvE8ReadFromIN3fdf10MmioBufferEEERS2_PT_ = comdat any

$_ZN5hwreg12RegisterBaseIN10edu_device6StatusEjvEC2Ev = comdat any

$_ZN5hwreg8internal5FieldIN10edu_device6StatusENS3_10busyMarkerEEC2EPNS0_15FieldParametersILb0EjEEPKcjj = comdat any

$_ZN5hwreg8internal5FieldIN10edu_device6StatusENS3_16irq_enableMarkerEEC2EPNS0_15FieldParametersILb0EjEEPKcjj = comdat any

$_ZN5hwreg8internal15FieldParametersILb0EjEC2Ev = comdat any

$_ZN5hwreg8internal11ComputeMaskIjEET_j = comdat any

$_ZN5hwreg8internal16FieldPrinterListILb0EjE11AppendFieldEPKcjj = comdat any

$_ZN5hwreg8internal5VisitIZNS_12RegisterBaseIN10edu_device6StatusEjvE8ReadFromIN3fdf10MmioBufferEEERS4_PT_EUlOSA_E_RS8_JEEEvSC_OT0_DpOT1_ = comdat any

$_ZZN5hwreg12RegisterBaseIN10edu_device6StatusEjvE8ReadFromIN3fdf10MmioBufferEEERS2_PT_ENKUlOS8_E_clIRS6_EEDaSA_ = comdat any

$_ZNK3fdf10MmioBuffer4ReadIjEET_m = comdat any

$_ZN5hwreg12RegisterBaseIN10edu_device6StatusEjvE13reg_value_ptrEv = comdat any

$_ZN5hwreg11BitfieldRefIjEC2EPjjj = comdat any

$_ZN5hwreg11BitfieldRefIjE3setEj = comdat any

$_ZNRSt3__223__optional_storage_baseIN3fdf10MmioBufferELb0EE5__getB7v160000Ev = comdat any

$_ZNRSt3__223__optional_storage_baseIN3fit13callback_implILm16ELb0EFvN2zx6statusIJjEEEEEELb0EE5__getB7v160000Ev = comdat any

$_ZN4fidl8internal20TransactionalRequestIN20fuchsia_hardware_pci6Device12AckInterruptEEC2Ev = comdat any

$_ZN3fit7successIJjEEC2IJRjELb1EEEDpOT_ = comdat any

$_ZN3fit6resultIiJjEEC2IjLb1EEENS_7successIJT_EEE = comdat any

$_ZN3fit8internal12storage_typeILNS0_15storage_class_eE0EiJjEEC2IjEENS0_7value_tEOT_ = comdat any

$_ZN3fit8internal19error_or_value_typeIijLNS0_15storage_class_eE0EEC2IjEENS0_7value_tEOT_ = comdat any

$_ZN4fidl12DecodedValueINS_12WireResponseIN20fuchsia_hardware_pci6Device12AckInterruptEEEED2Ev = comdat any

$_ZN3fit8internal13function_baseILm16ELb0EFvN2zx6statusIJjEEEEED2Ev = comdat any

$_ZN3fit8internal21generic_function_baseILm16EED2Ev = comdat any

$_ZN3fit8internal21generic_function_baseILm16EE14destroy_targetEv = comdat any

$_ZNKSt3__223__optional_storage_baseIN3fdf10MmioBufferELb0EE9has_valueB7v160000Ev = comdat any

$_ZN3fdf10MmioBufferaSEOS0_ = comdat any

$_ZNSt3__223__optional_storage_baseIN3fdf10MmioBufferELb0EE11__constructB7v160000IJS2_EEEvDpOT_ = comdat any

$_ZNK4fidl14WireSyncClientIN20fuchsia_hardware_pci6DeviceEE8is_validEv = comdat any

$_ZN4fidl8internal23MakeAnyUnownedTransportIN2zx7unownedINS2_7channelEEEEENS0_19AnyUnownedTransportERKT_ = comdat any

$_ZNK4fidl8internal12TransportEndIN20fuchsia_hardware_pci6DeviceENS0_16ChannelTransportEE6handleEv = comdat any

$_ZN4fidl8internal25SyncEndpointManagedVeneerINS0_18WireSyncClientImplIN20fuchsia_hardware_pci6DeviceEEEEC2ENS0_19AnyUnownedTransportE = comdat any

$_ZNK4fidl8internal12TransportEndIN20fuchsia_hardware_pci6DeviceENS0_16ChannelTransportEE8is_validEv = comdat any

$_ZNK2zx11object_base8is_validEv = comdat any

$_ZN4fidl8internal19AnyUnownedTransport4MakeINS0_16ChannelTransportEEES1_j = comdat any

$_ZN4fidl8internal19AnyUnownedTransportC2EPKNS0_15TransportVTableEj = comdat any

$_ZNSt3__210make_tupleB7v160000IJRPKcRiEEENS_5tupleIJDpNS_18__unwrap_ref_decayIT_E4typeEEEEDpOS7_ = comdat any

$_ZNK15driver_internal8LogValueIPKcJNS_8KeyValueIS2_iEEEE6LogNewERN6driver6LoggerEaS2_jS2_ = comdat any

$_ZN15driver_internal8LogValueIPKcJNS_8KeyValueIS2_iEEEEC2ES2_NS_6TupletIJS4_EEE = comdat any

$_ZNSt3__210make_tupleB7v160000IJEEENS_5tupleIJDpNS_18__unwrap_ref_decayIT_E4typeEEEEDpOS3_ = comdat any

$_ZNSt3__23getB7v160000ILm0EJPKciEEERNS_13tuple_elementIXT_ENS_5tupleIJDpT0_EEEE4typeERS7_ = comdat any

$_ZNSt3__23getB7v160000ILm1EJPKciEEERNS_13tuple_elementIXT_ENS_5tupleIJDpT0_EEEE4typeERS7_ = comdat any

$_ZNSt3__29tuple_catB7v160000IRNS_5tupleIJEEEJNS1_IJN15driver_internal8KeyValueIPKciEEEEEEEENS_18__tuple_cat_returnIJT_DpT0_EE4typeEOSB_DpOSC_ = comdat any

$_ZNSt3__210make_tupleB7v160000IJN15driver_internal8KeyValueIPKciEEEEENS_5tupleIJDpNS_18__unwrap_ref_decayIT_E4typeEEEEDpOS8_ = comdat any

$_ZN15driver_internal16KeyValueInternalIPKciEENS_8KeyValueIT_T0_EES4_S5_ = comdat any

$_ZNSt3__212__tuple_leafILm0EPKcLb0EE3getB7v160000Ev = comdat any

$_ZNSt3__212__tuple_leafILm1EiLb0EE3getB7v160000Ev = comdat any

$_ZNSt3__211__tuple_catINS_5tupleIJEEENS_15__tuple_indicesIJEEES4_EclB7v160000IRS2_NS1_IJN15driver_internal8KeyValueIPKciEEEEEJEEENS_22__tuple_cat_return_refIOS2_JOT_OT0_DpOT1_EE4typeES2_SH_SJ_SM_ = comdat any

$_ZNSt3__25tupleIJN15driver_internal8KeyValueIPKciEEEEC2B7v160000IJOS5_ELi0EEEONS0_IJDpT_EEE = comdat any

$_ZNSt3__211__tuple_catINS_5tupleIJEEENS_15__tuple_indicesIJEEENS3_IJLm0EEEEEclB7v160000INS1_IJN15driver_internal8KeyValueIPKciEEEEEEENS_22__tuple_cat_return_refIOS2_JOT_EE4typeES2_SH_ = comdat any

$_ZNSt3__216forward_as_tupleB7v160000IJEEENS_5tupleIJDpOT_EEES4_ = comdat any

$_ZNSt3__216forward_as_tupleB7v160000IJN15driver_internal8KeyValueIPKciEEEEENS_5tupleIJDpOT_EEES9_ = comdat any

$_ZNSt3__23getB7v160000ILm0EJN15driver_internal8KeyValueIPKciEEEEEONS_13tuple_elementIXT_ENS_5tupleIJDpT0_EEEE4typeEOSA_ = comdat any

$_ZNSt3__25tupleIJON15driver_internal8KeyValueIPKciEEEEC2B7v160000IJS5_ELi0EEEDpOT_ = comdat any

$_ZNSt3__212__tuple_implINS_15__tuple_indicesIJLm0EEEEJON15driver_internal8KeyValueIPKciEEEEC2B7v160000IJLm0EEJS8_EJEJEJS7_EEENS1_IJXspT_EEEENS_13__tuple_typesIJDpT0_EEENS1_IJXspT1_EEEENSC_IJDpT2_EEEDpOT3_ = comdat any

$_ZNSt3__212__tuple_leafILm0EON15driver_internal8KeyValueIPKciEELb0EEC2B7v160000IS5_vEEOT_ = comdat any

$_ZNSt3__212__tuple_leafILm0EN15driver_internal8KeyValueIPKciEELb0EE3getB7v160000Ev = comdat any

$_ZNSt3__212__tuple_implINS_15__tuple_indicesIJLm0EEEEJN15driver_internal8KeyValueIPKciEEEEC2B7v160000INS_5tupleIJOS7_EEEvEEOT_ = comdat any

$_ZNSt3__23getB7v160000ILm0EJON15driver_internal8KeyValueIPKciEEEEERNS_13tuple_elementIXT_ENS_5tupleIJDpT0_EEEE4typeERSB_ = comdat any

$_ZNSt3__212__tuple_leafILm0EN15driver_internal8KeyValueIPKciEELb0EEC2B7v160000IS5_vEEOT_ = comdat any

$_ZNSt3__212__tuple_leafILm0EON15driver_internal8KeyValueIPKciEELb0EE3getB7v160000Ev = comdat any

$_ZNSt3__25tupleIJN15driver_internal8KeyValueIPKciEEEEC2B7v160000IJS5_ELi0EEEDpOT_ = comdat any

$_ZNSt3__212__tuple_implINS_15__tuple_indicesIJLm0EEEEJN15driver_internal8KeyValueIPKciEEEEC2B7v160000IJLm0EEJS7_EJEJEJS7_EEENS1_IJXspT_EEEENS_13__tuple_typesIJDpT0_EEENS1_IJXspT1_EEEENSB_IJDpT2_EEEDpOT3_ = comdat any

$_ZN15driver_internal8KeyValueIPKciEC2ES2_i = comdat any

$_ZN15driver_internal6TupletIJNS_8KeyValueIPKciEEEEC2ENSt3__25tupleIJS4_EEEm = comdat any

$_ZNSt3__25tupleIJPKciEEC2B7v160000IJRS2_RiELi0EEEDpOT_ = comdat any

$_ZNSt3__212__tuple_implINS_15__tuple_indicesIJLm0ELm1EEEEJPKciEEC2B7v160000IJLm0ELm1EEJS4_iEJEJEJRS4_RiEEENS1_IJXspT_EEEENS_13__tuple_typesIJDpT0_EEENS1_IJXspT1_EEEENSA_IJDpT2_EEEDpOT3_ = comdat any

$_ZNSt3__212__tuple_leafILm0EPKcLb0EEC2B7v160000IRS2_vEEOT_ = comdat any

$_ZNSt3__212__tuple_leafILm1EiLb0EEC2B7v160000IRivEEOT_ = comdat any

$_ZN15driver_internal12EncoderState6EncodeILm0ELm1EJNS_8KeyValueIPKciEEELi0EEEvNS_6TupletIJDpT1_EEE = comdat any

$_ZNSt3__28optionalIPKcEC2B7v160000IRS2_Li0EEEOT_ = comdat any

$_ZNSt3__28optionalINS_17basic_string_viewIcNS_11char_traitsIcEEEEEC2B7v160000IPKcLi0EEEONS0_IT_EE = comdat any

$_ZNSt3__28optionalINS_17basic_string_viewIcNS_11char_traitsIcEEEEEC2B7v160000ENS_9nullopt_tE = comdat any

$_ZNSt3__227__optional_move_assign_baseIPKcLb1EECI2NS_24__optional_destruct_baseIS2_Lb1EEEIJRS2_EEENS_10in_place_tEDpOT_ = comdat any

$_ZNSt3__227__optional_copy_assign_baseIPKcLb1EECI2NS_24__optional_destruct_baseIS2_Lb1EEEIJRS2_EEENS_10in_place_tEDpOT_ = comdat any

$_ZNSt3__220__optional_move_baseIPKcLb1EECI2NS_24__optional_destruct_baseIS2_Lb1EEEIJRS2_EEENS_10in_place_tEDpOT_ = comdat any

$_ZNSt3__220__optional_copy_baseIPKcLb1EECI2NS_24__optional_destruct_baseIS2_Lb1EEEIJRS2_EEENS_10in_place_tEDpOT_ = comdat any

$_ZNSt3__223__optional_storage_baseIPKcLb0EECI2NS_24__optional_destruct_baseIS2_Lb1EEEIJRS2_EEENS_10in_place_tEDpOT_ = comdat any

$_ZNSt3__224__optional_destruct_baseIPKcLb1EEC2B7v160000IJRS2_EEENS_10in_place_tEDpOT_ = comdat any

$_ZNSt3__227__optional_move_assign_baseINS_17basic_string_viewIcNS_11char_traitsIcEEEELb1EEC2Ev = comdat any

$_ZNSt3__223__optional_storage_baseINS_17basic_string_viewIcNS_11char_traitsIcEEEELb0EE16__construct_fromB7v160000INS_8optionalIPKcEEEEvOT_ = comdat any

$_ZNSt3__227__optional_copy_assign_baseINS_17basic_string_viewIcNS_11char_traitsIcEEEELb1EEC2Ev = comdat any

$_ZNSt3__220__optional_move_baseINS_17basic_string_viewIcNS_11char_traitsIcEEEELb1EEC2Ev = comdat any

$_ZNSt3__220__optional_copy_baseINS_17basic_string_viewIcNS_11char_traitsIcEEEELb1EEC2Ev = comdat any

$_ZNSt3__223__optional_storage_baseINS_17basic_string_viewIcNS_11char_traitsIcEEEELb0EEC2Ev = comdat any

$_ZNSt3__224__optional_destruct_baseINS_17basic_string_viewIcNS_11char_traitsIcEEEELb1EEC2B7v160000Ev = comdat any

$_ZNKSt3__223__optional_storage_baseIPKcLb0EE9has_valueB7v160000Ev = comdat any

$_ZNSt3__223__optional_storage_baseINS_17basic_string_viewIcNS_11char_traitsIcEEEELb0EE11__constructB7v160000IJPKcEEEvDpOT_ = comdat any

$_ZNOSt3__223__optional_storage_baseIPKcLb0EE5__getB7v160000Ev = comdat any

$_ZNSt3__217basic_string_viewIcNS_11char_traitsIcEEEC2B7v160000EPKc = comdat any

$_ZNSt3__228__char_traits_length_checkedB7v160000INS_11char_traitsIcEEEEmPKNT_9char_typeE = comdat any

$_ZNSt3__211char_traitsIcE6lengthEPKc = comdat any

$_ZNSt3__23getB7v160000ILm0EJN15driver_internal8KeyValueIPKciEEEEERNS_13tuple_elementIXT_ENS_5tupleIJDpT0_EEEE4typeERSA_ = comdat any

$_ZN15driver_internal12EncoderState6EncodeENS_8KeyValueIPKciEE = comdat any

$_ZN15driver_internal12EncoderState6EncodeILm1ELm1EJNS_8KeyValueIPKciEEELi0EEEvNS_6TupletIJDpT1_EEE = comdat any

$_ZN15driver_internal12EncoderState6EncodeENS_8KeyValueIPKclEE = comdat any

$_ZN15driver_internal8KeyValueIPKclEC2ES2_l = comdat any

$_ZN14fuchsia_syslog9LogBuffer13WriteKeyValueENSt3__217basic_string_viewIcNS1_11char_traitsIcEEEEl = comdat any

$_ZN14fuchsia_syslog9LogBuffer16StringViewToCStrENSt3__28optionalINS1_17basic_string_viewIcNS1_11char_traitsIcEEEEEE = comdat any

$_ZNSt3__28optionalINS_17basic_string_viewIcNS_11char_traitsIcEEEEEC2B7v160000IRS4_Li0EEEOT_ = comdat any

$_ZN14fuchsia_syslog9LogBuffer16StringViewLengthENSt3__28optionalINS1_17basic_string_viewIcNS1_11char_traitsIcEEEEEE = comdat any

$_ZNKSt3__223__optional_storage_baseINS_17basic_string_viewIcNS_11char_traitsIcEEEELb0EE9has_valueB7v160000Ev = comdat any

$_ZNRSt3__28optionalINS_17basic_string_viewIcNS_11char_traitsIcEEEEE5valueB7v160000Ev = comdat any

$_ZNKSt3__217basic_string_viewIcNS_11char_traitsIcEEE4dataB7v160000Ev = comdat any

$_ZNSt3__227__throw_bad_optional_accessB7v160000Ev = comdat any

$_ZNRSt3__223__optional_storage_baseINS_17basic_string_viewIcNS_11char_traitsIcEEEELb0EE5__getB7v160000Ev = comdat any

$_ZNSt19bad_optional_accessC2Ev = comdat any

$_ZNSt9exceptionC2B7v160000Ev = comdat any

$_ZNSt3__227__optional_move_assign_baseINS_17basic_string_viewIcNS_11char_traitsIcEEEELb1EECI2NS_24__optional_destruct_baseIS4_Lb1EEEIJRS4_EEENS_10in_place_tEDpOT_ = comdat any

$_ZNSt3__227__optional_copy_assign_baseINS_17basic_string_viewIcNS_11char_traitsIcEEEELb1EECI2NS_24__optional_destruct_baseIS4_Lb1EEEIJRS4_EEENS_10in_place_tEDpOT_ = comdat any

$_ZNSt3__220__optional_move_baseINS_17basic_string_viewIcNS_11char_traitsIcEEEELb1EECI2NS_24__optional_destruct_baseIS4_Lb1EEEIJRS4_EEENS_10in_place_tEDpOT_ = comdat any

$_ZNSt3__220__optional_copy_baseINS_17basic_string_viewIcNS_11char_traitsIcEEEELb1EECI2NS_24__optional_destruct_baseIS4_Lb1EEEIJRS4_EEENS_10in_place_tEDpOT_ = comdat any

$_ZNSt3__223__optional_storage_baseINS_17basic_string_viewIcNS_11char_traitsIcEEEELb0EECI2NS_24__optional_destruct_baseIS4_Lb1EEEIJRS4_EEENS_10in_place_tEDpOT_ = comdat any

$_ZNSt3__224__optional_destruct_baseINS_17basic_string_viewIcNS_11char_traitsIcEEEELb1EEC2B7v160000IJRS4_EEENS_10in_place_tEDpOT_ = comdat any

$_ZNKSt3__217basic_string_viewIcNS_11char_traitsIcEEE6lengthB7v160000Ev = comdat any

$_ZN4fidl14BaseWireResultIN20fuchsia_hardware_pci6Device6GetBarEvE5valueEv = comdat any

$_ZN4fidl14BaseWireResultIN20fuchsia_hardware_pci6Device6GetBarEvE6UnwrapEv = comdat any

$_ZNRSt3__28optionalIN3fit6resultIiJPN20fuchsia_hardware_pci4wire20DeviceGetBarResponseEEEEE5valueB7v160000Ev = comdat any

$_ZNKSt3__223__optional_storage_baseIN3fit6resultIiJPN20fuchsia_hardware_pci4wire20DeviceGetBarResponseEEEELb0EE9has_valueB7v160000Ev = comdat any

$_ZNRSt3__223__optional_storage_baseIN3fit6resultIiJPN20fuchsia_hardware_pci4wire20DeviceGetBarResponseEEEELb0EE5__getB7v160000Ev = comdat any

$_ZNK15driver_internal8LogValueIPKcJEE6LogNewERN6driver6LoggerEaS2_jS2_ = comdat any

$_ZN15driver_internal8LogValueIPKcJEEC2ES2_NS_6TupletIJEEE = comdat any

$_ZN15driver_internal6TupletIJEEC2ENSt3__25tupleIJEEEm = comdat any

$_ZN15driver_internal12EncoderState6EncodeILm0ELm0EJELi0EEEvNS_6TupletIJDpT1_EEE = comdat any

$_ZN4fidl14BaseWireResultIN20fuchsia_hardware_pci6Device16SetInterruptModeEvE5valueEv = comdat any

$_ZN4fidl14BaseWireResultIN20fuchsia_hardware_pci6Device16SetInterruptModeEvE6UnwrapEv = comdat any

$_ZNRSt3__28optionalIN3fit6resultIiJEEEE5valueB7v160000Ev = comdat any

$_ZNKSt3__223__optional_storage_baseIN3fit6resultIiJEEELb0EE9has_valueB7v160000Ev = comdat any

$_ZNRSt3__223__optional_storage_baseIN3fit6resultIiJEEELb0EE5__getB7v160000Ev = comdat any

$_ZN4fidl14BaseWireResultIN20fuchsia_hardware_pci6Device12MapInterruptEvE5valueEv = comdat any

$_ZN4fidl14BaseWireResultIN20fuchsia_hardware_pci6Device12MapInterruptEvE6UnwrapEv = comdat any

$_ZNRSt3__28optionalIN3fit6resultIiJPN20fuchsia_hardware_pci4wire26DeviceMapInterruptResponseEEEEE5valueB7v160000Ev = comdat any

$_ZNKSt3__223__optional_storage_baseIN3fit6resultIiJPN20fuchsia_hardware_pci4wire26DeviceMapInterruptResponseEEEELb0EE9has_valueB7v160000Ev = comdat any

$_ZNRSt3__223__optional_storage_baseIN3fit6resultIiJPN20fuchsia_hardware_pci4wire26DeviceMapInterruptResponseEEEELb0EE5__getB7v160000Ev = comdat any

$_ZNK3fit8internal13function_baseILm16ELb0EFvN2zx6statusIJjEEEEE6invokeES4_ = comdat any

$_ZNK3fit8internal21generic_function_baseILm16EE3opsEv = comdat any

$_ZNK3fit8internal21generic_function_baseILm16EE4bitsEv = comdat any

$_ZN5hwreg8internal5VisitIZNS_12RegisterBaseIN10edu_device6StatusEjvE7WriteToIN3fdf10MmioBufferEEERS4_PT_EUlOSA_E_RS8_JEEEvSC_OT0_DpOT1_ = comdat any

$_ZZN5hwreg12RegisterBaseIN10edu_device6StatusEjvE7WriteToIN3fdf10MmioBufferEEERS2_PT_ENKUlOS8_E_clIRS6_EEDaSA_ = comdat any

$_ZNK3fdf10MmioBuffer5WriteIjEEvT_m = comdat any

$_ZN3fit13callback_implILm16ELb0EFvN2zx6statusIJjEEEEEaSEOS5_ = comdat any

$_ZNSt3__223__optional_storage_baseIN3fit13callback_implILm16ELb0EFvN2zx6statusIJjEEEEEELb0EE11__constructB7v160000IJS7_EEEvDpOT_ = comdat any

$_ZN3fit8internal21generic_function_baseILm16EE15assign_functionEOS2_ = comdat any

$_ZN3fit8internal21generic_function_baseILm16EE16move_target_fromERS2_ = comdat any

$_ZN3fit8internal21generic_function_baseILm16EE22initialize_null_targetEv = comdat any

$_ZN3fit8internal23unshared_target_type_idEPvPKv = comdat any

$_ZN3fit8internal15null_target_getEPv = comdat any

$_ZN3fit8internal16null_target_moveEPvS1_ = comdat any

$_ZN3fit8internal22trivial_target_destroyEPv = comdat any

$_ZN3fit8internal11null_targetIvE6invokeEPv = comdat any

$_ZN3fit8internal13function_baseILm16ELb0EFvN2zx6statusIJjEEEEEC2EOS6_ = comdat any

$_ZN3fit8internal21generic_function_baseILm16EEC2EOS2_ = comdat any

$_ZNSt3__224__optional_destruct_baseIN3fit13callback_implILm16ELb0EFvN2zx6statusIJjEEEEEELb0EE5resetB7v160000Ev = comdat any

$_ZNSt3__210make_tupleB7v160000IJRPKcS3_EEENS_5tupleIJDpNS_18__unwrap_ref_decayIT_E4typeEEEEDpOS6_ = comdat any

$_ZNK15driver_internal8LogValueIPKcJNS_8KeyValueIS2_S2_EEEE6LogNewERN6driver6LoggerEaS2_jS2_ = comdat any

$_ZN15driver_internal8LogValueIPKcJNS_8KeyValueIS2_S2_EEEEC2ES2_NS_6TupletIJS4_EEE = comdat any

$_ZNSt3__23getB7v160000ILm0EJPKcS2_EEERNS_13tuple_elementIXT_ENS_5tupleIJDpT0_EEEE4typeERS7_ = comdat any

$_ZNSt3__23getB7v160000ILm1EJPKcS2_EEERNS_13tuple_elementIXT_ENS_5tupleIJDpT0_EEEE4typeERS7_ = comdat any

$_ZNSt3__29tuple_catB7v160000IRNS_5tupleIJEEEJNS1_IJN15driver_internal8KeyValueIPKcS7_EEEEEEEENS_18__tuple_cat_returnIJT_DpT0_EE4typeEOSB_DpOSC_ = comdat any

$_ZNSt3__210make_tupleB7v160000IJN15driver_internal8KeyValueIPKcS4_EEEEENS_5tupleIJDpNS_18__unwrap_ref_decayIT_E4typeEEEEDpOS8_ = comdat any

$_ZN15driver_internal16KeyValueInternalIPKcS2_EENS_8KeyValueIT_T0_EES4_S5_ = comdat any

$_ZNSt3__212__tuple_leafILm1EPKcLb0EE3getB7v160000Ev = comdat any

$_ZNSt3__211__tuple_catINS_5tupleIJEEENS_15__tuple_indicesIJEEES4_EclB7v160000IRS2_NS1_IJN15driver_internal8KeyValueIPKcSB_EEEEEJEEENS_22__tuple_cat_return_refIOS2_JOT_OT0_DpOT1_EE4typeES2_SH_SJ_SM_ = comdat any

$_ZNSt3__25tupleIJN15driver_internal8KeyValueIPKcS4_EEEEC2B7v160000IJOS5_ELi0EEEONS0_IJDpT_EEE = comdat any

$_ZNSt3__211__tuple_catINS_5tupleIJEEENS_15__tuple_indicesIJEEENS3_IJLm0EEEEEclB7v160000INS1_IJN15driver_internal8KeyValueIPKcSB_EEEEEEENS_22__tuple_cat_return_refIOS2_JOT_EE4typeES2_SH_ = comdat any

$_ZNSt3__216forward_as_tupleB7v160000IJN15driver_internal8KeyValueIPKcS4_EEEEENS_5tupleIJDpOT_EEES9_ = comdat any

$_ZNSt3__23getB7v160000ILm0EJN15driver_internal8KeyValueIPKcS4_EEEEEONS_13tuple_elementIXT_ENS_5tupleIJDpT0_EEEE4typeEOSA_ = comdat any

$_ZNSt3__25tupleIJON15driver_internal8KeyValueIPKcS4_EEEEC2B7v160000IJS5_ELi0EEEDpOT_ = comdat any

$_ZNSt3__212__tuple_implINS_15__tuple_indicesIJLm0EEEEJON15driver_internal8KeyValueIPKcS6_EEEEC2B7v160000IJLm0EEJS8_EJEJEJS7_EEENS1_IJXspT_EEEENS_13__tuple_typesIJDpT0_EEENS1_IJXspT1_EEEENSC_IJDpT2_EEEDpOT3_ = comdat any

$_ZNSt3__212__tuple_leafILm0EON15driver_internal8KeyValueIPKcS4_EELb0EEC2B7v160000IS5_vEEOT_ = comdat any

$_ZNSt3__212__tuple_leafILm0EN15driver_internal8KeyValueIPKcS4_EELb0EE3getB7v160000Ev = comdat any

$_ZNSt3__212__tuple_implINS_15__tuple_indicesIJLm0EEEEJN15driver_internal8KeyValueIPKcS6_EEEEC2B7v160000INS_5tupleIJOS7_EEEvEEOT_ = comdat any

$_ZNSt3__23getB7v160000ILm0EJON15driver_internal8KeyValueIPKcS4_EEEEERNS_13tuple_elementIXT_ENS_5tupleIJDpT0_EEEE4typeERSB_ = comdat any

$_ZNSt3__212__tuple_leafILm0EN15driver_internal8KeyValueIPKcS4_EELb0EEC2B7v160000IS5_vEEOT_ = comdat any

$_ZNSt3__212__tuple_leafILm0EON15driver_internal8KeyValueIPKcS4_EELb0EE3getB7v160000Ev = comdat any

$_ZNSt3__25tupleIJN15driver_internal8KeyValueIPKcS4_EEEEC2B7v160000IJS5_ELi0EEEDpOT_ = comdat any

$_ZNSt3__212__tuple_implINS_15__tuple_indicesIJLm0EEEEJN15driver_internal8KeyValueIPKcS6_EEEEC2B7v160000IJLm0EEJS7_EJEJEJS7_EEENS1_IJXspT_EEEENS_13__tuple_typesIJDpT0_EEENS1_IJXspT1_EEEENSB_IJDpT2_EEEDpOT3_ = comdat any

$_ZN15driver_internal8KeyValueIPKcS2_EC2ES2_S2_ = comdat any

$_ZN15driver_internal6TupletIJNS_8KeyValueIPKcS3_EEEEC2ENSt3__25tupleIJS4_EEEm = comdat any

$_ZNSt3__25tupleIJPKcS2_EEC2B7v160000IJRS2_S5_ELi0EEEDpOT_ = comdat any

$_ZNSt3__212__tuple_implINS_15__tuple_indicesIJLm0ELm1EEEEJPKcS4_EEC2B7v160000IJLm0ELm1EEJS4_S4_EJEJEJRS4_S7_EEENS1_IJXspT_EEEENS_13__tuple_typesIJDpT0_EEENS1_IJXspT1_EEEENS9_IJDpT2_EEEDpOT3_ = comdat any

$_ZNSt3__212__tuple_leafILm1EPKcLb0EEC2B7v160000IRS2_vEEOT_ = comdat any

$_ZN15driver_internal12EncoderState6EncodeILm0ELm1EJNS_8KeyValueIPKcS4_EEELi0EEEvNS_6TupletIJDpT1_EEE = comdat any

$_ZNSt3__23getB7v160000ILm0EJN15driver_internal8KeyValueIPKcS4_EEEEERNS_13tuple_elementIXT_ENS_5tupleIJDpT0_EEEE4typeERSA_ = comdat any

$_ZN15driver_internal12EncoderState6EncodeENS_8KeyValueIPKcS3_EE = comdat any

$_ZN15driver_internal12EncoderState6EncodeILm1ELm1EJNS_8KeyValueIPKcS4_EEELi0EEEvNS_6TupletIJDpT1_EEE = comdat any

$_ZN14fuchsia_syslog9LogBuffer13WriteKeyValueENSt3__217basic_string_viewIcNS1_11char_traitsIcEEEES5_ = comdat any

$_ZN4fidl14BaseWireResultIN20fuchsia_hardware_pci6Device12AckInterruptEvE5valueEv = comdat any

$_ZN4fidl14BaseWireResultIN20fuchsia_hardware_pci6Device12AckInterruptEvE6UnwrapEv = comdat any

$_ZNSt3__210make_tupleB7v160000IJRPKcRjEEENS_5tupleIJDpNS_18__unwrap_ref_decayIT_E4typeEEEEDpOS7_ = comdat any

$_ZNK15driver_internal8LogValueIPKcJNS_8KeyValueIS2_jEEEE6LogNewERN6driver6LoggerEaS2_jS2_ = comdat any

$_ZN15driver_internal8LogValueIPKcJNS_8KeyValueIS2_jEEEEC2ES2_NS_6TupletIJS4_EEE = comdat any

$_ZNSt3__23getB7v160000ILm0EJPKcjEEERNS_13tuple_elementIXT_ENS_5tupleIJDpT0_EEEE4typeERS7_ = comdat any

$_ZNSt3__23getB7v160000ILm1EJPKcjEEERNS_13tuple_elementIXT_ENS_5tupleIJDpT0_EEEE4typeERS7_ = comdat any

$_ZNSt3__29tuple_catB7v160000IRNS_5tupleIJEEEJNS1_IJN15driver_internal8KeyValueIPKcjEEEEEEEENS_18__tuple_cat_returnIJT_DpT0_EE4typeEOSB_DpOSC_ = comdat any

$_ZNSt3__210make_tupleB7v160000IJN15driver_internal8KeyValueIPKcjEEEEENS_5tupleIJDpNS_18__unwrap_ref_decayIT_E4typeEEEEDpOS8_ = comdat any

$_ZN15driver_internal16KeyValueInternalIPKcjEENS_8KeyValueIT_T0_EES4_S5_ = comdat any

$_ZNSt3__212__tuple_leafILm1EjLb0EE3getB7v160000Ev = comdat any

$_ZNSt3__211__tuple_catINS_5tupleIJEEENS_15__tuple_indicesIJEEES4_EclB7v160000IRS2_NS1_IJN15driver_internal8KeyValueIPKcjEEEEEJEEENS_22__tuple_cat_return_refIOS2_JOT_OT0_DpOT1_EE4typeES2_SH_SJ_SM_ = comdat any

$_ZNSt3__25tupleIJN15driver_internal8KeyValueIPKcjEEEEC2B7v160000IJOS5_ELi0EEEONS0_IJDpT_EEE = comdat any

$_ZNSt3__211__tuple_catINS_5tupleIJEEENS_15__tuple_indicesIJEEENS3_IJLm0EEEEEclB7v160000INS1_IJN15driver_internal8KeyValueIPKcjEEEEEEENS_22__tuple_cat_return_refIOS2_JOT_EE4typeES2_SH_ = comdat any

$_ZNSt3__216forward_as_tupleB7v160000IJN15driver_internal8KeyValueIPKcjEEEEENS_5tupleIJDpOT_EEES9_ = comdat any

$_ZNSt3__23getB7v160000ILm0EJN15driver_internal8KeyValueIPKcjEEEEEONS_13tuple_elementIXT_ENS_5tupleIJDpT0_EEEE4typeEOSA_ = comdat any

$_ZNSt3__25tupleIJON15driver_internal8KeyValueIPKcjEEEEC2B7v160000IJS5_ELi0EEEDpOT_ = comdat any

$_ZNSt3__212__tuple_implINS_15__tuple_indicesIJLm0EEEEJON15driver_internal8KeyValueIPKcjEEEEC2B7v160000IJLm0EEJS8_EJEJEJS7_EEENS1_IJXspT_EEEENS_13__tuple_typesIJDpT0_EEENS1_IJXspT1_EEEENSC_IJDpT2_EEEDpOT3_ = comdat any

$_ZNSt3__212__tuple_leafILm0EON15driver_internal8KeyValueIPKcjEELb0EEC2B7v160000IS5_vEEOT_ = comdat any

$_ZNSt3__212__tuple_leafILm0EN15driver_internal8KeyValueIPKcjEELb0EE3getB7v160000Ev = comdat any

$_ZNSt3__212__tuple_implINS_15__tuple_indicesIJLm0EEEEJN15driver_internal8KeyValueIPKcjEEEEC2B7v160000INS_5tupleIJOS7_EEEvEEOT_ = comdat any

$_ZNSt3__23getB7v160000ILm0EJON15driver_internal8KeyValueIPKcjEEEEERNS_13tuple_elementIXT_ENS_5tupleIJDpT0_EEEE4typeERSB_ = comdat any

$_ZNSt3__212__tuple_leafILm0EN15driver_internal8KeyValueIPKcjEELb0EEC2B7v160000IS5_vEEOT_ = comdat any

$_ZNSt3__212__tuple_leafILm0EON15driver_internal8KeyValueIPKcjEELb0EE3getB7v160000Ev = comdat any

$_ZNSt3__25tupleIJN15driver_internal8KeyValueIPKcjEEEEC2B7v160000IJS5_ELi0EEEDpOT_ = comdat any

$_ZNSt3__212__tuple_implINS_15__tuple_indicesIJLm0EEEEJN15driver_internal8KeyValueIPKcjEEEEC2B7v160000IJLm0EEJS7_EJEJEJS7_EEENS1_IJXspT_EEEENS_13__tuple_typesIJDpT0_EEENS1_IJXspT1_EEEENSB_IJDpT2_EEEDpOT3_ = comdat any

$_ZN15driver_internal8KeyValueIPKcjEC2ES2_j = comdat any

$_ZN15driver_internal6TupletIJNS_8KeyValueIPKcjEEEEC2ENSt3__25tupleIJS4_EEEm = comdat any

$_ZNSt3__25tupleIJPKcjEEC2B7v160000IJRS2_RjELi0EEEDpOT_ = comdat any

$_ZNSt3__212__tuple_implINS_15__tuple_indicesIJLm0ELm1EEEEJPKcjEEC2B7v160000IJLm0ELm1EEJS4_jEJEJEJRS4_RjEEENS1_IJXspT_EEEENS_13__tuple_typesIJDpT0_EEENS1_IJXspT1_EEEENSA_IJDpT2_EEEDpOT3_ = comdat any

$_ZNSt3__212__tuple_leafILm1EjLb0EEC2B7v160000IRjvEEOT_ = comdat any

$_ZN15driver_internal12EncoderState6EncodeILm0ELm1EJNS_8KeyValueIPKcjEEELi0EEEvNS_6TupletIJDpT1_EEE = comdat any

$_ZNSt3__23getB7v160000ILm0EJN15driver_internal8KeyValueIPKcjEEEEERNS_13tuple_elementIXT_ENS_5tupleIJDpT0_EEEE4typeERSA_ = comdat any

$_ZN15driver_internal12EncoderState6EncodeENS_8KeyValueIPKcjEE = comdat any

$_ZN15driver_internal12EncoderState6EncodeILm1ELm1EJNS_8KeyValueIPKcjEEELi0EEEvNS_6TupletIJDpT1_EEE = comdat any

$_ZN15driver_internal12EncoderState6EncodeENS_8KeyValueIPKcmEE = comdat any

$_ZN15driver_internal8KeyValueIPKcmEC2ES2_m = comdat any

$_ZN14fuchsia_syslog9LogBuffer13WriteKeyValueENSt3__217basic_string_viewIcNS1_11char_traitsIcEEEEm = comdat any

$_ZN20fuchsia_hardware_pci7Command5kIoEnE = comdat any

$_ZN20fuchsia_hardware_pci7Command6kMemEnE = comdat any

$_ZN20fuchsia_hardware_pci7Command12kBusMasterEnE = comdat any

$_ZN20fuchsia_hardware_pci7Command10kSpecialEnE = comdat any

$_ZN20fuchsia_hardware_pci7Command11kMemWrInvEnE = comdat any

$_ZN20fuchsia_hardware_pci7Command11kPalSnoopEnE = comdat any

$_ZN20fuchsia_hardware_pci7Command11kPerrRespEnE = comdat any

$_ZN20fuchsia_hardware_pci7Command9kAdStepEnE = comdat any

$_ZN20fuchsia_hardware_pci7Command7kSerrEnE = comdat any

$_ZN20fuchsia_hardware_pci7Command10kFastB2BEnE = comdat any

$_ZN20fuchsia_hardware_pci7Command5kMaskE = comdat any

$_ZN20fuchsia_hardware_pci6Status10kInterruptE = comdat any

$_ZN20fuchsia_hardware_pci6Status8kNewCapsE = comdat any

$_ZN20fuchsia_hardware_pci6Status12kSixtysixMhzE = comdat any

$_ZN20fuchsia_hardware_pci6Status8kFastB2BE = comdat any

$_ZN20fuchsia_hardware_pci6Status9kMstrPerrE = comdat any

$_ZN20fuchsia_hardware_pci6Status10kDevselLowE = comdat any

$_ZN20fuchsia_hardware_pci6Status11kDevselHighE = comdat any

$_ZN20fuchsia_hardware_pci6Status13kTargAbortSigE = comdat any

$_ZN20fuchsia_hardware_pci6Status13kTargAbortRcvE = comdat any

$_ZN20fuchsia_hardware_pci6Status13kMstrAbortRcvE = comdat any

$_ZN20fuchsia_hardware_pci6Status8kSerrSigE = comdat any

$_ZN20fuchsia_hardware_pci6Status5kPerrE = comdat any

$_ZN20fuchsia_hardware_pci6Status5kMaskE = comdat any

$_ZN20fuchsia_hardware_pci6Config9kVendorIdE = comdat any

$_ZN20fuchsia_hardware_pci6Config9kDeviceIdE = comdat any

$_ZN20fuchsia_hardware_pci6Config8kCommandE = comdat any

$_ZN20fuchsia_hardware_pci6Config7kStatusE = comdat any

$_ZN20fuchsia_hardware_pci6Config11kRevisionIdE = comdat any

$_ZN20fuchsia_hardware_pci6Config14kClassCodeIntrE = comdat any

$_ZN20fuchsia_hardware_pci6Config13kClassCodeSubE = comdat any

$_ZN20fuchsia_hardware_pci6Config14kClassCodeBaseE = comdat any

$_ZN20fuchsia_hardware_pci6Config14kCacheLineSizeE = comdat any

$_ZN20fuchsia_hardware_pci6Config13kLatencyTimerE = comdat any

$_ZN20fuchsia_hardware_pci6Config11kHeaderTypeE = comdat any

$_ZN20fuchsia_hardware_pci6Config5kBistE = comdat any

$_ZN20fuchsia_hardware_pci6Config14kBaseAddressesE = comdat any

$_ZN20fuchsia_hardware_pci6Config14kCardbusCisPtrE = comdat any

$_ZN20fuchsia_hardware_pci6Config18kSubsystemVendorIdE = comdat any

$_ZN20fuchsia_hardware_pci6Config12kSubsystemIdE = comdat any

$_ZN20fuchsia_hardware_pci6Config14kExpRomAddressE = comdat any

$_ZN20fuchsia_hardware_pci6Config16kCapabilitiesPtrE = comdat any

$_ZN20fuchsia_hardware_pci6Config14kInterruptLineE = comdat any

$_ZN20fuchsia_hardware_pci6Config13kInterruptPinE = comdat any

$_ZN20fuchsia_hardware_pci6Config9kMinGrantE = comdat any

$_ZN20fuchsia_hardware_pci6Config11kMaxLatencyE = comdat any

$_ZN20fuchsia_hardware_pci10HeaderType9kStandardE = comdat any

$_ZN20fuchsia_hardware_pci10HeaderType7kBridgeE = comdat any

$_ZN20fuchsia_hardware_pci10HeaderType8kCardBusE = comdat any

$_ZN20fuchsia_hardware_pci10HeaderType5kMaskE = comdat any

$_ZN20fuchsia_hardware_pci10HeaderType8kMultiFnE = comdat any

$_ZN20fuchsia_hardware_pci12CapabilityId5kNullE = comdat any

$_ZN20fuchsia_hardware_pci12CapabilityId11kPciPwrMgmtE = comdat any

$_ZN20fuchsia_hardware_pci12CapabilityId4kAgpE = comdat any

$_ZN20fuchsia_hardware_pci12CapabilityId17kVitalProductDataE = comdat any

$_ZN20fuchsia_hardware_pci12CapabilityId19kSlotIdentificationE = comdat any

$_ZN20fuchsia_hardware_pci12CapabilityId4kMsiE = comdat any

$_ZN20fuchsia_hardware_pci12CapabilityId18kCompactPciHotswapE = comdat any

$_ZN20fuchsia_hardware_pci12CapabilityId5kPcixE = comdat any

$_ZN20fuchsia_hardware_pci12CapabilityId15kHypertransportE = comdat any

$_ZN20fuchsia_hardware_pci12CapabilityId7kVendorE = comdat any

$_ZN20fuchsia_hardware_pci12CapabilityId10kDebugPortE = comdat any

$_ZN20fuchsia_hardware_pci12CapabilityId14kCompactPciCrcE = comdat any

$_ZN20fuchsia_hardware_pci12CapabilityId11kPciHotPlugE = comdat any

$_ZN20fuchsia_hardware_pci12CapabilityId22kPciBridgeSubsystemVidE = comdat any

$_ZN20fuchsia_hardware_pci12CapabilityId6kAgp8XE = comdat any

$_ZN20fuchsia_hardware_pci12CapabilityId13kSecureDeviceE = comdat any

$_ZN20fuchsia_hardware_pci12CapabilityId11kPciExpressE = comdat any

$_ZN20fuchsia_hardware_pci12CapabilityId5kMsixE = comdat any

$_ZN20fuchsia_hardware_pci12CapabilityId15kSataDataNdxCfgE = comdat any

$_ZN20fuchsia_hardware_pci12CapabilityId17kAdvancedFeaturesE = comdat any

$_ZN20fuchsia_hardware_pci12CapabilityId19kEnhancedAllocationE = comdat any

$_ZN20fuchsia_hardware_pci12CapabilityId23kFlatteningPortalBridgeE = comdat any

$_ZN20fuchsia_hardware_pci20ExtendedCapabilityId5kNullE = comdat any

$_ZN20fuchsia_hardware_pci20ExtendedCapabilityId23kAdvancedErrorReportingE = comdat any

$_ZN20fuchsia_hardware_pci20ExtendedCapabilityId21kVirtualChannelNoMfvcE = comdat any

$_ZN20fuchsia_hardware_pci20ExtendedCapabilityId19kDeviceSerialNumberE = comdat any

$_ZN20fuchsia_hardware_pci20ExtendedCapabilityId15kPowerBudgetingE = comdat any

$_ZN20fuchsia_hardware_pci20ExtendedCapabilityId27kRootComplexLinkDeclarationE = comdat any

$_ZN20fuchsia_hardware_pci20ExtendedCapabilityId31kRootComplexInternalLinkControlE = comdat any

$_ZN20fuchsia_hardware_pci20ExtendedCapabilityId45kRootComplexEventCollectorEndpointAssociationE = comdat any

$_ZN20fuchsia_hardware_pci20ExtendedCapabilityId28kMultiFunctionVirtualChannelE = comdat any

$_ZN20fuchsia_hardware_pci20ExtendedCapabilityId15kVirtualChannelE = comdat any

$_ZN20fuchsia_hardware_pci20ExtendedCapabilityId5kRcrbE = comdat any

$_ZN20fuchsia_hardware_pci20ExtendedCapabilityId7kVendorE = comdat any

$_ZN20fuchsia_hardware_pci20ExtendedCapabilityId4kCacE = comdat any

$_ZN20fuchsia_hardware_pci20ExtendedCapabilityId4kAcsE = comdat any

$_ZN20fuchsia_hardware_pci20ExtendedCapabilityId4kAriE = comdat any

$_ZN20fuchsia_hardware_pci20ExtendedCapabilityId4kAtsE = comdat any

$_ZN20fuchsia_hardware_pci20ExtendedCapabilityId6kSrIovE = comdat any

$_ZN20fuchsia_hardware_pci20ExtendedCapabilityId6kMrIovE = comdat any

$_ZN20fuchsia_hardware_pci20ExtendedCapabilityId10kMulticastE = comdat any

$_ZN20fuchsia_hardware_pci20ExtendedCapabilityId4kPriE = comdat any

$_ZN20fuchsia_hardware_pci20ExtendedCapabilityId19kEnhancedAllocationE = comdat any

$_ZN20fuchsia_hardware_pci20ExtendedCapabilityId13kResizableBarE = comdat any

$_ZN20fuchsia_hardware_pci20ExtendedCapabilityId23kDynamicPowerAllocationE = comdat any

$_ZN20fuchsia_hardware_pci20ExtendedCapabilityId4kTphE = comdat any

$_ZN20fuchsia_hardware_pci20ExtendedCapabilityId26kLatencyToleranceReportingE = comdat any

$_ZN20fuchsia_hardware_pci20ExtendedCapabilityId20kSecondaryPciExpressE = comdat any

$_ZN20fuchsia_hardware_pci20ExtendedCapabilityId5kPmuxE = comdat any

$_ZN20fuchsia_hardware_pci20ExtendedCapabilityId6kPasidE = comdat any

$_ZN20fuchsia_hardware_pci20ExtendedCapabilityId4kLnrE = comdat any

$_ZN20fuchsia_hardware_pci20ExtendedCapabilityId4kDpcE = comdat any

$_ZN20fuchsia_hardware_pci20ExtendedCapabilityId14kL1PmSubstatesE = comdat any

$_ZN20fuchsia_hardware_pci20ExtendedCapabilityId25kPrecisionTimeMeasurementE = comdat any

$_ZN20fuchsia_hardware_pci20ExtendedCapabilityId6kMpcieE = comdat any

$_ZN20fuchsia_hardware_pci20ExtendedCapabilityId12kFrsQueueingE = comdat any

$_ZN20fuchsia_hardware_pci20ExtendedCapabilityId23kReadinessTimeReportingE = comdat any

$_ZN20fuchsia_hardware_pci20ExtendedCapabilityId17kDesignatedVendorE = comdat any

$_ZN20fuchsia_hardware_pci20ExtendedCapabilityId15kVfResizableBarE = comdat any

$_ZN20fuchsia_hardware_pci20ExtendedCapabilityId16kDataLinkFeatureE = comdat any

$_ZN20fuchsia_hardware_pci20ExtendedCapabilityId16kPhysicalLayer16E = comdat any

$_ZN20fuchsia_hardware_pci20ExtendedCapabilityId24kLaneMarginingAtReceiverE = comdat any

$_ZN20fuchsia_hardware_pci20ExtendedCapabilityId12kHierarchyIdE = comdat any

$_ZN20fuchsia_hardware_pci20ExtendedCapabilityId20kNativePcieEnclosureE = comdat any

$_ZN20fuchsia_hardware_pci20ExtendedCapabilityId16kPhysicalLayer32E = comdat any

$_ZN20fuchsia_hardware_pci20ExtendedCapabilityId18kAlternateProtocolE = comdat any

$_ZN20fuchsia_hardware_pci20ExtendedCapabilityId27kSystemFirmwareIntermediaryE = comdat any

$_ZN20fuchsia_hardware_pci13InterruptMode9kDisabledE = comdat any

$_ZN20fuchsia_hardware_pci13InterruptMode7kLegacyE = comdat any

$_ZN20fuchsia_hardware_pci13InterruptMode12kLegacyNoackE = comdat any

$_ZN20fuchsia_hardware_pci13InterruptMode4kMsiE = comdat any

$_ZN20fuchsia_hardware_pci13InterruptMode5kMsiXE = comdat any

$_ZN10fuchsia_io9OpenFlags14kRightReadableE = comdat any

$_ZN10fuchsia_io9OpenFlags14kRightWritableE = comdat any

$_ZN10fuchsia_io9OpenFlags16kRightExecutableE = comdat any

$_ZN10fuchsia_io9OpenFlags7kCreateE = comdat any

$_ZN10fuchsia_io9OpenFlags15kCreateIfAbsentE = comdat any

$_ZN10fuchsia_io9OpenFlags9kTruncateE = comdat any

$_ZN10fuchsia_io9OpenFlags10kDirectoryE = comdat any

$_ZN10fuchsia_io9OpenFlags7kAppendE = comdat any

$_ZN10fuchsia_io9OpenFlags14kNodeReferenceE = comdat any

$_ZN10fuchsia_io9OpenFlags9kDescribeE = comdat any

$_ZN10fuchsia_io9OpenFlags14kPosixWritableE = comdat any

$_ZN10fuchsia_io9OpenFlags16kPosixExecutableE = comdat any

$_ZN10fuchsia_io9OpenFlags13kNotDirectoryE = comdat any

$_ZN10fuchsia_io9OpenFlags16kCloneSameRightsE = comdat any

$_ZN10fuchsia_io9OpenFlags5kMaskE = comdat any

$_ZN10fuchsia_io9WatchMask8kDeletedE = comdat any

$_ZN10fuchsia_io9WatchMask6kAddedE = comdat any

$_ZN10fuchsia_io9WatchMask8kRemovedE = comdat any

$_ZN10fuchsia_io9WatchMask9kExistingE = comdat any

$_ZN10fuchsia_io9WatchMask5kIdleE = comdat any

$_ZN10fuchsia_io9WatchMask5kMaskE = comdat any

$_ZN10fuchsia_io14ConnectorFlags5kMaskE = comdat any

$_ZN10fuchsia_io9NodeFlags18kGetRepresentationE = comdat any

$_ZN10fuchsia_io9NodeFlags5kMaskE = comdat any

$_ZN10fuchsia_io17FileProtocolFlags7kAppendE = comdat any

$_ZN10fuchsia_io17FileProtocolFlags9kTruncateE = comdat any

$_ZN10fuchsia_io17FileProtocolFlags5kMaskE = comdat any

$_ZN10fuchsia_io11UnlinkFlags16kMustBeDirectoryE = comdat any

$_ZN10fuchsia_io11UnlinkFlags5kMaskE = comdat any

$_ZN10fuchsia_io8VmoFlags5kReadE = comdat any

$_ZN10fuchsia_io8VmoFlags6kWriteE = comdat any

$_ZN10fuchsia_io8VmoFlags8kExecuteE = comdat any

$_ZN10fuchsia_io8VmoFlags13kPrivateCloneE = comdat any

$_ZN10fuchsia_io8VmoFlags13kSharedBufferE = comdat any

$_ZN10fuchsia_io8VmoFlags5kMaskE = comdat any

$_ZN10fuchsia_io10FileSignal9kReadableE = comdat any

$_ZN10fuchsia_io10FileSignal9kWritableE = comdat any

$_ZN10fuchsia_io10FileSignal5kMaskE = comdat any

$_ZN10fuchsia_io16InotifyWatchMask7kAccessE = comdat any

$_ZN10fuchsia_io16InotifyWatchMask7kModifyE = comdat any

$_ZN10fuchsia_io16InotifyWatchMask7kAttribE = comdat any

$_ZN10fuchsia_io16InotifyWatchMask11kCloseWriteE = comdat any

$_ZN10fuchsia_io16InotifyWatchMask13kCloseNowriteE = comdat any

$_ZN10fuchsia_io16InotifyWatchMask5kOpenE = comdat any

$_ZN10fuchsia_io16InotifyWatchMask10kMovedFromE = comdat any

$_ZN10fuchsia_io16InotifyWatchMask8kMovedToE = comdat any

$_ZN10fuchsia_io16InotifyWatchMask7kCreateE = comdat any

$_ZN10fuchsia_io16InotifyWatchMask7kDeleteE = comdat any

$_ZN10fuchsia_io16InotifyWatchMask11kDeleteSelfE = comdat any

$_ZN10fuchsia_io16InotifyWatchMask9kMoveSelfE = comdat any

$_ZN10fuchsia_io16InotifyWatchMask8kUnmountE = comdat any

$_ZN10fuchsia_io16InotifyWatchMask10kQOverflowE = comdat any

$_ZN10fuchsia_io16InotifyWatchMask8kIgnoredE = comdat any

$_ZN10fuchsia_io16InotifyWatchMask8kOnlydirE = comdat any

$_ZN10fuchsia_io16InotifyWatchMask11kDontFollowE = comdat any

$_ZN10fuchsia_io16InotifyWatchMask11kExclUnlinkE = comdat any

$_ZN10fuchsia_io16InotifyWatchMask11kMaskCreateE = comdat any

$_ZN10fuchsia_io16InotifyWatchMask8kMaskAddE = comdat any

$_ZN10fuchsia_io16InotifyWatchMask12kIsdirectoryE = comdat any

$_ZN10fuchsia_io16InotifyWatchMask8kOneshotE = comdat any

$_ZN10fuchsia_io16InotifyWatchMask5kMaskE = comdat any

$_ZN10fuchsia_io17NodeProtocolKinds10kConnectorE = comdat any

$_ZN10fuchsia_io17NodeProtocolKinds10kDirectoryE = comdat any

$_ZN10fuchsia_io17NodeProtocolKinds5kFileE = comdat any

$_ZN10fuchsia_io17NodeProtocolKinds5kMaskE = comdat any

$_ZN10fuchsia_io18NodeAttributeFlags13kCreationTimeE = comdat any

$_ZN10fuchsia_io18NodeAttributeFlags17kModificationTimeE = comdat any

$_ZN10fuchsia_io18NodeAttributeFlags5kMaskE = comdat any

$_ZN10fuchsia_io19NodeAttributesQuery10kProtocolsE = comdat any

$_ZN10fuchsia_io19NodeAttributesQuery10kAbilitiesE = comdat any

$_ZN10fuchsia_io19NodeAttributesQuery12kContentSizeE = comdat any

$_ZN10fuchsia_io19NodeAttributesQuery12kStorageSizeE = comdat any

$_ZN10fuchsia_io19NodeAttributesQuery10kLinkCountE = comdat any

$_ZN10fuchsia_io19NodeAttributesQuery3kIdE = comdat any

$_ZN10fuchsia_io19NodeAttributesQuery13kCreationTimeE = comdat any

$_ZN10fuchsia_io19NodeAttributesQuery17kModificationTimeE = comdat any

$_ZN10fuchsia_io19NodeAttributesQuery5kMaskE = comdat any

$_ZN10fuchsia_io10Operations8kConnectE = comdat any

$_ZN10fuchsia_io10Operations10kReadBytesE = comdat any

$_ZN10fuchsia_io10Operations11kWriteBytesE = comdat any

$_ZN10fuchsia_io10Operations8kExecuteE = comdat any

$_ZN10fuchsia_io10Operations14kGetAttributesE = comdat any

$_ZN10fuchsia_io10Operations17kUpdateAttributesE = comdat any

$_ZN10fuchsia_io10Operations10kEnumerateE = comdat any

$_ZN10fuchsia_io10Operations9kTraverseE = comdat any

$_ZN10fuchsia_io10Operations16kModifyDirectoryE = comdat any

$_ZN10fuchsia_io10Operations5kMaskE = comdat any

$_ZN10fuchsia_io34UdpMetadataEncodingProtocolVersion5kZeroE = comdat any

$_ZN22fuchsia_component_decl16ConfigTypeLayout5kBoolE = comdat any

$_ZN22fuchsia_component_decl16ConfigTypeLayout6kUint8E = comdat any

$_ZN22fuchsia_component_decl16ConfigTypeLayout7kUint16E = comdat any

$_ZN22fuchsia_component_decl16ConfigTypeLayout7kUint32E = comdat any

$_ZN22fuchsia_component_decl16ConfigTypeLayout7kUint64E = comdat any

$_ZN22fuchsia_component_decl16ConfigTypeLayout5kInt8E = comdat any

$_ZN22fuchsia_component_decl16ConfigTypeLayout6kInt16E = comdat any

$_ZN22fuchsia_component_decl16ConfigTypeLayout6kInt32E = comdat any

$_ZN22fuchsia_component_decl16ConfigTypeLayout6kInt64E = comdat any

$_ZN22fuchsia_component_decl16ConfigTypeLayout7kStringE = comdat any

$_ZN22fuchsia_component_decl16ConfigTypeLayout7kVectorE = comdat any

$_ZNSt3__27nulloptE = comdat any

$_ZTVN3fdf10MmioBufferE = comdat any

$_ZTSN3fdf10MmioBufferE = comdat any

$_ZTIN3fdf10MmioBufferE = comdat any

$_ZTIN3fdf10MmioBufferE.rtti_proxy = comdat any

$_ZNSt3__28in_placeE = comdat any

$_ZN3fit8internal11null_targetIvE3opsE = comdat any

@_ZN20fuchsia_hardware_pci7Command5kIoEnE = weak_odr constant %"class.fuchsia_hardware_pci::Command" { i16 1 }, comdat, align 2, !dbg !0
@_ZN20fuchsia_hardware_pci7Command6kMemEnE = weak_odr constant %"class.fuchsia_hardware_pci::Command" { i16 2 }, comdat, align 2, !dbg !220
@_ZN20fuchsia_hardware_pci7Command12kBusMasterEnE = weak_odr constant %"class.fuchsia_hardware_pci::Command" { i16 4 }, comdat, align 2, !dbg !222
@_ZN20fuchsia_hardware_pci7Command10kSpecialEnE = weak_odr constant %"class.fuchsia_hardware_pci::Command" { i16 8 }, comdat, align 2, !dbg !224
@_ZN20fuchsia_hardware_pci7Command11kMemWrInvEnE = weak_odr constant %"class.fuchsia_hardware_pci::Command" { i16 16 }, comdat, align 2, !dbg !226
@_ZN20fuchsia_hardware_pci7Command11kPalSnoopEnE = weak_odr constant %"class.fuchsia_hardware_pci::Command" { i16 32 }, comdat, align 2, !dbg !228
@_ZN20fuchsia_hardware_pci7Command11kPerrRespEnE = weak_odr constant %"class.fuchsia_hardware_pci::Command" { i16 64 }, comdat, align 2, !dbg !230
@_ZN20fuchsia_hardware_pci7Command9kAdStepEnE = weak_odr constant %"class.fuchsia_hardware_pci::Command" { i16 128 }, comdat, align 2, !dbg !232
@_ZN20fuchsia_hardware_pci7Command7kSerrEnE = weak_odr constant %"class.fuchsia_hardware_pci::Command" { i16 256 }, comdat, align 2, !dbg !234
@_ZN20fuchsia_hardware_pci7Command10kFastB2BEnE = weak_odr constant %"class.fuchsia_hardware_pci::Command" { i16 512 }, comdat, align 2, !dbg !236
@_ZN20fuchsia_hardware_pci7Command5kMaskE = weak_odr constant %"class.fuchsia_hardware_pci::Command" { i16 1023 }, comdat, align 2, !dbg !238
@_ZN20fuchsia_hardware_pci6Status10kInterruptE = weak_odr constant %"class.fuchsia_hardware_pci::Status" { i16 8 }, comdat, align 2, !dbg !240
@_ZN20fuchsia_hardware_pci6Status8kNewCapsE = weak_odr constant %"class.fuchsia_hardware_pci::Status" { i16 16 }, comdat, align 2, !dbg !430
@_ZN20fuchsia_hardware_pci6Status12kSixtysixMhzE = weak_odr constant %"class.fuchsia_hardware_pci::Status" { i16 32 }, comdat, align 2, !dbg !432
@_ZN20fuchsia_hardware_pci6Status8kFastB2BE = weak_odr constant %"class.fuchsia_hardware_pci::Status" { i16 128 }, comdat, align 2, !dbg !434
@_ZN20fuchsia_hardware_pci6Status9kMstrPerrE = weak_odr constant %"class.fuchsia_hardware_pci::Status" { i16 256 }, comdat, align 2, !dbg !436
@_ZN20fuchsia_hardware_pci6Status10kDevselLowE = weak_odr constant %"class.fuchsia_hardware_pci::Status" { i16 512 }, comdat, align 2, !dbg !438
@_ZN20fuchsia_hardware_pci6Status11kDevselHighE = weak_odr constant %"class.fuchsia_hardware_pci::Status" { i16 1024 }, comdat, align 2, !dbg !440
@_ZN20fuchsia_hardware_pci6Status13kTargAbortSigE = weak_odr constant %"class.fuchsia_hardware_pci::Status" { i16 2048 }, comdat, align 2, !dbg !442
@_ZN20fuchsia_hardware_pci6Status13kTargAbortRcvE = weak_odr constant %"class.fuchsia_hardware_pci::Status" { i16 4096 }, comdat, align 2, !dbg !444
@_ZN20fuchsia_hardware_pci6Status13kMstrAbortRcvE = weak_odr constant %"class.fuchsia_hardware_pci::Status" { i16 8192 }, comdat, align 2, !dbg !446
@_ZN20fuchsia_hardware_pci6Status8kSerrSigE = weak_odr constant %"class.fuchsia_hardware_pci::Status" { i16 16384 }, comdat, align 2, !dbg !448
@_ZN20fuchsia_hardware_pci6Status5kPerrE = weak_odr constant %"class.fuchsia_hardware_pci::Status" { i16 -32768 }, comdat, align 2, !dbg !450
@_ZN20fuchsia_hardware_pci6Status5kMaskE = weak_odr constant %"class.fuchsia_hardware_pci::Status" { i16 -72 }, comdat, align 2, !dbg !452
@_ZN20fuchsia_hardware_pci6Config9kVendorIdE = weak_odr constant %"class.fuchsia_hardware_pci::Config" zeroinitializer, comdat, align 2, !dbg !454
@_ZN20fuchsia_hardware_pci6Config9kDeviceIdE = weak_odr constant %"class.fuchsia_hardware_pci::Config" { i16 2 }, comdat, align 2, !dbg !530
@_ZN20fuchsia_hardware_pci6Config8kCommandE = weak_odr constant %"class.fuchsia_hardware_pci::Config" { i16 4 }, comdat, align 2, !dbg !532
@_ZN20fuchsia_hardware_pci6Config7kStatusE = weak_odr constant %"class.fuchsia_hardware_pci::Config" { i16 6 }, comdat, align 2, !dbg !534
@_ZN20fuchsia_hardware_pci6Config11kRevisionIdE = weak_odr constant %"class.fuchsia_hardware_pci::Config" { i16 8 }, comdat, align 2, !dbg !536
@_ZN20fuchsia_hardware_pci6Config14kClassCodeIntrE = weak_odr constant %"class.fuchsia_hardware_pci::Config" { i16 9 }, comdat, align 2, !dbg !538
@_ZN20fuchsia_hardware_pci6Config13kClassCodeSubE = weak_odr constant %"class.fuchsia_hardware_pci::Config" { i16 10 }, comdat, align 2, !dbg !540
@_ZN20fuchsia_hardware_pci6Config14kClassCodeBaseE = weak_odr constant %"class.fuchsia_hardware_pci::Config" { i16 11 }, comdat, align 2, !dbg !542
@_ZN20fuchsia_hardware_pci6Config14kCacheLineSizeE = weak_odr constant %"class.fuchsia_hardware_pci::Config" { i16 12 }, comdat, align 2, !dbg !544
@_ZN20fuchsia_hardware_pci6Config13kLatencyTimerE = weak_odr constant %"class.fuchsia_hardware_pci::Config" { i16 13 }, comdat, align 2, !dbg !546
@_ZN20fuchsia_hardware_pci6Config11kHeaderTypeE = weak_odr constant %"class.fuchsia_hardware_pci::Config" { i16 14 }, comdat, align 2, !dbg !548
@_ZN20fuchsia_hardware_pci6Config5kBistE = weak_odr constant %"class.fuchsia_hardware_pci::Config" { i16 15 }, comdat, align 2, !dbg !550
@_ZN20fuchsia_hardware_pci6Config14kBaseAddressesE = weak_odr constant %"class.fuchsia_hardware_pci::Config" { i16 16 }, comdat, align 2, !dbg !552
@_ZN20fuchsia_hardware_pci6Config14kCardbusCisPtrE = weak_odr constant %"class.fuchsia_hardware_pci::Config" { i16 40 }, comdat, align 2, !dbg !554
@_ZN20fuchsia_hardware_pci6Config18kSubsystemVendorIdE = weak_odr constant %"class.fuchsia_hardware_pci::Config" { i16 44 }, comdat, align 2, !dbg !556
@_ZN20fuchsia_hardware_pci6Config12kSubsystemIdE = weak_odr constant %"class.fuchsia_hardware_pci::Config" { i16 46 }, comdat, align 2, !dbg !558
@_ZN20fuchsia_hardware_pci6Config14kExpRomAddressE = weak_odr constant %"class.fuchsia_hardware_pci::Config" { i16 48 }, comdat, align 2, !dbg !560
@_ZN20fuchsia_hardware_pci6Config16kCapabilitiesPtrE = weak_odr constant %"class.fuchsia_hardware_pci::Config" { i16 52 }, comdat, align 2, !dbg !562
@_ZN20fuchsia_hardware_pci6Config14kInterruptLineE = weak_odr constant %"class.fuchsia_hardware_pci::Config" { i16 60 }, comdat, align 2, !dbg !564
@_ZN20fuchsia_hardware_pci6Config13kInterruptPinE = weak_odr constant %"class.fuchsia_hardware_pci::Config" { i16 61 }, comdat, align 2, !dbg !566
@_ZN20fuchsia_hardware_pci6Config9kMinGrantE = weak_odr constant %"class.fuchsia_hardware_pci::Config" { i16 62 }, comdat, align 2, !dbg !568
@_ZN20fuchsia_hardware_pci6Config11kMaxLatencyE = weak_odr constant %"class.fuchsia_hardware_pci::Config" { i16 63 }, comdat, align 2, !dbg !570
@_ZN20fuchsia_hardware_pci10HeaderType9kStandardE = weak_odr constant %"class.fuchsia_hardware_pci::HeaderType" zeroinitializer, comdat, align 1, !dbg !572
@_ZN20fuchsia_hardware_pci10HeaderType7kBridgeE = weak_odr constant %"class.fuchsia_hardware_pci::HeaderType" { i8 1 }, comdat, align 1, !dbg !616
@_ZN20fuchsia_hardware_pci10HeaderType8kCardBusE = weak_odr constant %"class.fuchsia_hardware_pci::HeaderType" { i8 2 }, comdat, align 1, !dbg !618
@_ZN20fuchsia_hardware_pci10HeaderType5kMaskE = weak_odr constant %"class.fuchsia_hardware_pci::HeaderType" { i8 127 }, comdat, align 1, !dbg !620
@_ZN20fuchsia_hardware_pci10HeaderType8kMultiFnE = weak_odr constant %"class.fuchsia_hardware_pci::HeaderType" { i8 -128 }, comdat, align 1, !dbg !622
@_ZN20fuchsia_hardware_pci12CapabilityId5kNullE = weak_odr constant %"class.fuchsia_hardware_pci::CapabilityId" zeroinitializer, comdat, align 1, !dbg !624
@_ZN20fuchsia_hardware_pci12CapabilityId11kPciPwrMgmtE = weak_odr constant %"class.fuchsia_hardware_pci::CapabilityId" { i8 1 }, comdat, align 1, !dbg !699
@_ZN20fuchsia_hardware_pci12CapabilityId4kAgpE = weak_odr constant %"class.fuchsia_hardware_pci::CapabilityId" { i8 2 }, comdat, align 1, !dbg !701
@_ZN20fuchsia_hardware_pci12CapabilityId17kVitalProductDataE = weak_odr constant %"class.fuchsia_hardware_pci::CapabilityId" { i8 3 }, comdat, align 1, !dbg !703
@_ZN20fuchsia_hardware_pci12CapabilityId19kSlotIdentificationE = weak_odr constant %"class.fuchsia_hardware_pci::CapabilityId" { i8 4 }, comdat, align 1, !dbg !705
@_ZN20fuchsia_hardware_pci12CapabilityId4kMsiE = weak_odr constant %"class.fuchsia_hardware_pci::CapabilityId" { i8 5 }, comdat, align 1, !dbg !707
@_ZN20fuchsia_hardware_pci12CapabilityId18kCompactPciHotswapE = weak_odr constant %"class.fuchsia_hardware_pci::CapabilityId" { i8 6 }, comdat, align 1, !dbg !709
@_ZN20fuchsia_hardware_pci12CapabilityId5kPcixE = weak_odr constant %"class.fuchsia_hardware_pci::CapabilityId" { i8 7 }, comdat, align 1, !dbg !711
@_ZN20fuchsia_hardware_pci12CapabilityId15kHypertransportE = weak_odr constant %"class.fuchsia_hardware_pci::CapabilityId" { i8 8 }, comdat, align 1, !dbg !713
@_ZN20fuchsia_hardware_pci12CapabilityId7kVendorE = weak_odr constant %"class.fuchsia_hardware_pci::CapabilityId" { i8 9 }, comdat, align 1, !dbg !715
@_ZN20fuchsia_hardware_pci12CapabilityId10kDebugPortE = weak_odr constant %"class.fuchsia_hardware_pci::CapabilityId" { i8 10 }, comdat, align 1, !dbg !717
@_ZN20fuchsia_hardware_pci12CapabilityId14kCompactPciCrcE = weak_odr constant %"class.fuchsia_hardware_pci::CapabilityId" { i8 11 }, comdat, align 1, !dbg !719
@_ZN20fuchsia_hardware_pci12CapabilityId11kPciHotPlugE = weak_odr constant %"class.fuchsia_hardware_pci::CapabilityId" { i8 12 }, comdat, align 1, !dbg !721
@_ZN20fuchsia_hardware_pci12CapabilityId22kPciBridgeSubsystemVidE = weak_odr constant %"class.fuchsia_hardware_pci::CapabilityId" { i8 13 }, comdat, align 1, !dbg !723
@_ZN20fuchsia_hardware_pci12CapabilityId6kAgp8XE = weak_odr constant %"class.fuchsia_hardware_pci::CapabilityId" { i8 14 }, comdat, align 1, !dbg !725
@_ZN20fuchsia_hardware_pci12CapabilityId13kSecureDeviceE = weak_odr constant %"class.fuchsia_hardware_pci::CapabilityId" { i8 15 }, comdat, align 1, !dbg !727
@_ZN20fuchsia_hardware_pci12CapabilityId11kPciExpressE = weak_odr constant %"class.fuchsia_hardware_pci::CapabilityId" { i8 16 }, comdat, align 1, !dbg !729
@_ZN20fuchsia_hardware_pci12CapabilityId5kMsixE = weak_odr constant %"class.fuchsia_hardware_pci::CapabilityId" { i8 17 }, comdat, align 1, !dbg !731
@_ZN20fuchsia_hardware_pci12CapabilityId15kSataDataNdxCfgE = weak_odr constant %"class.fuchsia_hardware_pci::CapabilityId" { i8 18 }, comdat, align 1, !dbg !733
@_ZN20fuchsia_hardware_pci12CapabilityId17kAdvancedFeaturesE = weak_odr constant %"class.fuchsia_hardware_pci::CapabilityId" { i8 19 }, comdat, align 1, !dbg !735
@_ZN20fuchsia_hardware_pci12CapabilityId19kEnhancedAllocationE = weak_odr constant %"class.fuchsia_hardware_pci::CapabilityId" { i8 20 }, comdat, align 1, !dbg !737
@_ZN20fuchsia_hardware_pci12CapabilityId23kFlatteningPortalBridgeE = weak_odr constant %"class.fuchsia_hardware_pci::CapabilityId" { i8 21 }, comdat, align 1, !dbg !739
@_ZN20fuchsia_hardware_pci20ExtendedCapabilityId5kNullE = weak_odr constant %"class.fuchsia_hardware_pci::ExtendedCapabilityId" zeroinitializer, comdat, align 2, !dbg !741
@_ZN20fuchsia_hardware_pci20ExtendedCapabilityId23kAdvancedErrorReportingE = weak_odr constant %"class.fuchsia_hardware_pci::ExtendedCapabilityId" { i16 1 }, comdat, align 2, !dbg !862
@_ZN20fuchsia_hardware_pci20ExtendedCapabilityId21kVirtualChannelNoMfvcE = weak_odr constant %"class.fuchsia_hardware_pci::ExtendedCapabilityId" { i16 2 }, comdat, align 2, !dbg !864
@_ZN20fuchsia_hardware_pci20ExtendedCapabilityId19kDeviceSerialNumberE = weak_odr constant %"class.fuchsia_hardware_pci::ExtendedCapabilityId" { i16 3 }, comdat, align 2, !dbg !866
@_ZN20fuchsia_hardware_pci20ExtendedCapabilityId15kPowerBudgetingE = weak_odr constant %"class.fuchsia_hardware_pci::ExtendedCapabilityId" { i16 4 }, comdat, align 2, !dbg !868
@_ZN20fuchsia_hardware_pci20ExtendedCapabilityId27kRootComplexLinkDeclarationE = weak_odr constant %"class.fuchsia_hardware_pci::ExtendedCapabilityId" { i16 5 }, comdat, align 2, !dbg !870
@_ZN20fuchsia_hardware_pci20ExtendedCapabilityId31kRootComplexInternalLinkControlE = weak_odr constant %"class.fuchsia_hardware_pci::ExtendedCapabilityId" { i16 6 }, comdat, align 2, !dbg !872
@_ZN20fuchsia_hardware_pci20ExtendedCapabilityId45kRootComplexEventCollectorEndpointAssociationE = weak_odr constant %"class.fuchsia_hardware_pci::ExtendedCapabilityId" { i16 7 }, comdat, align 2, !dbg !874
@_ZN20fuchsia_hardware_pci20ExtendedCapabilityId28kMultiFunctionVirtualChannelE = weak_odr constant %"class.fuchsia_hardware_pci::ExtendedCapabilityId" { i16 8 }, comdat, align 2, !dbg !876
@_ZN20fuchsia_hardware_pci20ExtendedCapabilityId15kVirtualChannelE = weak_odr constant %"class.fuchsia_hardware_pci::ExtendedCapabilityId" { i16 9 }, comdat, align 2, !dbg !878
@_ZN20fuchsia_hardware_pci20ExtendedCapabilityId5kRcrbE = weak_odr constant %"class.fuchsia_hardware_pci::ExtendedCapabilityId" { i16 10 }, comdat, align 2, !dbg !880
@_ZN20fuchsia_hardware_pci20ExtendedCapabilityId7kVendorE = weak_odr constant %"class.fuchsia_hardware_pci::ExtendedCapabilityId" { i16 11 }, comdat, align 2, !dbg !882
@_ZN20fuchsia_hardware_pci20ExtendedCapabilityId4kCacE = weak_odr constant %"class.fuchsia_hardware_pci::ExtendedCapabilityId" { i16 12 }, comdat, align 2, !dbg !884
@_ZN20fuchsia_hardware_pci20ExtendedCapabilityId4kAcsE = weak_odr constant %"class.fuchsia_hardware_pci::ExtendedCapabilityId" { i16 13 }, comdat, align 2, !dbg !886
@_ZN20fuchsia_hardware_pci20ExtendedCapabilityId4kAriE = weak_odr constant %"class.fuchsia_hardware_pci::ExtendedCapabilityId" { i16 14 }, comdat, align 2, !dbg !888
@_ZN20fuchsia_hardware_pci20ExtendedCapabilityId4kAtsE = weak_odr constant %"class.fuchsia_hardware_pci::ExtendedCapabilityId" { i16 15 }, comdat, align 2, !dbg !890
@_ZN20fuchsia_hardware_pci20ExtendedCapabilityId6kSrIovE = weak_odr constant %"class.fuchsia_hardware_pci::ExtendedCapabilityId" { i16 16 }, comdat, align 2, !dbg !892
@_ZN20fuchsia_hardware_pci20ExtendedCapabilityId6kMrIovE = weak_odr constant %"class.fuchsia_hardware_pci::ExtendedCapabilityId" { i16 17 }, comdat, align 2, !dbg !894
@_ZN20fuchsia_hardware_pci20ExtendedCapabilityId10kMulticastE = weak_odr constant %"class.fuchsia_hardware_pci::ExtendedCapabilityId" { i16 18 }, comdat, align 2, !dbg !896
@_ZN20fuchsia_hardware_pci20ExtendedCapabilityId4kPriE = weak_odr constant %"class.fuchsia_hardware_pci::ExtendedCapabilityId" { i16 19 }, comdat, align 2, !dbg !898
@_ZN20fuchsia_hardware_pci20ExtendedCapabilityId19kEnhancedAllocationE = weak_odr constant %"class.fuchsia_hardware_pci::ExtendedCapabilityId" { i16 20 }, comdat, align 2, !dbg !900
@_ZN20fuchsia_hardware_pci20ExtendedCapabilityId13kResizableBarE = weak_odr constant %"class.fuchsia_hardware_pci::ExtendedCapabilityId" { i16 21 }, comdat, align 2, !dbg !902
@_ZN20fuchsia_hardware_pci20ExtendedCapabilityId23kDynamicPowerAllocationE = weak_odr constant %"class.fuchsia_hardware_pci::ExtendedCapabilityId" { i16 22 }, comdat, align 2, !dbg !904
@_ZN20fuchsia_hardware_pci20ExtendedCapabilityId4kTphE = weak_odr constant %"class.fuchsia_hardware_pci::ExtendedCapabilityId" { i16 23 }, comdat, align 2, !dbg !906
@_ZN20fuchsia_hardware_pci20ExtendedCapabilityId26kLatencyToleranceReportingE = weak_odr constant %"class.fuchsia_hardware_pci::ExtendedCapabilityId" { i16 24 }, comdat, align 2, !dbg !908
@_ZN20fuchsia_hardware_pci20ExtendedCapabilityId20kSecondaryPciExpressE = weak_odr constant %"class.fuchsia_hardware_pci::ExtendedCapabilityId" { i16 25 }, comdat, align 2, !dbg !910
@_ZN20fuchsia_hardware_pci20ExtendedCapabilityId5kPmuxE = weak_odr constant %"class.fuchsia_hardware_pci::ExtendedCapabilityId" { i16 26 }, comdat, align 2, !dbg !912
@_ZN20fuchsia_hardware_pci20ExtendedCapabilityId6kPasidE = weak_odr constant %"class.fuchsia_hardware_pci::ExtendedCapabilityId" { i16 27 }, comdat, align 2, !dbg !914
@_ZN20fuchsia_hardware_pci20ExtendedCapabilityId4kLnrE = weak_odr constant %"class.fuchsia_hardware_pci::ExtendedCapabilityId" { i16 28 }, comdat, align 2, !dbg !916
@_ZN20fuchsia_hardware_pci20ExtendedCapabilityId4kDpcE = weak_odr constant %"class.fuchsia_hardware_pci::ExtendedCapabilityId" { i16 29 }, comdat, align 2, !dbg !918
@_ZN20fuchsia_hardware_pci20ExtendedCapabilityId14kL1PmSubstatesE = weak_odr constant %"class.fuchsia_hardware_pci::ExtendedCapabilityId" { i16 30 }, comdat, align 2, !dbg !920
@_ZN20fuchsia_hardware_pci20ExtendedCapabilityId25kPrecisionTimeMeasurementE = weak_odr constant %"class.fuchsia_hardware_pci::ExtendedCapabilityId" { i16 31 }, comdat, align 2, !dbg !922
@_ZN20fuchsia_hardware_pci20ExtendedCapabilityId6kMpcieE = weak_odr constant %"class.fuchsia_hardware_pci::ExtendedCapabilityId" { i16 32 }, comdat, align 2, !dbg !924
@_ZN20fuchsia_hardware_pci20ExtendedCapabilityId12kFrsQueueingE = weak_odr constant %"class.fuchsia_hardware_pci::ExtendedCapabilityId" { i16 33 }, comdat, align 2, !dbg !926
@_ZN20fuchsia_hardware_pci20ExtendedCapabilityId23kReadinessTimeReportingE = weak_odr constant %"class.fuchsia_hardware_pci::ExtendedCapabilityId" { i16 34 }, comdat, align 2, !dbg !928
@_ZN20fuchsia_hardware_pci20ExtendedCapabilityId17kDesignatedVendorE = weak_odr constant %"class.fuchsia_hardware_pci::ExtendedCapabilityId" { i16 35 }, comdat, align 2, !dbg !930
@_ZN20fuchsia_hardware_pci20ExtendedCapabilityId15kVfResizableBarE = weak_odr constant %"class.fuchsia_hardware_pci::ExtendedCapabilityId" { i16 36 }, comdat, align 2, !dbg !932
@_ZN20fuchsia_hardware_pci20ExtendedCapabilityId16kDataLinkFeatureE = weak_odr constant %"class.fuchsia_hardware_pci::ExtendedCapabilityId" { i16 37 }, comdat, align 2, !dbg !934
@_ZN20fuchsia_hardware_pci20ExtendedCapabilityId16kPhysicalLayer16E = weak_odr constant %"class.fuchsia_hardware_pci::ExtendedCapabilityId" { i16 38 }, comdat, align 2, !dbg !936
@_ZN20fuchsia_hardware_pci20ExtendedCapabilityId24kLaneMarginingAtReceiverE = weak_odr constant %"class.fuchsia_hardware_pci::ExtendedCapabilityId" { i16 39 }, comdat, align 2, !dbg !938
@_ZN20fuchsia_hardware_pci20ExtendedCapabilityId12kHierarchyIdE = weak_odr constant %"class.fuchsia_hardware_pci::ExtendedCapabilityId" { i16 40 }, comdat, align 2, !dbg !940
@_ZN20fuchsia_hardware_pci20ExtendedCapabilityId20kNativePcieEnclosureE = weak_odr constant %"class.fuchsia_hardware_pci::ExtendedCapabilityId" { i16 41 }, comdat, align 2, !dbg !942
@_ZN20fuchsia_hardware_pci20ExtendedCapabilityId16kPhysicalLayer32E = weak_odr constant %"class.fuchsia_hardware_pci::ExtendedCapabilityId" { i16 42 }, comdat, align 2, !dbg !944
@_ZN20fuchsia_hardware_pci20ExtendedCapabilityId18kAlternateProtocolE = weak_odr constant %"class.fuchsia_hardware_pci::ExtendedCapabilityId" { i16 43 }, comdat, align 2, !dbg !946
@_ZN20fuchsia_hardware_pci20ExtendedCapabilityId27kSystemFirmwareIntermediaryE = weak_odr constant %"class.fuchsia_hardware_pci::ExtendedCapabilityId" { i16 44 }, comdat, align 2, !dbg !948
@_ZN20fuchsia_hardware_pci13InterruptMode9kDisabledE = weak_odr constant %"class.fuchsia_hardware_pci::InterruptMode" zeroinitializer, comdat, align 1, !dbg !950
@_ZN20fuchsia_hardware_pci13InterruptMode7kLegacyE = weak_odr constant %"class.fuchsia_hardware_pci::InterruptMode" { i8 1 }, comdat, align 1, !dbg !991
@_ZN20fuchsia_hardware_pci13InterruptMode12kLegacyNoackE = weak_odr constant %"class.fuchsia_hardware_pci::InterruptMode" { i8 2 }, comdat, align 1, !dbg !993
@_ZN20fuchsia_hardware_pci13InterruptMode4kMsiE = weak_odr constant %"class.fuchsia_hardware_pci::InterruptMode" { i8 3 }, comdat, align 1, !dbg !995
@_ZN20fuchsia_hardware_pci13InterruptMode5kMsiXE = weak_odr constant %"class.fuchsia_hardware_pci::InterruptMode" { i8 4 }, comdat, align 1, !dbg !997
@_ZN10fuchsia_io9OpenFlags14kRightReadableE = weak_odr constant %"class.fuchsia_io::OpenFlags" { i32 1 }, comdat, align 4, !dbg !999
@_ZN10fuchsia_io9OpenFlags14kRightWritableE = weak_odr constant %"class.fuchsia_io::OpenFlags" { i32 2 }, comdat, align 4, !dbg !1193
@_ZN10fuchsia_io9OpenFlags16kRightExecutableE = weak_odr constant %"class.fuchsia_io::OpenFlags" { i32 8 }, comdat, align 4, !dbg !1195
@_ZN10fuchsia_io9OpenFlags7kCreateE = weak_odr constant %"class.fuchsia_io::OpenFlags" { i32 65536 }, comdat, align 4, !dbg !1197
@_ZN10fuchsia_io9OpenFlags15kCreateIfAbsentE = weak_odr constant %"class.fuchsia_io::OpenFlags" { i32 131072 }, comdat, align 4, !dbg !1199
@_ZN10fuchsia_io9OpenFlags9kTruncateE = weak_odr constant %"class.fuchsia_io::OpenFlags" { i32 262144 }, comdat, align 4, !dbg !1201
@_ZN10fuchsia_io9OpenFlags10kDirectoryE = weak_odr constant %"class.fuchsia_io::OpenFlags" { i32 524288 }, comdat, align 4, !dbg !1203
@_ZN10fuchsia_io9OpenFlags7kAppendE = weak_odr constant %"class.fuchsia_io::OpenFlags" { i32 1048576 }, comdat, align 4, !dbg !1205
@_ZN10fuchsia_io9OpenFlags14kNodeReferenceE = weak_odr constant %"class.fuchsia_io::OpenFlags" { i32 4194304 }, comdat, align 4, !dbg !1207
@_ZN10fuchsia_io9OpenFlags9kDescribeE = weak_odr constant %"class.fuchsia_io::OpenFlags" { i32 8388608 }, comdat, align 4, !dbg !1209
@_ZN10fuchsia_io9OpenFlags14kPosixWritableE = weak_odr constant %"class.fuchsia_io::OpenFlags" { i32 134217728 }, comdat, align 4, !dbg !1211
@_ZN10fuchsia_io9OpenFlags16kPosixExecutableE = weak_odr constant %"class.fuchsia_io::OpenFlags" { i32 268435456 }, comdat, align 4, !dbg !1213
@_ZN10fuchsia_io9OpenFlags13kNotDirectoryE = weak_odr constant %"class.fuchsia_io::OpenFlags" { i32 33554432 }, comdat, align 4, !dbg !1215
@_ZN10fuchsia_io9OpenFlags16kCloneSameRightsE = weak_odr constant %"class.fuchsia_io::OpenFlags" { i32 67108864 }, comdat, align 4, !dbg !1217
@_ZN10fuchsia_io9OpenFlags5kMaskE = weak_odr constant %"class.fuchsia_io::OpenFlags" { i32 517931019 }, comdat, align 4, !dbg !1219
@_ZN10fuchsia_io9WatchMask8kDeletedE = weak_odr constant %"class.fuchsia_io::WatchMask" { i32 1 }, comdat, align 4, !dbg !1221
@_ZN10fuchsia_io9WatchMask6kAddedE = weak_odr constant %"class.fuchsia_io::WatchMask" { i32 2 }, comdat, align 4, !dbg !1402
@_ZN10fuchsia_io9WatchMask8kRemovedE = weak_odr constant %"class.fuchsia_io::WatchMask" { i32 4 }, comdat, align 4, !dbg !1404
@_ZN10fuchsia_io9WatchMask9kExistingE = weak_odr constant %"class.fuchsia_io::WatchMask" { i32 8 }, comdat, align 4, !dbg !1406
@_ZN10fuchsia_io9WatchMask5kIdleE = weak_odr constant %"class.fuchsia_io::WatchMask" { i32 16 }, comdat, align 4, !dbg !1408
@_ZN10fuchsia_io9WatchMask5kMaskE = weak_odr constant %"class.fuchsia_io::WatchMask" { i32 31 }, comdat, align 4, !dbg !1410
@_ZN10fuchsia_io14ConnectorFlags5kMaskE = weak_odr constant %"class.fuchsia_io::ConnectorFlags" zeroinitializer, comdat, align 8, !dbg !1412
@_ZN10fuchsia_io9NodeFlags18kGetRepresentationE = weak_odr constant %"class.fuchsia_io::NodeFlags" { i64 1 }, comdat, align 8, !dbg !1592
@_ZN10fuchsia_io9NodeFlags5kMaskE = weak_odr constant %"class.fuchsia_io::NodeFlags" { i64 1 }, comdat, align 8, !dbg !1771
@_ZN10fuchsia_io17FileProtocolFlags7kAppendE = weak_odr constant %"class.fuchsia_io::FileProtocolFlags" { i64 1 }, comdat, align 8, !dbg !1773
@_ZN10fuchsia_io17FileProtocolFlags9kTruncateE = weak_odr constant %"class.fuchsia_io::FileProtocolFlags" { i64 2 }, comdat, align 8, !dbg !1953
@_ZN10fuchsia_io17FileProtocolFlags5kMaskE = weak_odr constant %"class.fuchsia_io::FileProtocolFlags" { i64 3 }, comdat, align 8, !dbg !1955
@_ZN10fuchsia_io11UnlinkFlags16kMustBeDirectoryE = weak_odr constant %"class.fuchsia_io::UnlinkFlags" { i64 1 }, comdat, align 8, !dbg !1957
@_ZN10fuchsia_io11UnlinkFlags5kMaskE = weak_odr constant %"class.fuchsia_io::UnlinkFlags" { i64 1 }, comdat, align 8, !dbg !2134
@_ZN10fuchsia_io8VmoFlags5kReadE = weak_odr constant %"class.fuchsia_io::VmoFlags" { i32 1 }, comdat, align 4, !dbg !2136
@_ZN10fuchsia_io8VmoFlags6kWriteE = weak_odr constant %"class.fuchsia_io::VmoFlags" { i32 2 }, comdat, align 4, !dbg !2317
@_ZN10fuchsia_io8VmoFlags8kExecuteE = weak_odr constant %"class.fuchsia_io::VmoFlags" { i32 4 }, comdat, align 4, !dbg !2319
@_ZN10fuchsia_io8VmoFlags13kPrivateCloneE = weak_odr constant %"class.fuchsia_io::VmoFlags" { i32 65536 }, comdat, align 4, !dbg !2321
@_ZN10fuchsia_io8VmoFlags13kSharedBufferE = weak_odr constant %"class.fuchsia_io::VmoFlags" { i32 131072 }, comdat, align 4, !dbg !2323
@_ZN10fuchsia_io8VmoFlags5kMaskE = weak_odr constant %"class.fuchsia_io::VmoFlags" { i32 196615 }, comdat, align 4, !dbg !2325
@_ZN10fuchsia_io10FileSignal9kReadableE = weak_odr constant %"class.fuchsia_io::FileSignal" { i32 16777216 }, comdat, align 4, !dbg !2327
@_ZN10fuchsia_io10FileSignal9kWritableE = weak_odr constant %"class.fuchsia_io::FileSignal" { i32 33554432 }, comdat, align 4, !dbg !2505
@_ZN10fuchsia_io10FileSignal5kMaskE = weak_odr constant %"class.fuchsia_io::FileSignal" { i32 50331648 }, comdat, align 4, !dbg !2507
@_ZN10fuchsia_io16InotifyWatchMask7kAccessE = weak_odr constant %"class.fuchsia_io::InotifyWatchMask" { i32 1 }, comdat, align 4, !dbg !2509
@_ZN10fuchsia_io16InotifyWatchMask7kModifyE = weak_odr constant %"class.fuchsia_io::InotifyWatchMask" { i32 2 }, comdat, align 4, !dbg !2707
@_ZN10fuchsia_io16InotifyWatchMask7kAttribE = weak_odr constant %"class.fuchsia_io::InotifyWatchMask" { i32 4 }, comdat, align 4, !dbg !2709
@_ZN10fuchsia_io16InotifyWatchMask11kCloseWriteE = weak_odr constant %"class.fuchsia_io::InotifyWatchMask" { i32 8 }, comdat, align 4, !dbg !2711
@_ZN10fuchsia_io16InotifyWatchMask13kCloseNowriteE = weak_odr constant %"class.fuchsia_io::InotifyWatchMask" { i32 16 }, comdat, align 4, !dbg !2713
@_ZN10fuchsia_io16InotifyWatchMask5kOpenE = weak_odr constant %"class.fuchsia_io::InotifyWatchMask" { i32 32 }, comdat, align 4, !dbg !2715
@_ZN10fuchsia_io16InotifyWatchMask10kMovedFromE = weak_odr constant %"class.fuchsia_io::InotifyWatchMask" { i32 64 }, comdat, align 4, !dbg !2717
@_ZN10fuchsia_io16InotifyWatchMask8kMovedToE = weak_odr constant %"class.fuchsia_io::InotifyWatchMask" { i32 128 }, comdat, align 4, !dbg !2719
@_ZN10fuchsia_io16InotifyWatchMask7kCreateE = weak_odr constant %"class.fuchsia_io::InotifyWatchMask" { i32 256 }, comdat, align 4, !dbg !2721
@_ZN10fuchsia_io16InotifyWatchMask7kDeleteE = weak_odr constant %"class.fuchsia_io::InotifyWatchMask" { i32 512 }, comdat, align 4, !dbg !2723
@_ZN10fuchsia_io16InotifyWatchMask11kDeleteSelfE = weak_odr constant %"class.fuchsia_io::InotifyWatchMask" { i32 1024 }, comdat, align 4, !dbg !2725
@_ZN10fuchsia_io16InotifyWatchMask9kMoveSelfE = weak_odr constant %"class.fuchsia_io::InotifyWatchMask" { i32 2048 }, comdat, align 4, !dbg !2727
@_ZN10fuchsia_io16InotifyWatchMask8kUnmountE = weak_odr constant %"class.fuchsia_io::InotifyWatchMask" { i32 8192 }, comdat, align 4, !dbg !2729
@_ZN10fuchsia_io16InotifyWatchMask10kQOverflowE = weak_odr constant %"class.fuchsia_io::InotifyWatchMask" { i32 16384 }, comdat, align 4, !dbg !2731
@_ZN10fuchsia_io16InotifyWatchMask8kIgnoredE = weak_odr constant %"class.fuchsia_io::InotifyWatchMask" { i32 32768 }, comdat, align 4, !dbg !2733
@_ZN10fuchsia_io16InotifyWatchMask8kOnlydirE = weak_odr constant %"class.fuchsia_io::InotifyWatchMask" { i32 16777216 }, comdat, align 4, !dbg !2735
@_ZN10fuchsia_io16InotifyWatchMask11kDontFollowE = weak_odr constant %"class.fuchsia_io::InotifyWatchMask" { i32 33554432 }, comdat, align 4, !dbg !2737
@_ZN10fuchsia_io16InotifyWatchMask11kExclUnlinkE = weak_odr constant %"class.fuchsia_io::InotifyWatchMask" { i32 67108864 }, comdat, align 4, !dbg !2739
@_ZN10fuchsia_io16InotifyWatchMask11kMaskCreateE = weak_odr constant %"class.fuchsia_io::InotifyWatchMask" { i32 268435456 }, comdat, align 4, !dbg !2741
@_ZN10fuchsia_io16InotifyWatchMask8kMaskAddE = weak_odr constant %"class.fuchsia_io::InotifyWatchMask" { i32 536870912 }, comdat, align 4, !dbg !2743
@_ZN10fuchsia_io16InotifyWatchMask12kIsdirectoryE = weak_odr constant %"class.fuchsia_io::InotifyWatchMask" { i32 1073741824 }, comdat, align 4, !dbg !2745
@_ZN10fuchsia_io16InotifyWatchMask8kOneshotE = weak_odr constant %"class.fuchsia_io::InotifyWatchMask" { i32 -2147483648 }, comdat, align 4, !dbg !2747
@_ZN10fuchsia_io16InotifyWatchMask5kMaskE = weak_odr constant %"class.fuchsia_io::InotifyWatchMask" { i32 -150933505 }, comdat, align 4, !dbg !2749
@_ZN10fuchsia_io17NodeProtocolKinds10kConnectorE = weak_odr constant %"class.fuchsia_io::NodeProtocolKinds" { i64 1 }, comdat, align 8, !dbg !2751
@_ZN10fuchsia_io17NodeProtocolKinds10kDirectoryE = weak_odr constant %"class.fuchsia_io::NodeProtocolKinds" { i64 2 }, comdat, align 8, !dbg !2932
@_ZN10fuchsia_io17NodeProtocolKinds5kFileE = weak_odr constant %"class.fuchsia_io::NodeProtocolKinds" { i64 4 }, comdat, align 8, !dbg !2934
@_ZN10fuchsia_io17NodeProtocolKinds5kMaskE = weak_odr constant %"class.fuchsia_io::NodeProtocolKinds" { i64 7 }, comdat, align 8, !dbg !2936
@_ZN10fuchsia_io18NodeAttributeFlags13kCreationTimeE = weak_odr constant %"class.fuchsia_io::NodeAttributeFlags" { i32 1 }, comdat, align 4, !dbg !2938
@_ZN10fuchsia_io18NodeAttributeFlags17kModificationTimeE = weak_odr constant %"class.fuchsia_io::NodeAttributeFlags" { i32 2 }, comdat, align 4, !dbg !3116
@_ZN10fuchsia_io18NodeAttributeFlags5kMaskE = weak_odr constant %"class.fuchsia_io::NodeAttributeFlags" { i32 3 }, comdat, align 4, !dbg !3118
@_ZN10fuchsia_io19NodeAttributesQuery10kProtocolsE = weak_odr constant %"class.fuchsia_io::NodeAttributesQuery" { i64 1 }, comdat, align 8, !dbg !3120
@_ZN10fuchsia_io19NodeAttributesQuery10kAbilitiesE = weak_odr constant %"class.fuchsia_io::NodeAttributesQuery" { i64 2 }, comdat, align 8, !dbg !3304
@_ZN10fuchsia_io19NodeAttributesQuery12kContentSizeE = weak_odr constant %"class.fuchsia_io::NodeAttributesQuery" { i64 4 }, comdat, align 8, !dbg !3306
@_ZN10fuchsia_io19NodeAttributesQuery12kStorageSizeE = weak_odr constant %"class.fuchsia_io::NodeAttributesQuery" { i64 8 }, comdat, align 8, !dbg !3308
@_ZN10fuchsia_io19NodeAttributesQuery10kLinkCountE = weak_odr constant %"class.fuchsia_io::NodeAttributesQuery" { i64 16 }, comdat, align 8, !dbg !3310
@_ZN10fuchsia_io19NodeAttributesQuery3kIdE = weak_odr constant %"class.fuchsia_io::NodeAttributesQuery" { i64 32 }, comdat, align 8, !dbg !3312
@_ZN10fuchsia_io19NodeAttributesQuery13kCreationTimeE = weak_odr constant %"class.fuchsia_io::NodeAttributesQuery" { i64 64 }, comdat, align 8, !dbg !3314
@_ZN10fuchsia_io19NodeAttributesQuery17kModificationTimeE = weak_odr constant %"class.fuchsia_io::NodeAttributesQuery" { i64 128 }, comdat, align 8, !dbg !3316
@_ZN10fuchsia_io19NodeAttributesQuery5kMaskE = weak_odr constant %"class.fuchsia_io::NodeAttributesQuery" { i64 255 }, comdat, align 8, !dbg !3318
@_ZN10fuchsia_io10Operations8kConnectE = weak_odr constant %"class.fuchsia_io::Operations" { i64 1 }, comdat, align 8, !dbg !3320
@_ZN10fuchsia_io10Operations10kReadBytesE = weak_odr constant %"class.fuchsia_io::Operations" { i64 2 }, comdat, align 8, !dbg !3505
@_ZN10fuchsia_io10Operations11kWriteBytesE = weak_odr constant %"class.fuchsia_io::Operations" { i64 4 }, comdat, align 8, !dbg !3507
@_ZN10fuchsia_io10Operations8kExecuteE = weak_odr constant %"class.fuchsia_io::Operations" { i64 8 }, comdat, align 8, !dbg !3509
@_ZN10fuchsia_io10Operations14kGetAttributesE = weak_odr constant %"class.fuchsia_io::Operations" { i64 16 }, comdat, align 8, !dbg !3511
@_ZN10fuchsia_io10Operations17kUpdateAttributesE = weak_odr constant %"class.fuchsia_io::Operations" { i64 32 }, comdat, align 8, !dbg !3513
@_ZN10fuchsia_io10Operations10kEnumerateE = weak_odr constant %"class.fuchsia_io::Operations" { i64 64 }, comdat, align 8, !dbg !3515
@_ZN10fuchsia_io10Operations9kTraverseE = weak_odr constant %"class.fuchsia_io::Operations" { i64 128 }, comdat, align 8, !dbg !3517
@_ZN10fuchsia_io10Operations16kModifyDirectoryE = weak_odr constant %"class.fuchsia_io::Operations" { i64 256 }, comdat, align 8, !dbg !3519
@_ZN10fuchsia_io10Operations5kMaskE = weak_odr constant %"class.fuchsia_io::Operations" { i64 511 }, comdat, align 8, !dbg !3521
@_ZN10fuchsia_io34UdpMetadataEncodingProtocolVersion5kZeroE = weak_odr constant %"class.fuchsia_io::UdpMetadataEncodingProtocolVersion" zeroinitializer, comdat, align 2, !dbg !3523
@_ZN22fuchsia_component_decl16ConfigTypeLayout5kBoolE = weak_odr constant %"class.fuchsia_component_decl::ConfigTypeLayout" { i32 1 }, comdat, align 4, !dbg !3556
@_ZN22fuchsia_component_decl16ConfigTypeLayout6kUint8E = weak_odr constant %"class.fuchsia_component_decl::ConfigTypeLayout" { i32 2 }, comdat, align 4, !dbg !3612
@_ZN22fuchsia_component_decl16ConfigTypeLayout7kUint16E = weak_odr constant %"class.fuchsia_component_decl::ConfigTypeLayout" { i32 3 }, comdat, align 4, !dbg !3614
@_ZN22fuchsia_component_decl16ConfigTypeLayout7kUint32E = weak_odr constant %"class.fuchsia_component_decl::ConfigTypeLayout" { i32 4 }, comdat, align 4, !dbg !3616
@_ZN22fuchsia_component_decl16ConfigTypeLayout7kUint64E = weak_odr constant %"class.fuchsia_component_decl::ConfigTypeLayout" { i32 5 }, comdat, align 4, !dbg !3618
@_ZN22fuchsia_component_decl16ConfigTypeLayout5kInt8E = weak_odr constant %"class.fuchsia_component_decl::ConfigTypeLayout" { i32 6 }, comdat, align 4, !dbg !3620
@_ZN22fuchsia_component_decl16ConfigTypeLayout6kInt16E = weak_odr constant %"class.fuchsia_component_decl::ConfigTypeLayout" { i32 7 }, comdat, align 4, !dbg !3622
@_ZN22fuchsia_component_decl16ConfigTypeLayout6kInt32E = weak_odr constant %"class.fuchsia_component_decl::ConfigTypeLayout" { i32 8 }, comdat, align 4, !dbg !3624
@_ZN22fuchsia_component_decl16ConfigTypeLayout6kInt64E = weak_odr constant %"class.fuchsia_component_decl::ConfigTypeLayout" { i32 9 }, comdat, align 4, !dbg !3626
@_ZN22fuchsia_component_decl16ConfigTypeLayout7kStringE = weak_odr constant %"class.fuchsia_component_decl::ConfigTypeLayout" { i32 10 }, comdat, align 4, !dbg !3628
@_ZN22fuchsia_component_decl16ConfigTypeLayout7kVectorE = weak_odr constant %"class.fuchsia_component_decl::ConfigTypeLayout" { i32 11 }, comdat, align 4, !dbg !3630
@.str = private unnamed_addr constant [35 x i8] c"src/qemu_edu/drivers/edu_device.cc\00", align 1, !dbg !3632
@.str.1 = private unnamed_addr constant [18 x i8] c"failed to get bar\00", align 1, !dbg !3639
@.str.2 = private unnamed_addr constant [7 x i8] c"status\00", align 1, !dbg !3644
@.str.3 = private unnamed_addr constant [20 x i8] c"unexpected bar type\00", align 1, !dbg !3649
@.str.4 = private unnamed_addr constant [19 x i8] c"failed to map mmio\00", align 1, !dbg !3654
@.str.5 = private unnamed_addr constant [32 x i8] c"failed configure interrupt mode\00", align 1, !dbg !3659
@.str.6 = private unnamed_addr constant [24 x i8] c"failed to map interrupt\00", align 1, !dbg !3664
@.str.7 = private unnamed_addr constant [31 x i8] c"Received unexpected interrupt!\00", align 1, !dbg !3669
@_ZNSt3__27nulloptE = linkonce_odr constant %"struct.std::__2::nullopt_t" undef, comdat, align 1, !dbg !3674
@.str.8 = private unnamed_addr constant [29 x i8] c"Failed to wait for interrupt\00", align 1, !dbg !3677
@.str.9 = private unnamed_addr constant [28 x i8] c"Failed to ack PCI interrupt\00", align 1, !dbg !3682
@.str.10 = private unnamed_addr constant [14 x i8] c"Replying with\00", align 1, !dbg !3687
@.str.11 = private unnamed_addr constant [10 x i8] c"factorial\00", align 1, !dbg !3692
@_ZN4fidl8internal16ChannelTransport6VTableE = external global %"struct.fidl::internal::TransportVTable", align 8
@.str.12 = private unnamed_addr constant [30 x i8] c"ASSERT FAILED at (%s:%d): %s\0A\00", align 1, !dbg !3697
@.str.13 = private unnamed_addr constant [141 x i8] c"bazel-out/x86_64-fastbuild/bin/external/fuchsia_sdk/pkg/fidl_cpp_wire/_virtual_includes/fidl_cpp_wire/lib/fidl/cpp/wire/internal/transport.h\00", align 1, !dbg !3703
@.str.14 = private unnamed_addr constant [40 x i8] c"vtable_->type == Transport::VTable.type\00", align 1, !dbg !3708
@_ZN3fdf8internalL11kDefaultOpsE = internal constant %"struct.fdf::internal::MmioBufferOps" { ptr @_ZN3fdf8internalL5Read8EPKvRK13mmio_buffer_tm, ptr @_ZN3fdf8internalL6Read16EPKvRK13mmio_buffer_tm, ptr @_ZN3fdf8internalL6Read32EPKvRK13mmio_buffer_tm, ptr @_ZN3fdf8internalL6Read64EPKvRK13mmio_buffer_tm, ptr @_ZN3fdf8internalL10ReadBufferEPKvRK13mmio_buffer_tmPvm, ptr @_ZN3fdf8internalL6Write8EPKvRK13mmio_buffer_thm, ptr @_ZN3fdf8internalL7Write16EPKvRK13mmio_buffer_ttm, ptr @_ZN3fdf8internalL7Write32EPKvRK13mmio_buffer_tjm, ptr @_ZN3fdf8internalL7Write64EPKvRK13mmio_buffer_tmm, ptr @_ZN3fdf8internalL11WriteBufferEPKvRK13mmio_buffer_tmS2_m }, align 8, !dbg !3713
@_ZTVN3fdf10MmioBufferE.local = linkonce_odr hidden unnamed_addr constant { [4 x i32] } { [4 x i32] [i32 0, i32 trunc (i64 sub (i64 ptrtoint (ptr @_ZTIN3fdf10MmioBufferE.rtti_proxy to i64), i64 ptrtoint (ptr getelementptr inbounds ({ [4 x i32] }, ptr @_ZTVN3fdf10MmioBufferE.local, i32 0, i32 0, i32 2) to i64)) to i32), i32 trunc (i64 sub (i64 ptrtoint (ptr dso_local_equivalent @_ZN3fdf10MmioBufferD2Ev to i64), i64 ptrtoint (ptr getelementptr inbounds ({ [4 x i32] }, ptr @_ZTVN3fdf10MmioBufferE.local, i32 0, i32 0, i32 2) to i64)) to i32), i32 trunc (i64 sub (i64 ptrtoint (ptr dso_local_equivalent @_ZN3fdf10MmioBufferD0Ev to i64), i64 ptrtoint (ptr getelementptr inbounds ({ [4 x i32] }, ptr @_ZTVN3fdf10MmioBufferE.local, i32 0, i32 0, i32 2) to i64)) to i32)] }, comdat($_ZTVN3fdf10MmioBufferE), align 4
@_ZTVN10__cxxabiv117__class_type_infoE = external global ptr
@_ZTSN3fdf10MmioBufferE = linkonce_odr constant [19 x i8] c"N3fdf10MmioBufferE\00", comdat, align 1
@_ZTIN3fdf10MmioBufferE = linkonce_odr constant { ptr, ptr } { ptr getelementptr inbounds (i8, ptr @_ZTVN10__cxxabiv117__class_type_infoE, i32 8), ptr @_ZTSN3fdf10MmioBufferE }, comdat, align 8
@_ZTIN3fdf10MmioBufferE.rtti_proxy = hidden unnamed_addr constant ptr @_ZTIN3fdf10MmioBufferE, comdat
@.str.15 = private unnamed_addr constant [107 x i8] c"bazel-out/x86_64-fastbuild/bin/external/fuchsia_sdk/pkg/mmio/_virtual_includes/mmio/lib/mmio/mmio-buffer.h\00", align 1, !dbg !3778
@.str.16 = private unnamed_addr constant [23 x i8] c"mmio_.vaddr != nullptr\00", align 1, !dbg !3784
@.str.17 = private unnamed_addr constant [169 x i8] c"bazel-out/x86_64-fastbuild/bin/external/fuchsia_sdk/fidl/fuchsia.hardware.pci/_virtual_includes/fuchsia.hardware.pci_llcpp_cc/fidl/fuchsia.hardware.pci/cpp/wire_types.h\00", align 1, !dbg !3789
@.str.18 = private unnamed_addr constant [67 x i8] c"ordinal_ == ::fuchsia_hardware_pci::wire::BarResult::Ordinal::kVmo\00", align 1, !dbg !3795
@.str.19 = private unnamed_addr constant [131 x i8] c"bazel-out/x86_64-fastbuild/bin/external/fuchsia_sdk/pkg/fidl_cpp_wire/_virtual_includes/fidl_cpp_wire/lib/fidl/cpp/wire/envelope.h\00", align 1, !dbg !3800
@.str.20 = private unnamed_addr constant [11 x i8] c"has_data()\00", align 1, !dbg !3806
@.str.21 = private unnamed_addr constant [5 x i8] c"busy\00", align 1, !dbg !3811
@.str.22 = private unnamed_addr constant [11 x i8] c"irq_enable\00", align 1, !dbg !3817
@.str.23 = private unnamed_addr constant [130 x i8] c"bazel-out/x86_64-fastbuild/bin/external/fuchsia_sdk/pkg/fidl_cpp_wire/_virtual_includes/fidl_cpp_wire/lib/fidl/cpp/wire/channel.h\00", align 1, !dbg !3819
@.str.24 = private unnamed_addr constant [11 x i8] c"is_valid()\00", align 1, !dbg !3825
@_ZNSt3__28in_placeE = linkonce_odr constant %"struct.std::__2::in_place_t" zeroinitializer, comdat, align 1, !dbg !3827
@_ZTISt19bad_optional_access = external constant ptr
@_ZTVSt19bad_optional_access = external unnamed_addr constant { [5 x i32] }, align 4
@_ZTVSt9exception = external unnamed_addr constant { [5 x i32] }, align 4
@_ZN3fit8internal11null_targetIvE3opsE = linkonce_odr constant { ptr, ptr, ptr, ptr, ptr } { ptr @_ZN3fit8internal23unshared_target_type_idEPvPKv, ptr @_ZN3fit8internal15null_target_getEPv, ptr @_ZN3fit8internal16null_target_moveEPvS1_, ptr @_ZN3fit8internal22trivial_target_destroyEPv, ptr @_ZN3fit8internal11null_targetIvE6invokeEPv }, comdat, align 8, !dbg !3837

@_ZTVN3fdf10MmioBufferE = linkonce_odr unnamed_addr alias { [4 x i32] }, ptr @_ZTVN3fdf10MmioBufferE.local

; Function Attrs: mustprogress noinline optnone sspstrong uwtable
define i64 @_ZN10edu_device13QemuEduDevice19MapInterruptAndMmioEv(ptr noundef nonnull align 16 dereferenceable(224) %0) #0 align 2 personality ptr @__gxx_personality_v0 !dbg !12566 {
  %2 = alloca %"class.zx::status", align 4
  %3 = alloca ptr, align 8
  %4 = alloca %"class.fidl::WireResult", align 8
  %5 = alloca %"struct.fidl::internal::SyncEndpointManagedVeneer", align 8
  %6 = alloca ptr, align 8
  %7 = alloca i32, align 4
  %8 = alloca %"class.fit::error", align 4
  %9 = alloca i32, align 4
  %10 = alloca i32, align 4
  %11 = alloca %"class.fit::error", align 4
  %12 = alloca ptr, align 8
  %13 = alloca %"class.fit::error", align 4
  %14 = alloca i32, align 4
  %15 = alloca %"class.zx::status.51", align 8
  %16 = alloca %"class.zx::vmo", align 4
  %17 = alloca %"class.fit::error", align 4
  %18 = alloca %"class.fidl::WireResult.56", align 8
  %19 = alloca %"struct.fidl::internal::SyncEndpointManagedVeneer", align 8
  %20 = alloca %"class.fuchsia_hardware_pci::InterruptMode", align 1
  %21 = alloca %"class.fit::error", align 4
  %22 = alloca i32, align 4
  %23 = alloca %"class.fit::error", align 4
  %24 = alloca %"class.fidl::WireResult.75", align 8
  %25 = alloca %"struct.fidl::internal::SyncEndpointManagedVeneer", align 8
  %26 = alloca %"class.fit::error", align 4
  %27 = alloca i32, align 4
  %28 = alloca %"class.fit::error", align 4
  %29 = alloca %"class.fit::success", align 1
  %30 = alloca %"class.fit::success", align 1
  store ptr %0, ptr %3, align 8
  call void @llvm.dbg.declare(metadata ptr %3, metadata !12572, metadata !DIExpression()), !dbg !12574
  %31 = load ptr, ptr %3, align 8
  call void @llvm.dbg.declare(metadata ptr %4, metadata !12575, metadata !DIExpression()), !dbg !12576
  %32 = getelementptr inbounds %"class.edu_device::QemuEduDevice", ptr %31, i32 0, i32 2, !dbg !12577
  %33 = call { ptr, i32 } @_ZNK4fidl14WireSyncClientIN20fuchsia_hardware_pci6DeviceEEptEv(ptr noundef nonnull align 4 dereferenceable(4) %32), !dbg !12577
  %34 = getelementptr inbounds %"struct.fidl::internal::SyncEndpointManagedVeneer", ptr %5, i32 0, i32 0, !dbg !12577
  %35 = getelementptr inbounds { ptr, i32 }, ptr %34, i32 0, i32 0, !dbg !12577
  %36 = extractvalue { ptr, i32 } %33, 0, !dbg !12577
  store ptr %36, ptr %35, align 8, !dbg !12577
  %37 = getelementptr inbounds { ptr, i32 }, ptr %34, i32 0, i32 1, !dbg !12577
  %38 = extractvalue { ptr, i32 } %33, 1, !dbg !12577
  store i32 %38, ptr %37, align 8, !dbg !12577
  %39 = call noundef ptr @_ZNO4fidl8internal25SyncEndpointManagedVeneerINS0_18WireSyncClientImplIN20fuchsia_hardware_pci6DeviceEEEEptEv(ptr noundef nonnull align 8 dereferenceable(16) %5), !dbg !12577
  call void @_ZN4fidl8internal18WireSyncClientImplIN20fuchsia_hardware_pci6DeviceEE6GetBarEj(ptr sret(%"class.fidl::WireResult") align 8 %4, ptr noundef nonnull align 8 dereferenceable(16) %39, i32 noundef 0), !dbg !12578
  %40 = invoke noundef zeroext i1 @_ZNK4fidl6Status2okEv(ptr noundef nonnull align 8 dereferenceable(16) %4)
          to label %41 unwind label %58, !dbg !12579

41:                                               ; preds = %1
  br i1 %40, label %62, label %42, !dbg !12581

42:                                               ; preds = %41
  br label %43, !dbg !12582

43:                                               ; preds = %42
  %44 = getelementptr inbounds %"class.edu_device::QemuEduDevice", ptr %31, i32 0, i32 1, !dbg !12584
  %45 = invoke noundef i32 @_ZNK4fidl6Status6statusEv(ptr noundef nonnull align 8 dereferenceable(16) %4)
          to label %46 unwind label %58, !dbg !12584

46:                                               ; preds = %43
  invoke void @_ZN15driver_internalL7fx_slogIPKcJS2_iEEEvRN6driver6LoggerEaS2_iT_DpT0_(ptr noundef nonnull align 8 dereferenceable(36) %44, i8 noundef signext 80, ptr noundef @.str, i32 noundef 19, ptr noundef @.str.1, ptr noundef @.str.2, i32 noundef %45)
          to label %47 unwind label %58, !dbg !12584

47:                                               ; preds = %46
  br label %48, !dbg !12584

48:                                               ; preds = %47
  br label %49, !dbg !12584

49:                                               ; preds = %48
  %50 = invoke noundef i32 @_ZNK4fidl6Status6statusEv(ptr noundef nonnull align 8 dereferenceable(16) %4)
          to label %51 unwind label %58, !dbg !12586

51:                                               ; preds = %49
  store i32 %50, ptr %9, align 4, !dbg !12587
  %52 = invoke noundef ptr @_ZN3fit5errorIiEC2IJiELb1EEEDpOT_(ptr noundef nonnull align 4 dereferenceable(4) %8, ptr noundef nonnull align 4 dereferenceable(4) %9)
          to label %53 unwind label %58, !dbg !12588

53:                                               ; preds = %51
  %54 = getelementptr inbounds %"class.fit::error", ptr %8, i32 0, i32 0, !dbg !12588
  %55 = load i32, ptr %54, align 4, !dbg !12588
  %56 = invoke noundef ptr @_ZN2zx6statusIJEEC2EN3fit5errorIiEE(ptr noundef nonnull align 4 dereferenceable(8) %2, i32 %55)
          to label %57 unwind label %58, !dbg !12588

57:                                               ; preds = %53
  store i32 1, ptr %10, align 4
  br label %311, !dbg !12589

58:                                               ; preds = %169, %162, %159, %118, %111, %106, %104, %100, %92, %90, %88, %83, %81, %79, %77, %73, %71, %68, %64, %62, %53, %51, %49, %46, %43, %1
  %59 = landingpad { ptr, i32 }
          cleanup, !dbg !12590
  %60 = extractvalue { ptr, i32 } %59, 0, !dbg !12590
  store ptr %60, ptr %6, align 8, !dbg !12590
  %61 = extractvalue { ptr, i32 } %59, 1, !dbg !12590
  store i32 %61, ptr %7, align 4, !dbg !12590
  br label %316, !dbg !12590

62:                                               ; preds = %41
  %63 = invoke noundef ptr @_ZN4fidl14BaseWireResultIN20fuchsia_hardware_pci6Device6GetBarEvEptEv(ptr noundef nonnull align 8 dereferenceable(40) %4)
          to label %64 unwind label %58, !dbg !12591

64:                                               ; preds = %62
  %65 = invoke noundef zeroext i1 @_ZNK3fit6resultIiJPN20fuchsia_hardware_pci4wire20DeviceGetBarResponseEEE8is_errorEv(ptr noundef nonnull align 8 dereferenceable(16) %63)
          to label %66 unwind label %58, !dbg !12593

66:                                               ; preds = %64
  br i1 %65, label %67, label %88, !dbg !12594

67:                                               ; preds = %66
  br label %68, !dbg !12595

68:                                               ; preds = %67
  %69 = getelementptr inbounds %"class.edu_device::QemuEduDevice", ptr %31, i32 0, i32 1, !dbg !12597
  %70 = invoke noundef ptr @_ZN4fidl14BaseWireResultIN20fuchsia_hardware_pci6Device6GetBarEvEptEv(ptr noundef nonnull align 8 dereferenceable(40) %4)
          to label %71 unwind label %58, !dbg !12597

71:                                               ; preds = %68
  %72 = invoke noundef nonnull align 4 dereferenceable(4) ptr @_ZNR3fit6resultIiJPN20fuchsia_hardware_pci4wire20DeviceGetBarResponseEEE11error_valueEv(ptr noundef nonnull align 8 dereferenceable(16) %70)
          to label %73 unwind label %58, !dbg !12597

73:                                               ; preds = %71
  %74 = load i32, ptr %72, align 4, !dbg !12597
  invoke void @_ZN15driver_internalL7fx_slogIPKcJS2_iEEEvRN6driver6LoggerEaS2_iT_DpT0_(ptr noundef nonnull align 8 dereferenceable(36) %69, i8 noundef signext 80, ptr noundef @.str, i32 noundef 23, ptr noundef @.str.1, ptr noundef @.str.2, i32 noundef %74)
          to label %75 unwind label %58, !dbg !12597

75:                                               ; preds = %73
  br label %76, !dbg !12597

76:                                               ; preds = %75
  br label %77, !dbg !12597

77:                                               ; preds = %76
  %78 = invoke noundef ptr @_ZN4fidl14BaseWireResultIN20fuchsia_hardware_pci6Device6GetBarEvEptEv(ptr noundef nonnull align 8 dereferenceable(40) %4)
          to label %79 unwind label %58, !dbg !12599

79:                                               ; preds = %77
  %80 = invoke noundef nonnull align 4 dereferenceable(4) ptr @_ZNR3fit6resultIiJPN20fuchsia_hardware_pci4wire20DeviceGetBarResponseEEE11error_valueEv(ptr noundef nonnull align 8 dereferenceable(16) %78)
          to label %81 unwind label %58, !dbg !12600

81:                                               ; preds = %79
  %82 = invoke noundef ptr @_ZN3fit5errorIiEC2IJRiELb1EEEDpOT_(ptr noundef nonnull align 4 dereferenceable(4) %11, ptr noundef nonnull align 4 dereferenceable(4) %80)
          to label %83 unwind label %58, !dbg !12601

83:                                               ; preds = %81
  %84 = getelementptr inbounds %"class.fit::error", ptr %11, i32 0, i32 0, !dbg !12601
  %85 = load i32, ptr %84, align 4, !dbg !12601
  %86 = invoke noundef ptr @_ZN2zx6statusIJEEC2EN3fit5errorIiEE(ptr noundef nonnull align 4 dereferenceable(8) %2, i32 %85)
          to label %87 unwind label %58, !dbg !12601

87:                                               ; preds = %83
  store i32 1, ptr %10, align 4
  br label %311, !dbg !12602

88:                                               ; preds = %66
  call void @llvm.dbg.declare(metadata ptr %12, metadata !12603, metadata !DIExpression()), !dbg !12606
  %89 = invoke noundef ptr @_ZN4fidl14BaseWireResultIN20fuchsia_hardware_pci6Device6GetBarEvEptEv(ptr noundef nonnull align 8 dereferenceable(40) %4)
          to label %90 unwind label %58, !dbg !12607

90:                                               ; preds = %88
  %91 = invoke noundef nonnull align 8 dereferenceable(8) ptr @_ZNR3fit6resultIiJPN20fuchsia_hardware_pci4wire20DeviceGetBarResponseEEE5valueEv(ptr noundef nonnull align 8 dereferenceable(16) %89)
          to label %92 unwind label %58, !dbg !12608

92:                                               ; preds = %90
  %93 = load ptr, ptr %91, align 8, !dbg !12608
  %94 = getelementptr inbounds %"struct.fuchsia_hardware_pci::wire::DeviceGetBarResponse", ptr %93, i32 0, i32 0, !dbg !12609
  store ptr %94, ptr %12, align 8, !dbg !12606
  %95 = load ptr, ptr %12, align 8, !dbg !12610
  %96 = getelementptr inbounds %"struct.fuchsia_hardware_pci::wire::Bar", ptr %95, i32 0, i32 2, !dbg !12612
  %97 = invoke noundef zeroext i1 @_ZNK20fuchsia_hardware_pci4wire9BarResult6is_vmoEv(ptr noundef nonnull align 8 dereferenceable(16) %96)
          to label %98 unwind label %58, !dbg !12613

98:                                               ; preds = %92
  br i1 %97, label %111, label %99, !dbg !12614

99:                                               ; preds = %98
  br label %100, !dbg !12615

100:                                              ; preds = %99
  %101 = getelementptr inbounds %"class.edu_device::QemuEduDevice", ptr %31, i32 0, i32 1, !dbg !12617
  invoke void @_ZN15driver_internalL7fx_slogIPKcJEEEvRN6driver6LoggerEaS2_iT_DpT0_(ptr noundef nonnull align 8 dereferenceable(36) %101, i8 noundef signext 80, ptr noundef @.str, i32 noundef 31, ptr noundef @.str.3)
          to label %102 unwind label %58, !dbg !12617

102:                                              ; preds = %100
  br label %103, !dbg !12617

103:                                              ; preds = %102
  br label %104, !dbg !12617

104:                                              ; preds = %103
  store i32 -3, ptr %14, align 4, !dbg !12619
  %105 = invoke noundef ptr @_ZN3fit5errorIiEC2IJiELb1EEEDpOT_(ptr noundef nonnull align 4 dereferenceable(4) %13, ptr noundef nonnull align 4 dereferenceable(4) %14)
          to label %106 unwind label %58, !dbg !12620

106:                                              ; preds = %104
  %107 = getelementptr inbounds %"class.fit::error", ptr %13, i32 0, i32 0, !dbg !12620
  %108 = load i32, ptr %107, align 4, !dbg !12620
  %109 = invoke noundef ptr @_ZN2zx6statusIJEEC2EN3fit5errorIiEE(ptr noundef nonnull align 4 dereferenceable(8) %2, i32 %108)
          to label %110 unwind label %58, !dbg !12620

110:                                              ; preds = %106
  store i32 1, ptr %10, align 4
  br label %311, !dbg !12621

111:                                              ; preds = %98
  call void @llvm.dbg.declare(metadata ptr %15, metadata !12622, metadata !DIExpression()), !dbg !12623
  %112 = load ptr, ptr %12, align 8, !dbg !12624
  %113 = getelementptr inbounds %"struct.fuchsia_hardware_pci::wire::Bar", ptr %112, i32 0, i32 1, !dbg !12625
  %114 = load i64, ptr %113, align 8, !dbg !12625
  %115 = load ptr, ptr %12, align 8, !dbg !12626
  %116 = getelementptr inbounds %"struct.fuchsia_hardware_pci::wire::Bar", ptr %115, i32 0, i32 2, !dbg !12627
  %117 = invoke noundef nonnull align 4 dereferenceable(4) ptr @_ZN20fuchsia_hardware_pci4wire9BarResult3vmoEv(ptr noundef nonnull align 8 dereferenceable(16) %116)
          to label %118 unwind label %58, !dbg !12628

118:                                              ; preds = %111
  %119 = invoke noundef ptr @_ZN2zx3vmoC2EOS0_(ptr noundef nonnull align 4 dereferenceable(4) %16, ptr noundef nonnull align 4 dereferenceable(4) %117)
          to label %120 unwind label %58, !dbg !12629

120:                                              ; preds = %118
  invoke void @_ZN3fdf10MmioBuffer6CreateEmmN2zx3vmoEj(ptr sret(%"class.zx::status.51") align 8 %15, i64 noundef 0, i64 noundef %114, ptr noundef %16, i32 noundef 2)
          to label %121 unwind label %140, !dbg !12630

121:                                              ; preds = %120
  %122 = call noundef ptr @_ZN2zx3vmoD2Ev(ptr noundef nonnull align 4 dereferenceable(4) %16) #16, !dbg !12630
  %123 = invoke noundef zeroext i1 @_ZNK3fit6resultIiJN3fdf10MmioBufferEEE8is_errorEv(ptr noundef nonnull align 8 dereferenceable(64) %15)
          to label %124 unwind label %145, !dbg !12631

124:                                              ; preds = %121
  br i1 %123, label %125, label %150, !dbg !12633

125:                                              ; preds = %124
  br label %126, !dbg !12634

126:                                              ; preds = %125
  %127 = getelementptr inbounds %"class.edu_device::QemuEduDevice", ptr %31, i32 0, i32 1, !dbg !12636
  %128 = invoke noundef i32 @_ZNK2zx6statusIJN3fdf10MmioBufferEEE12status_valueEv(ptr noundef nonnull align 8 dereferenceable(64) %15)
          to label %129 unwind label %145, !dbg !12636

129:                                              ; preds = %126
  invoke void @_ZN15driver_internalL7fx_slogIPKcJS2_iEEEvRN6driver6LoggerEaS2_iT_DpT0_(ptr noundef nonnull align 8 dereferenceable(36) %127, i8 noundef signext 80, ptr noundef @.str, i32 noundef 37, ptr noundef @.str.4, ptr noundef @.str.2, i32 noundef %128)
          to label %130 unwind label %145, !dbg !12636

130:                                              ; preds = %129
  br label %131, !dbg !12636

131:                                              ; preds = %130
  br label %132, !dbg !12636

132:                                              ; preds = %131
  %133 = invoke i32 @_ZN3fit6resultIiJN3fdf10MmioBufferEEE10take_errorEv(ptr noundef nonnull align 8 dereferenceable(64) %15)
          to label %134 unwind label %145, !dbg !12638

134:                                              ; preds = %132
  %135 = getelementptr inbounds %"class.fit::error", ptr %17, i32 0, i32 0, !dbg !12638
  store i32 %133, ptr %135, align 4, !dbg !12638
  %136 = getelementptr inbounds %"class.fit::error", ptr %17, i32 0, i32 0, !dbg !12639
  %137 = load i32, ptr %136, align 4, !dbg !12639
  %138 = invoke noundef ptr @_ZN2zx6statusIJEEC2EN3fit5errorIiEE(ptr noundef nonnull align 4 dereferenceable(8) %2, i32 %137)
          to label %139 unwind label %145, !dbg !12639

139:                                              ; preds = %134
  store i32 1, ptr %10, align 4
  br label %156, !dbg !12640

140:                                              ; preds = %120
  %141 = landingpad { ptr, i32 }
          cleanup, !dbg !12641
  %142 = extractvalue { ptr, i32 } %141, 0, !dbg !12641
  store ptr %142, ptr %6, align 8, !dbg !12641
  %143 = extractvalue { ptr, i32 } %141, 1, !dbg !12641
  store i32 %143, ptr %7, align 4, !dbg !12641
  %144 = call noundef ptr @_ZN2zx3vmoD2Ev(ptr noundef nonnull align 4 dereferenceable(4) %16) #16, !dbg !12630
  br label %316, !dbg !12630

145:                                              ; preds = %152, %150, %134, %132, %129, %126, %121
  %146 = landingpad { ptr, i32 }
          cleanup, !dbg !12642
  %147 = extractvalue { ptr, i32 } %146, 0, !dbg !12642
  store ptr %147, ptr %6, align 8, !dbg !12642
  %148 = extractvalue { ptr, i32 } %146, 1, !dbg !12642
  store i32 %148, ptr %7, align 4, !dbg !12642
  %149 = call noundef ptr @_ZN2zx6statusIJN3fdf10MmioBufferEEED2Ev(ptr noundef nonnull align 8 dereferenceable(64) %15) #16, !dbg !12643
  br label %316, !dbg !12643

150:                                              ; preds = %124
  %151 = invoke noundef nonnull align 8 dereferenceable(56) ptr @_ZNO3fit6resultIiJN3fdf10MmioBufferEEEdeEv(ptr noundef nonnull align 8 dereferenceable(64) %15)
          to label %152 unwind label %145, !dbg !12644

152:                                              ; preds = %150
  %153 = getelementptr inbounds %"class.edu_device::QemuEduDevice", ptr %31, i32 0, i32 4, !dbg !12645
  %154 = invoke noundef nonnull align 8 dereferenceable(57) ptr @_ZNSt3__28optionalIN3fdf10MmioBufferEEaSB7v160000IS2_vEERS3_OT_(ptr noundef nonnull align 8 dereferenceable(57) %153, ptr noundef nonnull align 8 dereferenceable(56) %151)
          to label %155 unwind label %145, !dbg !12646

155:                                              ; preds = %152
  store i32 0, ptr %10, align 4, !dbg !12643
  br label %156, !dbg !12643

156:                                              ; preds = %155, %139
  %157 = call noundef ptr @_ZN2zx6statusIJN3fdf10MmioBufferEEED2Ev(ptr noundef nonnull align 8 dereferenceable(64) %15) #16, !dbg !12643
  %158 = load i32, ptr %10, align 4
  switch i32 %158, label %311 [
    i32 0, label %159
  ]

159:                                              ; preds = %156
  call void @llvm.dbg.declare(metadata ptr %18, metadata !12647, metadata !DIExpression()), !dbg !12648
  %160 = getelementptr inbounds %"class.edu_device::QemuEduDevice", ptr %31, i32 0, i32 2, !dbg !12649
  %161 = invoke { ptr, i32 } @_ZNK4fidl14WireSyncClientIN20fuchsia_hardware_pci6DeviceEEptEv(ptr noundef nonnull align 4 dereferenceable(4) %160)
          to label %162 unwind label %58, !dbg !12649

162:                                              ; preds = %159
  %163 = getelementptr inbounds %"struct.fidl::internal::SyncEndpointManagedVeneer", ptr %19, i32 0, i32 0, !dbg !12649
  %164 = getelementptr inbounds { ptr, i32 }, ptr %163, i32 0, i32 0, !dbg !12649
  %165 = extractvalue { ptr, i32 } %161, 0, !dbg !12649
  store ptr %165, ptr %164, align 8, !dbg !12649
  %166 = getelementptr inbounds { ptr, i32 }, ptr %163, i32 0, i32 1, !dbg !12649
  %167 = extractvalue { ptr, i32 } %161, 1, !dbg !12649
  store i32 %167, ptr %166, align 8, !dbg !12649
  %168 = invoke noundef ptr @_ZNO4fidl8internal25SyncEndpointManagedVeneerINS0_18WireSyncClientImplIN20fuchsia_hardware_pci6DeviceEEEEptEv(ptr noundef nonnull align 8 dereferenceable(16) %19)
          to label %169 unwind label %58, !dbg !12649

169:                                              ; preds = %162
  call void @llvm.memcpy.p0.p0.i64(ptr align 1 %20, ptr align 1 @_ZN20fuchsia_hardware_pci13InterruptMode7kLegacyE, i64 1, i1 false), !dbg !12650
  %170 = getelementptr inbounds %"class.fuchsia_hardware_pci::InterruptMode", ptr %20, i32 0, i32 0, !dbg !12651
  %171 = load i8, ptr %170, align 1, !dbg !12651
  invoke void @_ZN4fidl8internal18WireSyncClientImplIN20fuchsia_hardware_pci6DeviceEE16SetInterruptModeENS2_13InterruptModeEj(ptr sret(%"class.fidl::WireResult.56") align 8 %18, ptr noundef nonnull align 8 dereferenceable(16) %168, i8 %171, i32 noundef 1)
          to label %172 unwind label %58, !dbg !12651

172:                                              ; preds = %169
  %173 = invoke noundef zeroext i1 @_ZNK4fidl6Status2okEv(ptr noundef nonnull align 8 dereferenceable(16) %18)
          to label %174 unwind label %191, !dbg !12652

174:                                              ; preds = %172
  br i1 %173, label %195, label %175, !dbg !12654

175:                                              ; preds = %174
  br label %176, !dbg !12655

176:                                              ; preds = %175
  %177 = getelementptr inbounds %"class.edu_device::QemuEduDevice", ptr %31, i32 0, i32 1, !dbg !12657
  %178 = invoke noundef i32 @_ZNK4fidl6Status6statusEv(ptr noundef nonnull align 8 dereferenceable(16) %18)
          to label %179 unwind label %191, !dbg !12657

179:                                              ; preds = %176
  invoke void @_ZN15driver_internalL7fx_slogIPKcJS2_iEEEvRN6driver6LoggerEaS2_iT_DpT0_(ptr noundef nonnull align 8 dereferenceable(36) %177, i8 noundef signext 80, ptr noundef @.str, i32 noundef 46, ptr noundef @.str.5, ptr noundef @.str.2, i32 noundef %178)
          to label %180 unwind label %191, !dbg !12657

180:                                              ; preds = %179
  br label %181, !dbg !12657

181:                                              ; preds = %180
  br label %182, !dbg !12657

182:                                              ; preds = %181
  %183 = invoke noundef i32 @_ZNK4fidl6Status6statusEv(ptr noundef nonnull align 8 dereferenceable(16) %18)
          to label %184 unwind label %191, !dbg !12659

184:                                              ; preds = %182
  store i32 %183, ptr %22, align 4, !dbg !12660
  %185 = invoke noundef ptr @_ZN3fit5errorIiEC2IJiELb1EEEDpOT_(ptr noundef nonnull align 4 dereferenceable(4) %21, ptr noundef nonnull align 4 dereferenceable(4) %22)
          to label %186 unwind label %191, !dbg !12661

186:                                              ; preds = %184
  %187 = getelementptr inbounds %"class.fit::error", ptr %21, i32 0, i32 0, !dbg !12661
  %188 = load i32, ptr %187, align 4, !dbg !12661
  %189 = invoke noundef ptr @_ZN2zx6statusIJEEC2EN3fit5errorIiEE(ptr noundef nonnull align 4 dereferenceable(8) %2, i32 %188)
          to label %190 unwind label %191, !dbg !12661

190:                                              ; preds = %186
  store i32 1, ptr %10, align 4
  br label %307, !dbg !12662

191:                                              ; preds = %231, %224, %221, %216, %214, %212, %210, %206, %204, %201, %197, %195, %186, %184, %182, %179, %176, %172
  %192 = landingpad { ptr, i32 }
          cleanup, !dbg !12663
  %193 = extractvalue { ptr, i32 } %192, 0, !dbg !12663
  store ptr %193, ptr %6, align 8, !dbg !12663
  %194 = extractvalue { ptr, i32 } %192, 1, !dbg !12663
  store i32 %194, ptr %7, align 4, !dbg !12663
  br label %309, !dbg !12663

195:                                              ; preds = %174
  %196 = invoke noundef ptr @_ZN4fidl14BaseWireResultIN20fuchsia_hardware_pci6Device16SetInterruptModeEvEptEv(ptr noundef nonnull align 8 dereferenceable(28) %18)
          to label %197 unwind label %191, !dbg !12664

197:                                              ; preds = %195
  %198 = invoke noundef zeroext i1 @_ZNK3fit6resultIiJEE8is_errorEv(ptr noundef nonnull align 4 dereferenceable(8) %196)
          to label %199 unwind label %191, !dbg !12666

199:                                              ; preds = %197
  br i1 %198, label %200, label %221, !dbg !12667

200:                                              ; preds = %199
  br label %201, !dbg !12668

201:                                              ; preds = %200
  %202 = getelementptr inbounds %"class.edu_device::QemuEduDevice", ptr %31, i32 0, i32 1, !dbg !12670
  %203 = invoke noundef ptr @_ZN4fidl14BaseWireResultIN20fuchsia_hardware_pci6Device16SetInterruptModeEvEptEv(ptr noundef nonnull align 8 dereferenceable(28) %18)
          to label %204 unwind label %191, !dbg !12670

204:                                              ; preds = %201
  %205 = invoke noundef nonnull align 4 dereferenceable(4) ptr @_ZNR3fit6resultIiJEE11error_valueEv(ptr noundef nonnull align 4 dereferenceable(8) %203)
          to label %206 unwind label %191, !dbg !12670

206:                                              ; preds = %204
  %207 = load i32, ptr %205, align 4, !dbg !12670
  invoke void @_ZN15driver_internalL7fx_slogIPKcJS2_iEEEvRN6driver6LoggerEaS2_iT_DpT0_(ptr noundef nonnull align 8 dereferenceable(36) %202, i8 noundef signext 80, ptr noundef @.str, i32 noundef 50, ptr noundef @.str.5, ptr noundef @.str.2, i32 noundef %207)
          to label %208 unwind label %191, !dbg !12670

208:                                              ; preds = %206
  br label %209, !dbg !12670

209:                                              ; preds = %208
  br label %210, !dbg !12670

210:                                              ; preds = %209
  %211 = invoke noundef ptr @_ZN4fidl14BaseWireResultIN20fuchsia_hardware_pci6Device16SetInterruptModeEvEptEv(ptr noundef nonnull align 8 dereferenceable(28) %18)
          to label %212 unwind label %191, !dbg !12672

212:                                              ; preds = %210
  %213 = invoke noundef nonnull align 4 dereferenceable(4) ptr @_ZNR3fit6resultIiJEE11error_valueEv(ptr noundef nonnull align 4 dereferenceable(8) %211)
          to label %214 unwind label %191, !dbg !12673

214:                                              ; preds = %212
  %215 = invoke noundef ptr @_ZN3fit5errorIiEC2IJRiELb1EEEDpOT_(ptr noundef nonnull align 4 dereferenceable(4) %23, ptr noundef nonnull align 4 dereferenceable(4) %213)
          to label %216 unwind label %191, !dbg !12674

216:                                              ; preds = %214
  %217 = getelementptr inbounds %"class.fit::error", ptr %23, i32 0, i32 0, !dbg !12674
  %218 = load i32, ptr %217, align 4, !dbg !12674
  %219 = invoke noundef ptr @_ZN2zx6statusIJEEC2EN3fit5errorIiEE(ptr noundef nonnull align 4 dereferenceable(8) %2, i32 %218)
          to label %220 unwind label %191, !dbg !12674

220:                                              ; preds = %216
  store i32 1, ptr %10, align 4
  br label %307, !dbg !12675

221:                                              ; preds = %199
  call void @llvm.dbg.declare(metadata ptr %24, metadata !12676, metadata !DIExpression()), !dbg !12677
  %222 = getelementptr inbounds %"class.edu_device::QemuEduDevice", ptr %31, i32 0, i32 2, !dbg !12678
  %223 = invoke { ptr, i32 } @_ZNK4fidl14WireSyncClientIN20fuchsia_hardware_pci6DeviceEEptEv(ptr noundef nonnull align 4 dereferenceable(4) %222)
          to label %224 unwind label %191, !dbg !12678

224:                                              ; preds = %221
  %225 = getelementptr inbounds %"struct.fidl::internal::SyncEndpointManagedVeneer", ptr %25, i32 0, i32 0, !dbg !12678
  %226 = getelementptr inbounds { ptr, i32 }, ptr %225, i32 0, i32 0, !dbg !12678
  %227 = extractvalue { ptr, i32 } %223, 0, !dbg !12678
  store ptr %227, ptr %226, align 8, !dbg !12678
  %228 = getelementptr inbounds { ptr, i32 }, ptr %225, i32 0, i32 1, !dbg !12678
  %229 = extractvalue { ptr, i32 } %223, 1, !dbg !12678
  store i32 %229, ptr %228, align 8, !dbg !12678
  %230 = invoke noundef ptr @_ZNO4fidl8internal25SyncEndpointManagedVeneerINS0_18WireSyncClientImplIN20fuchsia_hardware_pci6DeviceEEEEptEv(ptr noundef nonnull align 8 dereferenceable(16) %25)
          to label %231 unwind label %191, !dbg !12678

231:                                              ; preds = %224
  invoke void @_ZN4fidl8internal18WireSyncClientImplIN20fuchsia_hardware_pci6DeviceEE12MapInterruptEj(ptr sret(%"class.fidl::WireResult.75") align 8 %24, ptr noundef nonnull align 8 dereferenceable(16) %230, i32 noundef 0)
          to label %232 unwind label %191, !dbg !12679

232:                                              ; preds = %231
  %233 = invoke noundef zeroext i1 @_ZNK4fidl6Status2okEv(ptr noundef nonnull align 8 dereferenceable(16) %24)
          to label %234 unwind label %251, !dbg !12680

234:                                              ; preds = %232
  br i1 %233, label %256, label %235, !dbg !12682

235:                                              ; preds = %234
  br label %236, !dbg !12683

236:                                              ; preds = %235
  %237 = getelementptr inbounds %"class.edu_device::QemuEduDevice", ptr %31, i32 0, i32 1, !dbg !12685
  %238 = invoke noundef i32 @_ZNK4fidl6Status6statusEv(ptr noundef nonnull align 8 dereferenceable(16) %24)
          to label %239 unwind label %251, !dbg !12685

239:                                              ; preds = %236
  invoke void @_ZN15driver_internalL7fx_slogIPKcJS2_iEEEvRN6driver6LoggerEaS2_iT_DpT0_(ptr noundef nonnull align 8 dereferenceable(36) %237, i8 noundef signext 80, ptr noundef @.str, i32 noundef 57, ptr noundef @.str.6, ptr noundef @.str.2, i32 noundef %238)
          to label %240 unwind label %251, !dbg !12685

240:                                              ; preds = %239
  br label %241, !dbg !12685

241:                                              ; preds = %240
  br label %242, !dbg !12685

242:                                              ; preds = %241
  %243 = invoke noundef i32 @_ZNK4fidl6Status6statusEv(ptr noundef nonnull align 8 dereferenceable(16) %24)
          to label %244 unwind label %251, !dbg !12687

244:                                              ; preds = %242
  store i32 %243, ptr %27, align 4, !dbg !12688
  %245 = invoke noundef ptr @_ZN3fit5errorIiEC2IJiELb1EEEDpOT_(ptr noundef nonnull align 4 dereferenceable(4) %26, ptr noundef nonnull align 4 dereferenceable(4) %27)
          to label %246 unwind label %251, !dbg !12689

246:                                              ; preds = %244
  %247 = getelementptr inbounds %"class.fit::error", ptr %26, i32 0, i32 0, !dbg !12689
  %248 = load i32, ptr %247, align 4, !dbg !12689
  %249 = invoke noundef ptr @_ZN2zx6statusIJEEC2EN3fit5errorIiEE(ptr noundef nonnull align 4 dereferenceable(8) %2, i32 %248)
          to label %250 unwind label %251, !dbg !12689

250:                                              ; preds = %246
  store i32 1, ptr %10, align 4
  br label %305, !dbg !12690

251:                                              ; preds = %302, %301, %296, %295, %291, %286, %284, %282, %277, %275, %273, %271, %267, %265, %262, %258, %256, %246, %244, %242, %239, %236, %232
  %252 = landingpad { ptr, i32 }
          cleanup, !dbg !12691
  %253 = extractvalue { ptr, i32 } %252, 0, !dbg !12691
  store ptr %253, ptr %6, align 8, !dbg !12691
  %254 = extractvalue { ptr, i32 } %252, 1, !dbg !12691
  store i32 %254, ptr %7, align 4, !dbg !12691
  %255 = call noundef ptr @_ZN4fidl10WireResultIN20fuchsia_hardware_pci6Device12MapInterruptEED2Ev(ptr noundef nonnull align 8 dereferenceable(96) %24) #16, !dbg !12692
  br label %309, !dbg !12692

256:                                              ; preds = %234
  %257 = invoke noundef ptr @_ZN4fidl14BaseWireResultIN20fuchsia_hardware_pci6Device12MapInterruptEvEptEv(ptr noundef nonnull align 8 dereferenceable(40) %24)
          to label %258 unwind label %251, !dbg !12693

258:                                              ; preds = %256
  %259 = invoke noundef zeroext i1 @_ZNK3fit6resultIiJPN20fuchsia_hardware_pci4wire26DeviceMapInterruptResponseEEE8is_errorEv(ptr noundef nonnull align 8 dereferenceable(16) %257)
          to label %260 unwind label %251, !dbg !12695

260:                                              ; preds = %258
  br i1 %259, label %261, label %282, !dbg !12696

261:                                              ; preds = %260
  br label %262, !dbg !12697

262:                                              ; preds = %261
  %263 = getelementptr inbounds %"class.edu_device::QemuEduDevice", ptr %31, i32 0, i32 1, !dbg !12699
  %264 = invoke noundef ptr @_ZN4fidl14BaseWireResultIN20fuchsia_hardware_pci6Device12MapInterruptEvEptEv(ptr noundef nonnull align 8 dereferenceable(40) %24)
          to label %265 unwind label %251, !dbg !12699

265:                                              ; preds = %262
  %266 = invoke noundef nonnull align 4 dereferenceable(4) ptr @_ZNR3fit6resultIiJPN20fuchsia_hardware_pci4wire26DeviceMapInterruptResponseEEE11error_valueEv(ptr noundef nonnull align 8 dereferenceable(16) %264)
          to label %267 unwind label %251, !dbg !12699

267:                                              ; preds = %265
  %268 = load i32, ptr %266, align 4, !dbg !12699
  invoke void @_ZN15driver_internalL7fx_slogIPKcJS2_iEEEvRN6driver6LoggerEaS2_iT_DpT0_(ptr noundef nonnull align 8 dereferenceable(36) %263, i8 noundef signext 80, ptr noundef @.str, i32 noundef 61, ptr noundef @.str.6, ptr noundef @.str.2, i32 noundef %268)
          to label %269 unwind label %251, !dbg !12699

269:                                              ; preds = %267
  br label %270, !dbg !12699

270:                                              ; preds = %269
  br label %271, !dbg !12699

271:                                              ; preds = %270
  %272 = invoke noundef ptr @_ZN4fidl14BaseWireResultIN20fuchsia_hardware_pci6Device12MapInterruptEvEptEv(ptr noundef nonnull align 8 dereferenceable(40) %24)
          to label %273 unwind label %251, !dbg !12701

273:                                              ; preds = %271
  %274 = invoke noundef nonnull align 4 dereferenceable(4) ptr @_ZNR3fit6resultIiJPN20fuchsia_hardware_pci4wire26DeviceMapInterruptResponseEEE11error_valueEv(ptr noundef nonnull align 8 dereferenceable(16) %272)
          to label %275 unwind label %251, !dbg !12702

275:                                              ; preds = %273
  %276 = invoke noundef ptr @_ZN3fit5errorIiEC2IJRiELb1EEEDpOT_(ptr noundef nonnull align 4 dereferenceable(4) %28, ptr noundef nonnull align 4 dereferenceable(4) %274)
          to label %277 unwind label %251, !dbg !12703

277:                                              ; preds = %275
  %278 = getelementptr inbounds %"class.fit::error", ptr %28, i32 0, i32 0, !dbg !12703
  %279 = load i32, ptr %278, align 4, !dbg !12703
  %280 = invoke noundef ptr @_ZN2zx6statusIJEEC2EN3fit5errorIiEE(ptr noundef nonnull align 4 dereferenceable(8) %2, i32 %279)
          to label %281 unwind label %251, !dbg !12703

281:                                              ; preds = %277
  store i32 1, ptr %10, align 4
  br label %305, !dbg !12704

282:                                              ; preds = %260
  %283 = invoke noundef ptr @_ZN4fidl14BaseWireResultIN20fuchsia_hardware_pci6Device12MapInterruptEvEptEv(ptr noundef nonnull align 8 dereferenceable(40) %24)
          to label %284 unwind label %251, !dbg !12705

284:                                              ; preds = %282
  %285 = invoke noundef nonnull align 8 dereferenceable(8) ptr @_ZNR3fit6resultIiJPN20fuchsia_hardware_pci4wire26DeviceMapInterruptResponseEEE5valueEv(ptr noundef nonnull align 8 dereferenceable(16) %283)
          to label %286 unwind label %251, !dbg !12706

286:                                              ; preds = %284
  %287 = load ptr, ptr %285, align 8, !dbg !12706
  %288 = getelementptr inbounds %"struct.fuchsia_hardware_pci::wire::DeviceMapInterruptResponse", ptr %287, i32 0, i32 0, !dbg !12707
  %289 = getelementptr inbounds %"class.edu_device::QemuEduDevice", ptr %31, i32 0, i32 5, !dbg !12708
  %290 = invoke noundef nonnull align 4 dereferenceable(4) ptr @_ZN2zx9interruptaSEOS0_(ptr noundef nonnull align 4 dereferenceable(4) %289, ptr noundef nonnull align 4 dereferenceable(4) %288)
          to label %291 unwind label %251, !dbg !12709

291:                                              ; preds = %286
  %292 = getelementptr inbounds %"class.edu_device::QemuEduDevice", ptr %31, i32 0, i32 6, !dbg !12710
  %293 = getelementptr inbounds %"class.edu_device::QemuEduDevice", ptr %31, i32 0, i32 5, !dbg !12711
  %294 = invoke noundef i32 @_ZNK2zx11object_base3getEv(ptr noundef nonnull align 4 dereferenceable(4) %293)
          to label %295 unwind label %251, !dbg !12712

295:                                              ; preds = %291
  invoke void @_ZN5async7IrqBase10set_objectEj(ptr noundef nonnull align 8 dereferenceable(40) %292, i32 noundef %294)
          to label %296 unwind label %251, !dbg !12713

296:                                              ; preds = %295
  %297 = getelementptr inbounds %"class.edu_device::QemuEduDevice", ptr %31, i32 0, i32 6, !dbg !12714
  %298 = getelementptr inbounds %"class.edu_device::QemuEduDevice", ptr %31, i32 0, i32 0, !dbg !12715
  %299 = load ptr, ptr %298, align 16, !dbg !12715
  %300 = invoke noundef i32 @_ZN5async7IrqBase5BeginEP16async_dispatcher(ptr noundef nonnull align 8 dereferenceable(40) %297, ptr noundef %299)
          to label %301 unwind label %251, !dbg !12716

301:                                              ; preds = %296
  invoke void @_ZN3fit2okEv()
          to label %302 unwind label %251, !dbg !12717

302:                                              ; preds = %301
  %303 = invoke noundef ptr @_ZN2zx6statusIJEECI2N3fit6resultIiJEEEENS2_7successIJEEE(ptr noundef nonnull align 4 dereferenceable(8) %2)
          to label %304 unwind label %251, !dbg !12717

304:                                              ; preds = %302
  store i32 1, ptr %10, align 4
  br label %305, !dbg !12718

305:                                              ; preds = %304, %281, %250
  %306 = call noundef ptr @_ZN4fidl10WireResultIN20fuchsia_hardware_pci6Device12MapInterruptEED2Ev(ptr noundef nonnull align 8 dereferenceable(96) %24) #16, !dbg !12692
  br label %307

307:                                              ; preds = %305, %220, %190
  %308 = call noundef ptr @_ZN4fidl10WireResultIN20fuchsia_hardware_pci6Device16SetInterruptModeEED2Ev(ptr noundef nonnull align 8 dereferenceable(88) %18) #16, !dbg !12692
  br label %311

309:                                              ; preds = %251, %191
  %310 = call noundef ptr @_ZN4fidl10WireResultIN20fuchsia_hardware_pci6Device16SetInterruptModeEED2Ev(ptr noundef nonnull align 8 dereferenceable(88) %18) #16, !dbg !12692
  br label %316, !dbg !12692

311:                                              ; preds = %307, %156, %110, %87, %57
  %312 = call noundef ptr @_ZN4fidl10WireResultIN20fuchsia_hardware_pci6Device6GetBarEED2Ev(ptr noundef nonnull align 8 dereferenceable(56) %4) #16, !dbg !12692
  %313 = getelementptr inbounds %"class.zx::status", ptr %2, i32 0, i32 0, !dbg !12692
  %314 = getelementptr inbounds %"class.fit::result", ptr %313, i32 0, i32 0, !dbg !12692
  %315 = load i64, ptr %314, align 4, !dbg !12692
  ret i64 %315, !dbg !12692

316:                                              ; preds = %309, %145, %140, %58
  %317 = call noundef ptr @_ZN4fidl10WireResultIN20fuchsia_hardware_pci6Device6GetBarEED2Ev(ptr noundef nonnull align 8 dereferenceable(56) %4) #16, !dbg !12692
  br label %318, !dbg !12692

318:                                              ; preds = %316
  %319 = load ptr, ptr %6, align 8, !dbg !12692
  %320 = load i32, ptr %7, align 4, !dbg !12692
  %321 = insertvalue { ptr, i32 } undef, ptr %319, 0, !dbg !12692
  %322 = insertvalue { ptr, i32 } %321, i32 %320, 1, !dbg !12692
  resume { ptr, i32 } %322, !dbg !12692
}

; Function Attrs: nocallback nofree nosync nounwind readnone speculatable willreturn
declare void @llvm.dbg.declare(metadata, metadata, metadata) #1

; Function Attrs: mustprogress noinline optnone sspstrong uwtable
define linkonce_odr { ptr, i32 } @_ZNK4fidl14WireSyncClientIN20fuchsia_hardware_pci6DeviceEEptEv(ptr noundef nonnull align 4 dereferenceable(4) %0) #0 comdat align 2 personality ptr @__gxx_personality_v0 !dbg !12719 {
  %2 = alloca %"struct.fidl::internal::SyncEndpointManagedVeneer", align 8
  %3 = alloca ptr, align 8
  %4 = alloca %"class.fidl::internal::AnyUnownedTransport", align 8
  %5 = alloca %"class.zx::unowned", align 4
  %6 = alloca ptr, align 8
  %7 = alloca i32, align 4
  store ptr %0, ptr %3, align 8
  call void @llvm.dbg.declare(metadata ptr %3, metadata !12720, metadata !DIExpression()), !dbg !12722
  %8 = load ptr, ptr %3, align 8
  br label %9, !dbg !12723

9:                                                ; preds = %1
  %10 = call noundef zeroext i1 @_ZNK4fidl14WireSyncClientIN20fuchsia_hardware_pci6DeviceEE8is_validEv(ptr noundef nonnull align 4 dereferenceable(4) %8), !dbg !12724
  %11 = xor i1 %10, true, !dbg !12724
  %12 = xor i1 %11, true, !dbg !12724
  %13 = xor i1 %12, true, !dbg !12724
  br i1 %13, label %14, label %15, !dbg !12727

14:                                               ; preds = %9
  call void (ptr, ...) @__zx_panic(ptr noundef @.str.12, ptr noundef @.str.23, i32 noundef 448, ptr noundef @.str.24) #17, !dbg !12728
  unreachable, !dbg !12728

15:                                               ; preds = %9
  br label %16, !dbg !12727

16:                                               ; preds = %15
  %17 = getelementptr inbounds %"class.fidl::WireSyncClient", ptr %8, i32 0, i32 0, !dbg !12730
  call void @_ZNK4fidl8internal12TransportEndIN20fuchsia_hardware_pci6DeviceENS0_16ChannelTransportEE6handleEv(ptr sret(%"class.zx::unowned") align 4 %5, ptr noundef nonnull align 4 dereferenceable(4) %17), !dbg !12731
  %18 = invoke { ptr, i32 } @_ZN4fidl8internal23MakeAnyUnownedTransportIN2zx7unownedINS2_7channelEEEEENS0_19AnyUnownedTransportERKT_(ptr noundef nonnull align 4 dereferenceable(4) %5)
          to label %19 unwind label %33, !dbg !12732

19:                                               ; preds = %16
  %20 = getelementptr inbounds { ptr, i32 }, ptr %4, i32 0, i32 0, !dbg !12732
  %21 = extractvalue { ptr, i32 } %18, 0, !dbg !12732
  store ptr %21, ptr %20, align 8, !dbg !12732
  %22 = getelementptr inbounds { ptr, i32 }, ptr %4, i32 0, i32 1, !dbg !12732
  %23 = extractvalue { ptr, i32 } %18, 1, !dbg !12732
  store i32 %23, ptr %22, align 8, !dbg !12732
  %24 = getelementptr inbounds { ptr, i32 }, ptr %4, i32 0, i32 0, !dbg !12733
  %25 = load ptr, ptr %24, align 8, !dbg !12733
  %26 = getelementptr inbounds { ptr, i32 }, ptr %4, i32 0, i32 1, !dbg !12733
  %27 = load i32, ptr %26, align 8, !dbg !12733
  %28 = invoke noundef ptr @_ZN4fidl8internal25SyncEndpointManagedVeneerINS0_18WireSyncClientImplIN20fuchsia_hardware_pci6DeviceEEEEC2ENS0_19AnyUnownedTransportE(ptr noundef nonnull align 8 dereferenceable(16) %2, ptr %25, i32 %27)
          to label %29 unwind label %33, !dbg !12733

29:                                               ; preds = %19
  %30 = call noundef ptr @_ZN2zx7unownedINS_7channelEED2Ev(ptr noundef nonnull align 4 dereferenceable(4) %5) #16, !dbg !12734
  %31 = getelementptr inbounds %"struct.fidl::internal::SyncEndpointManagedVeneer", ptr %2, i32 0, i32 0, !dbg !12734
  %32 = load { ptr, i32 }, ptr %31, align 8, !dbg !12734
  ret { ptr, i32 } %32, !dbg !12734

33:                                               ; preds = %19, %16
  %34 = landingpad { ptr, i32 }
          cleanup, !dbg !12735
  %35 = extractvalue { ptr, i32 } %34, 0, !dbg !12735
  store ptr %35, ptr %6, align 8, !dbg !12735
  %36 = extractvalue { ptr, i32 } %34, 1, !dbg !12735
  store i32 %36, ptr %7, align 4, !dbg !12735
  %37 = call noundef ptr @_ZN2zx7unownedINS_7channelEED2Ev(ptr noundef nonnull align 4 dereferenceable(4) %5) #16, !dbg !12734
  br label %38, !dbg !12734

38:                                               ; preds = %33
  %39 = load ptr, ptr %6, align 8, !dbg !12734
  %40 = load i32, ptr %7, align 4, !dbg !12734
  %41 = insertvalue { ptr, i32 } undef, ptr %39, 0, !dbg !12734
  %42 = insertvalue { ptr, i32 } %41, i32 %40, 1, !dbg !12734
  resume { ptr, i32 } %42, !dbg !12734
}

; Function Attrs: mustprogress noinline nounwind optnone sspstrong uwtable
define linkonce_odr noundef ptr @_ZNO4fidl8internal25SyncEndpointManagedVeneerINS0_18WireSyncClientImplIN20fuchsia_hardware_pci6DeviceEEEEptEv(ptr noundef nonnull align 8 dereferenceable(16) %0) #2 comdat align 2 !dbg !12736 {
  %2 = alloca ptr, align 8
  store ptr %0, ptr %2, align 8
  call void @llvm.dbg.declare(metadata ptr %2, metadata !12737, metadata !DIExpression()), !dbg !12739
  %3 = load ptr, ptr %2, align 8
  ret ptr %3, !dbg !12740
}

; Function Attrs: mustprogress noinline optnone sspstrong uwtable
define linkonce_odr void @_ZN4fidl8internal18WireSyncClientImplIN20fuchsia_hardware_pci6DeviceEE6GetBarEj(ptr noalias sret(%"class.fidl::WireResult") align 8 %0, ptr noundef nonnull align 8 dereferenceable(16) %1, i32 noundef %2) #0 comdat align 2 !dbg !12741 {
  %4 = alloca ptr, align 8
  %5 = alloca ptr, align 8
  %6 = alloca i32, align 4
  %7 = alloca %"struct.fidl::internal::TransactionalRequest", align 8
  %8 = alloca %"class.fidl::UnownedClientEnd", align 4
  store ptr %0, ptr %4, align 8
  store ptr %1, ptr %5, align 8
  call void @llvm.dbg.declare(metadata ptr %5, metadata !12742, metadata !DIExpression()), !dbg !12743
  store i32 %2, ptr %6, align 4
  call void @llvm.dbg.declare(metadata ptr %6, metadata !12744, metadata !DIExpression()), !dbg !12745
  %9 = load ptr, ptr %5, align 8
  call void @llvm.dbg.declare(metadata ptr %7, metadata !12746, metadata !DIExpression()), !dbg !12747
  %10 = load i32, ptr %6, align 4, !dbg !12748
  %11 = call noundef ptr @_ZN4fidl8internal20TransactionalRequestIN20fuchsia_hardware_pci6Device6GetBarEEC2Ej(ptr noundef nonnull align 8 dereferenceable(24) %7, i32 noundef %10), !dbg !12747
  %12 = call i32 @_ZNK4fidl8internal18WireSyncClientImplIN20fuchsia_hardware_pci6DeviceEE11_client_endEv(ptr noundef nonnull align 8 dereferenceable(16) %9), !dbg !12749
  %13 = getelementptr inbounds %"class.fidl::UnownedClientEnd", ptr %8, i32 0, i32 0, !dbg !12749
  %14 = getelementptr inbounds %"class.fidl::internal::UnownedClientEndBase", ptr %13, i32 0, i32 0, !dbg !12749
  %15 = getelementptr inbounds %"class.fidl::internal::UnownedTransportEnd", ptr %14, i32 0, i32 0, !dbg !12749
  store i32 %12, ptr %15, align 4, !dbg !12749
  %16 = getelementptr inbounds %"class.fidl::UnownedClientEnd", ptr %8, i32 0, i32 0, !dbg !12750
  %17 = getelementptr inbounds %"class.fidl::internal::UnownedClientEndBase", ptr %16, i32 0, i32 0, !dbg !12750
  %18 = getelementptr inbounds %"class.fidl::internal::UnownedTransportEnd", ptr %17, i32 0, i32 0, !dbg !12750
  %19 = load i32, ptr %18, align 4, !dbg !12750
  %20 = call noundef ptr @_ZN4fidl10WireResultIN20fuchsia_hardware_pci6Device6GetBarEEC1ENS_16UnownedClientEndIS2_EEPNS_8internal20TransactionalRequestIS3_EE(ptr noundef nonnull align 8 dereferenceable(56) %0, i32 %19, ptr noundef %7), !dbg !12750
  ret void, !dbg !12751
}

; Function Attrs: mustprogress noinline nounwind optnone sspstrong uwtable
define linkonce_odr noundef zeroext i1 @_ZNK4fidl6Status2okEv(ptr noundef nonnull align 8 dereferenceable(16) %0) #2 comdat align 2 !dbg !12752 {
  %2 = alloca ptr, align 8
  store ptr %0, ptr %2, align 8
  call void @llvm.dbg.declare(metadata ptr %2, metadata !12753, metadata !DIExpression()), !dbg !12755
  %3 = load ptr, ptr %2, align 8
  %4 = getelementptr inbounds %"class.fidl::Status", ptr %3, i32 0, i32 0, !dbg !12756
  %5 = load i32, ptr %4, align 8, !dbg !12756
  %6 = icmp eq i32 %5, 0, !dbg !12757
  ret i1 %6, !dbg !12758
}

declare i32 @__gxx_personality_v0(...)

; Function Attrs: mustprogress noinline optnone sspstrong uwtable
define internal void @_ZN15driver_internalL7fx_slogIPKcJS2_iEEEvRN6driver6LoggerEaS2_iT_DpT0_(ptr noundef nonnull align 8 dereferenceable(36) %0, i8 noundef signext %1, ptr noundef %2, i32 noundef %3, ptr noundef %4, ptr noundef %5, i32 noundef %6) #0 !dbg !12759 {
  %8 = alloca ptr, align 8
  %9 = alloca i8, align 1
  %10 = alloca ptr, align 8
  %11 = alloca i32, align 4
  %12 = alloca ptr, align 8
  %13 = alloca ptr, align 8
  %14 = alloca i32, align 4
  %15 = alloca %"struct.driver_internal::LogValue", align 8
  %16 = alloca %"struct.driver_internal::Tuplet", align 8
  %17 = alloca %"class.std::__2::tuple.113", align 8
  store ptr %0, ptr %8, align 8
  call void @llvm.dbg.declare(metadata ptr %8, metadata !12764, metadata !DIExpression()), !dbg !12765
  store i8 %1, ptr %9, align 1
  call void @llvm.dbg.declare(metadata ptr %9, metadata !12766, metadata !DIExpression()), !dbg !12767
  store ptr %2, ptr %10, align 8
  call void @llvm.dbg.declare(metadata ptr %10, metadata !12768, metadata !DIExpression()), !dbg !12769
  store i32 %3, ptr %11, align 4
  call void @llvm.dbg.declare(metadata ptr %11, metadata !12770, metadata !DIExpression()), !dbg !12771
  store ptr %4, ptr %12, align 8
  call void @llvm.dbg.declare(metadata ptr %12, metadata !12772, metadata !DIExpression()), !dbg !12773
  store ptr %5, ptr %13, align 8
  call void @llvm.dbg.declare(metadata ptr %13, metadata !12774, metadata !DIExpression()), !dbg !12775
  store i32 %6, ptr %14, align 4
  call void @llvm.dbg.declare(metadata ptr %14, metadata !12776, metadata !DIExpression()), !dbg !12775
  %18 = load i8, ptr %9, align 1, !dbg !12777
  %19 = sext i8 %18 to i32, !dbg !12777
  %20 = load ptr, ptr %8, align 8, !dbg !12779
  %21 = call noundef signext i8 @_ZN6driver6Logger11GetSeverityEv(ptr noundef nonnull align 8 dereferenceable(36) %20), !dbg !12780
  %22 = sext i8 %21 to i32, !dbg !12779
  %23 = icmp slt i32 %19, %22, !dbg !12781
  br i1 %23, label %24, label %25, !dbg !12782

24:                                               ; preds = %7
  br label %41, !dbg !12783

25:                                               ; preds = %7
  %26 = load ptr, ptr %12, align 8, !dbg !12785
  %27 = call { ptr, i32 } @_ZNSt3__210make_tupleB7v160000IJRPKcRiEEENS_5tupleIJDpNS_18__unwrap_ref_decayIT_E4typeEEEEDpOS7_(ptr noundef nonnull align 8 dereferenceable(8) %13, ptr noundef nonnull align 4 dereferenceable(4) %14), !dbg !12786
  %28 = getelementptr inbounds %"class.std::__2::tuple.113", ptr %17, i32 0, i32 0, !dbg !12786
  %29 = getelementptr inbounds { ptr, i32 }, ptr %28, i32 0, i32 0, !dbg !12786
  %30 = extractvalue { ptr, i32 } %27, 0, !dbg !12786
  store ptr %30, ptr %29, align 8, !dbg !12786
  %31 = getelementptr inbounds { ptr, i32 }, ptr %28, i32 0, i32 1, !dbg !12786
  %32 = extractvalue { ptr, i32 } %27, 1, !dbg !12786
  store i32 %32, ptr %31, align 8, !dbg !12786
  %33 = getelementptr inbounds { ptr, i32 }, ptr %17, i32 0, i32 0, !dbg !12787
  %34 = load ptr, ptr %33, align 8, !dbg !12787
  %35 = getelementptr inbounds { ptr, i32 }, ptr %17, i32 0, i32 1, !dbg !12787
  %36 = load i32, ptr %35, align 8, !dbg !12787
  call void @_ZN15driver_internalL6MakeKVIJPKciEEEDaNSt3__25tupleIJDpT_EEE(ptr sret(%"struct.driver_internal::Tuplet") align 8 %16, ptr %34, i32 %36), !dbg !12787
  call void @_ZN15driver_internalL9MakeValueIPKcJNS_8KeyValueIS2_iEEEEEDaT_NS_6TupletIJDpT0_EEE(ptr sret(%"struct.driver_internal::LogValue") align 8 %15, ptr noundef %26, ptr noundef byval(%"struct.driver_internal::Tuplet") align 8 %16), !dbg !12788
  %37 = load ptr, ptr %8, align 8, !dbg !12789
  %38 = load i8, ptr %9, align 1, !dbg !12790
  %39 = load ptr, ptr %10, align 8, !dbg !12791
  %40 = load i32, ptr %11, align 4, !dbg !12792
  call void @_ZNK15driver_internal8LogValueIPKcJNS_8KeyValueIS2_iEEEE6LogNewERN6driver6LoggerEaS2_jS2_(ptr noundef nonnull align 8 dereferenceable(32) %15, ptr noundef nonnull align 8 dereferenceable(36) %37, i8 noundef signext %38, ptr noundef %39, i32 noundef %40, ptr noundef null), !dbg !12793
  br label %41, !dbg !12794

41:                                               ; preds = %25, %24
  ret void, !dbg !12794
}

; Function Attrs: mustprogress noinline nounwind optnone sspstrong uwtable
define linkonce_odr noundef i32 @_ZNK4fidl6Status6statusEv(ptr noundef nonnull align 8 dereferenceable(16) %0) #2 comdat align 2 !dbg !12795 {
  %2 = alloca ptr, align 8
  store ptr %0, ptr %2, align 8
  call void @llvm.dbg.declare(metadata ptr %2, metadata !12796, metadata !DIExpression()), !dbg !12797
  %3 = load ptr, ptr %2, align 8
  %4 = getelementptr inbounds %"class.fidl::Status", ptr %3, i32 0, i32 0, !dbg !12798
  %5 = load i32, ptr %4, align 8, !dbg !12798
  ret i32 %5, !dbg !12799
}

; Function Attrs: noinline nounwind optnone sspstrong uwtable
define linkonce_odr noundef ptr @_ZN3fit5errorIiEC2IJiELb1EEEDpOT_(ptr noundef nonnull returned align 4 dereferenceable(4) %0, ptr noundef nonnull align 4 dereferenceable(4) %1) unnamed_addr #3 comdat align 2 !dbg !12800 {
  %3 = alloca ptr, align 8
  %4 = alloca ptr, align 8
  store ptr %0, ptr %3, align 8
  call void @llvm.dbg.declare(metadata ptr %3, metadata !12808, metadata !DIExpression()), !dbg !12810
  store ptr %1, ptr %4, align 8
  call void @llvm.dbg.declare(metadata ptr %4, metadata !12811, metadata !DIExpression()), !dbg !12812
  %5 = load ptr, ptr %3, align 8
  %6 = getelementptr inbounds %"class.fit::error", ptr %5, i32 0, i32 0, !dbg !12813
  %7 = load ptr, ptr %4, align 8, !dbg !12814
  %8 = load i32, ptr %7, align 4, !dbg !12815
  store i32 %8, ptr %6, align 4, !dbg !12813
  ret ptr %5, !dbg !12816
}

; Function Attrs: noinline optnone sspstrong uwtable
define linkonce_odr noundef ptr @_ZN2zx6statusIJEEC2EN3fit5errorIiEE(ptr noundef nonnull returned align 4 dereferenceable(8) %0, i32 %1) unnamed_addr #4 comdat align 2 !dbg !12817 {
  %3 = alloca %"class.fit::error", align 4
  %4 = alloca ptr, align 8
  %5 = alloca %"class.fit::error", align 4
  %6 = getelementptr inbounds %"class.fit::error", ptr %3, i32 0, i32 0
  store i32 %1, ptr %6, align 4
  store ptr %0, ptr %4, align 8
  call void @llvm.dbg.declare(metadata ptr %4, metadata !12818, metadata !DIExpression()), !dbg !12820
  call void @llvm.dbg.declare(metadata ptr %3, metadata !12821, metadata !DIExpression()), !dbg !12822
  %7 = load ptr, ptr %4, align 8
  call void @llvm.memcpy.p0.p0.i64(ptr align 4 %5, ptr align 4 %3, i64 4, i1 false), !dbg !12823
  %8 = getelementptr inbounds %"class.fit::error", ptr %5, i32 0, i32 0, !dbg !12824
  %9 = load i32, ptr %8, align 4, !dbg !12824
  %10 = call noundef ptr @_ZN3fit6resultIiJEEC2IiLb1EEENS_5errorIT_EE(ptr noundef nonnull align 4 dereferenceable(8) %7, i32 %9), !dbg !12824
  %11 = call noundef nonnull align 4 dereferenceable(4) ptr @_ZNR3fit6resultIiJEE11error_valueEv(ptr noundef nonnull align 4 dereferenceable(8) %7), !dbg !12825
  %12 = load i32, ptr %11, align 4, !dbg !12825
  %13 = icmp eq i32 %12, 0, !dbg !12828
  br i1 %13, label %14, label %15, !dbg !12829

14:                                               ; preds = %2
  call void @abort() #18, !dbg !12830
  unreachable, !dbg !12830

15:                                               ; preds = %2
  ret ptr %7, !dbg !12832
}

; Function Attrs: mustprogress noinline optnone sspstrong uwtable
define linkonce_odr noundef ptr @_ZN4fidl14BaseWireResultIN20fuchsia_hardware_pci6Device6GetBarEvEptEv(ptr noundef nonnull align 8 dereferenceable(40) %0) #0 comdat align 2 !dbg !12833 {
  %2 = alloca ptr, align 8
  store ptr %0, ptr %2, align 8
  call void @llvm.dbg.declare(metadata ptr %2, metadata !12834, metadata !DIExpression()), !dbg !12836
  %3 = load ptr, ptr %2, align 8
  %4 = call noundef nonnull align 8 dereferenceable(16) ptr @_ZN4fidl14BaseWireResultIN20fuchsia_hardware_pci6Device6GetBarEvE5valueEv(ptr noundef nonnull align 8 dereferenceable(40) %3), !dbg !12837
  ret ptr %4, !dbg !12838
}

; Function Attrs: mustprogress noinline nounwind optnone sspstrong uwtable
define linkonce_odr noundef zeroext i1 @_ZNK3fit6resultIiJPN20fuchsia_hardware_pci4wire20DeviceGetBarResponseEEE8is_errorEv(ptr noundef nonnull align 8 dereferenceable(16) %0) #2 comdat align 2 !dbg !12839 {
  %2 = alloca ptr, align 8
  store ptr %0, ptr %2, align 8
  call void @llvm.dbg.declare(metadata ptr %2, metadata !12840, metadata !DIExpression()), !dbg !12841
  %3 = load ptr, ptr %2, align 8
  %4 = getelementptr inbounds %"class.fit::result.34", ptr %3, i32 0, i32 0, !dbg !12842
  %5 = getelementptr inbounds %"struct.fit::internal::storage_type.35", ptr %4, i32 0, i32 0, !dbg !12843
  %6 = load i32, ptr %5, align 8, !dbg !12843
  %7 = icmp eq i32 %6, 1, !dbg !12844
  ret i1 %7, !dbg !12845
}

; Function Attrs: mustprogress noinline nounwind optnone sspstrong uwtable
define linkonce_odr noundef nonnull align 4 dereferenceable(4) ptr @_ZNR3fit6resultIiJPN20fuchsia_hardware_pci4wire20DeviceGetBarResponseEEE11error_valueEv(ptr noundef nonnull align 8 dereferenceable(16) %0) #2 comdat align 2 !dbg !12846 {
  %2 = alloca ptr, align 8
  store ptr %0, ptr %2, align 8
  call void @llvm.dbg.declare(metadata ptr %2, metadata !12847, metadata !DIExpression()), !dbg !12848
  %3 = load ptr, ptr %2, align 8
  %4 = call noundef zeroext i1 @_ZNK3fit6resultIiJPN20fuchsia_hardware_pci4wire20DeviceGetBarResponseEEE8is_errorEv(ptr noundef nonnull align 8 dereferenceable(16) %3), !dbg !12849
  br i1 %4, label %5, label %8, !dbg !12851

5:                                                ; preds = %1
  %6 = getelementptr inbounds %"class.fit::result.34", ptr %3, i32 0, i32 0, !dbg !12852
  %7 = getelementptr inbounds %"struct.fit::internal::storage_type.35", ptr %6, i32 0, i32 1, !dbg !12854
  ret ptr %7, !dbg !12855

8:                                                ; preds = %1
  call void @abort() #18, !dbg !12856
  unreachable, !dbg !12856
}

; Function Attrs: noinline nounwind optnone sspstrong uwtable
define linkonce_odr noundef ptr @_ZN3fit5errorIiEC2IJRiELb1EEEDpOT_(ptr noundef nonnull returned align 4 dereferenceable(4) %0, ptr noundef nonnull align 4 dereferenceable(4) %1) unnamed_addr #3 comdat align 2 !dbg !12857 {
  %3 = alloca ptr, align 8
  %4 = alloca ptr, align 8
  store ptr %0, ptr %3, align 8
  call void @llvm.dbg.declare(metadata ptr %3, metadata !12865, metadata !DIExpression()), !dbg !12866
  store ptr %1, ptr %4, align 8
  call void @llvm.dbg.declare(metadata ptr %4, metadata !12867, metadata !DIExpression()), !dbg !12868
  %5 = load ptr, ptr %3, align 8
  %6 = getelementptr inbounds %"class.fit::error", ptr %5, i32 0, i32 0, !dbg !12869
  %7 = load ptr, ptr %4, align 8, !dbg !12870
  %8 = load i32, ptr %7, align 4, !dbg !12871
  store i32 %8, ptr %6, align 4, !dbg !12869
  ret ptr %5, !dbg !12872
}

; Function Attrs: mustprogress noinline optnone sspstrong uwtable
define linkonce_odr noundef nonnull align 8 dereferenceable(8) ptr @_ZNR3fit6resultIiJPN20fuchsia_hardware_pci4wire20DeviceGetBarResponseEEE5valueEv(ptr noundef nonnull align 8 dereferenceable(16) %0) #0 comdat align 2 !dbg !12873 {
  %2 = alloca ptr, align 8
  store ptr %0, ptr %2, align 8
  call void @llvm.dbg.declare(metadata ptr %2, metadata !12874, metadata !DIExpression()), !dbg !12875
  %3 = load ptr, ptr %2, align 8
  %4 = call noundef zeroext i1 @_ZNK3fit6resultIiJPN20fuchsia_hardware_pci4wire20DeviceGetBarResponseEEE5is_okEv(ptr noundef nonnull align 8 dereferenceable(16) %3), !dbg !12876
  br i1 %4, label %5, label %8, !dbg !12878

5:                                                ; preds = %1
  %6 = getelementptr inbounds %"class.fit::result.34", ptr %3, i32 0, i32 0, !dbg !12879
  %7 = getelementptr inbounds %"struct.fit::internal::storage_type.35", ptr %6, i32 0, i32 1, !dbg !12881
  ret ptr %7, !dbg !12882

8:                                                ; preds = %1
  call void @abort() #18, !dbg !12883
  unreachable, !dbg !12883
}

; Function Attrs: mustprogress noinline nounwind optnone sspstrong uwtable
define linkonce_odr noundef zeroext i1 @_ZNK20fuchsia_hardware_pci4wire9BarResult6is_vmoEv(ptr noundef nonnull align 8 dereferenceable(16) %0) #2 comdat align 2 !dbg !12884 {
  %2 = alloca ptr, align 8
  store ptr %0, ptr %2, align 8
  call void @llvm.dbg.declare(metadata ptr %2, metadata !12890, metadata !DIExpression()), !dbg !12892
  %3 = load ptr, ptr %2, align 8
  %4 = getelementptr inbounds %"class.fuchsia_hardware_pci::wire::BarResult", ptr %3, i32 0, i32 0, !dbg !12893
  %5 = load i64, ptr %4, align 8, !dbg !12893
  %6 = icmp eq i64 %5, 2, !dbg !12894
  ret i1 %6, !dbg !12895
}

; Function Attrs: mustprogress noinline optnone sspstrong uwtable
define internal void @_ZN15driver_internalL7fx_slogIPKcJEEEvRN6driver6LoggerEaS2_iT_DpT0_(ptr noundef nonnull align 8 dereferenceable(36) %0, i8 noundef signext %1, ptr noundef %2, i32 noundef %3, ptr noundef %4) #0 !dbg !12896 {
  %6 = alloca ptr, align 8
  %7 = alloca i8, align 1
  %8 = alloca ptr, align 8
  %9 = alloca i32, align 4
  %10 = alloca ptr, align 8
  %11 = alloca %"struct.driver_internal::LogValue.158", align 8
  %12 = alloca %"struct.driver_internal::Tuplet.159", align 8
  %13 = alloca %"class.std::__2::tuple.117", align 1
  %14 = alloca %"class.std::__2::tuple.117", align 1
  store ptr %0, ptr %6, align 8
  call void @llvm.dbg.declare(metadata ptr %6, metadata !12900, metadata !DIExpression()), !dbg !12901
  store i8 %1, ptr %7, align 1
  call void @llvm.dbg.declare(metadata ptr %7, metadata !12902, metadata !DIExpression()), !dbg !12903
  store ptr %2, ptr %8, align 8
  call void @llvm.dbg.declare(metadata ptr %8, metadata !12904, metadata !DIExpression()), !dbg !12905
  store i32 %3, ptr %9, align 4
  call void @llvm.dbg.declare(metadata ptr %9, metadata !12906, metadata !DIExpression()), !dbg !12907
  store ptr %4, ptr %10, align 8
  call void @llvm.dbg.declare(metadata ptr %10, metadata !12908, metadata !DIExpression()), !dbg !12909
  %15 = load i8, ptr %7, align 1, !dbg !12910
  %16 = sext i8 %15 to i32, !dbg !12910
  %17 = load ptr, ptr %6, align 8, !dbg !12912
  %18 = call noundef signext i8 @_ZN6driver6Logger11GetSeverityEv(ptr noundef nonnull align 8 dereferenceable(36) %17), !dbg !12913
  %19 = sext i8 %18 to i32, !dbg !12912
  %20 = icmp slt i32 %16, %19, !dbg !12914
  br i1 %20, label %21, label %22, !dbg !12915

21:                                               ; preds = %5
  br label %32, !dbg !12916

22:                                               ; preds = %5
  %23 = load ptr, ptr %10, align 8, !dbg !12918
  call void @_ZNSt3__210make_tupleB7v160000IJEEENS_5tupleIJDpNS_18__unwrap_ref_decayIT_E4typeEEEEDpOS3_(), !dbg !12919
  %24 = call i64 @_ZN15driver_internalL6MakeKVIJEEEDaNSt3__25tupleIJDpT_EEE(), !dbg !12920
  %25 = getelementptr inbounds i8, ptr %12, i64 8, !dbg !12920
  store i64 %24, ptr %25, align 8, !dbg !12920
  %26 = getelementptr inbounds i8, ptr %12, i64 8, !dbg !12921
  %27 = load i64, ptr %26, align 8, !dbg !12921
  call void @_ZN15driver_internalL9MakeValueIPKcJEEEDaT_NS_6TupletIJDpT0_EEE(ptr sret(%"struct.driver_internal::LogValue.158") align 8 %11, ptr noundef %23, i64 %27), !dbg !12921
  %28 = load ptr, ptr %6, align 8, !dbg !12922
  %29 = load i8, ptr %7, align 1, !dbg !12923
  %30 = load ptr, ptr %8, align 8, !dbg !12924
  %31 = load i32, ptr %9, align 4, !dbg !12925
  call void @_ZNK15driver_internal8LogValueIPKcJEE6LogNewERN6driver6LoggerEaS2_jS2_(ptr noundef nonnull align 8 dereferenceable(24) %11, ptr noundef nonnull align 8 dereferenceable(36) %28, i8 noundef signext %29, ptr noundef %30, i32 noundef %31, ptr noundef null), !dbg !12926
  br label %32, !dbg !12927

32:                                               ; preds = %22, %21
  ret void, !dbg !12927
}

; Function Attrs: mustprogress noinline optnone sspstrong uwtable
define linkonce_odr void @_ZN3fdf10MmioBuffer6CreateEmmN2zx3vmoEj(ptr noalias sret(%"class.zx::status.51") align 8 %0, i64 noundef %1, i64 noundef %2, ptr noundef %3, i32 noundef %4) #0 comdat align 2 personality ptr @__gxx_personality_v0 !dbg !12928 {
  %6 = alloca ptr, align 8
  %7 = alloca i64, align 8
  %8 = alloca i64, align 8
  %9 = alloca i32, align 4
  %10 = alloca %struct.mmio_buffer_t, align 8
  %11 = alloca i32, align 4
  %12 = alloca %"class.fit::error", align 4
  %13 = alloca %"class.fit::success.107", align 8
  %14 = alloca %"class.fdf::MmioBuffer", align 8
  %15 = alloca %struct.mmio_buffer_t, align 8
  %16 = alloca ptr, align 8
  %17 = alloca i32, align 4
  store ptr %0, ptr %6, align 8
  store i64 %1, ptr %7, align 8
  call void @llvm.dbg.declare(metadata ptr %7, metadata !12929, metadata !DIExpression()), !dbg !12930
  store i64 %2, ptr %8, align 8
  call void @llvm.dbg.declare(metadata ptr %8, metadata !12931, metadata !DIExpression()), !dbg !12932
  call void @llvm.dbg.declare(metadata ptr %3, metadata !12933, metadata !DIExpression()), !dbg !12934
  store i32 %4, ptr %9, align 4
  call void @llvm.dbg.declare(metadata ptr %9, metadata !12935, metadata !DIExpression()), !dbg !12936
  call void @llvm.dbg.declare(metadata ptr %10, metadata !12937, metadata !DIExpression()), !dbg !12938
  call void @llvm.dbg.declare(metadata ptr %11, metadata !12939, metadata !DIExpression()), !dbg !12940
  %18 = load i64, ptr %7, align 8, !dbg !12941
  %19 = load i64, ptr %8, align 8, !dbg !12942
  %20 = call noundef i32 @_ZN2zx11object_base7releaseEv(ptr noundef nonnull align 4 dereferenceable(4) %3), !dbg !12943
  %21 = load i32, ptr %9, align 4, !dbg !12944
  %22 = call i32 @mmio_buffer_init(ptr noundef %10, i64 noundef %18, i64 noundef %19, i32 noundef %20, i32 noundef %21), !dbg !12945
  store i32 %22, ptr %11, align 4, !dbg !12940
  %23 = load i32, ptr %11, align 4, !dbg !12946
  %24 = icmp ne i32 %23, 0, !dbg !12948
  br i1 %24, label %25, label %30, !dbg !12949

25:                                               ; preds = %5
  %26 = call noundef ptr @_ZN3fit5errorIiEC2IJRiELb1EEEDpOT_(ptr noundef nonnull align 4 dereferenceable(4) %12, ptr noundef nonnull align 4 dereferenceable(4) %11), !dbg !12950
  %27 = getelementptr inbounds %"class.fit::error", ptr %12, i32 0, i32 0, !dbg !12950
  %28 = load i32, ptr %27, align 4, !dbg !12950
  %29 = call noundef ptr @_ZN2zx6statusIJN3fdf10MmioBufferEEEC2EN3fit5errorIiEE(ptr noundef nonnull align 8 dereferenceable(64) %0, i32 %28), !dbg !12950
  br label %48, !dbg !12952

30:                                               ; preds = %5
  call void @llvm.memcpy.p0.p0.i64(ptr align 8 %15, ptr align 8 %10, i64 32, i1 false), !dbg !12953
  %31 = call noundef ptr @_ZN3fdf10MmioBufferC2E13mmio_buffer_tPKNS_8internal13MmioBufferOpsEPKv(ptr noundef nonnull align 8 dereferenceable(56) %14, ptr noundef byval(%struct.mmio_buffer_t) align 8 %15, ptr noundef @_ZN3fdf8internalL11kDefaultOpsE, ptr noundef null), !dbg !12954
  invoke void @_ZN3fit2okIN3fdf10MmioBufferEEENS_7successIJNSt3__25decayIT_E4typeEEEEOS6_(ptr sret(%"class.fit::success.107") align 8 %13, ptr noundef nonnull align 8 dereferenceable(56) %14)
          to label %32 unwind label %37, !dbg !12955

32:                                               ; preds = %30
  %33 = invoke noundef ptr @_ZN2zx6statusIJN3fdf10MmioBufferEEECI2N3fit6resultIiJS2_EEEIS2_Lb1EEENS4_7successIJT_EEE(ptr noundef nonnull align 8 dereferenceable(64) %0, ptr noundef %13)
          to label %34 unwind label %41, !dbg !12955

34:                                               ; preds = %32
  %35 = call noundef ptr @_ZN3fit7successIJN3fdf10MmioBufferEEED2Ev(ptr noundef nonnull align 8 dereferenceable(56) %13) #16, !dbg !12956
  %36 = call noundef ptr @_ZN3fdf10MmioBufferD2Ev(ptr noundef nonnull align 8 dereferenceable(56) %14) #16, !dbg !12956
  br label %48, !dbg !12956

37:                                               ; preds = %30
  %38 = landingpad { ptr, i32 }
          cleanup, !dbg !12957
  %39 = extractvalue { ptr, i32 } %38, 0, !dbg !12957
  store ptr %39, ptr %16, align 8, !dbg !12957
  %40 = extractvalue { ptr, i32 } %38, 1, !dbg !12957
  store i32 %40, ptr %17, align 4, !dbg !12957
  br label %46, !dbg !12957

41:                                               ; preds = %32
  %42 = landingpad { ptr, i32 }
          cleanup, !dbg !12957
  %43 = extractvalue { ptr, i32 } %42, 0, !dbg !12957
  store ptr %43, ptr %16, align 8, !dbg !12957
  %44 = extractvalue { ptr, i32 } %42, 1, !dbg !12957
  store i32 %44, ptr %17, align 4, !dbg !12957
  %45 = call noundef ptr @_ZN3fit7successIJN3fdf10MmioBufferEEED2Ev(ptr noundef nonnull align 8 dereferenceable(56) %13) #16, !dbg !12956
  br label %46, !dbg !12956

46:                                               ; preds = %41, %37
  %47 = call noundef ptr @_ZN3fdf10MmioBufferD2Ev(ptr noundef nonnull align 8 dereferenceable(56) %14) #16, !dbg !12956
  br label %49, !dbg !12956

48:                                               ; preds = %34, %25
  ret void, !dbg !12957

49:                                               ; preds = %46
  %50 = load ptr, ptr %16, align 8, !dbg !12956
  %51 = load i32, ptr %17, align 4, !dbg !12956
  %52 = insertvalue { ptr, i32 } undef, ptr %50, 0, !dbg !12956
  %53 = insertvalue { ptr, i32 } %52, i32 %51, 1, !dbg !12956
  resume { ptr, i32 } %53, !dbg !12956
}

; Function Attrs: mustprogress noinline optnone sspstrong uwtable
define linkonce_odr noundef nonnull align 4 dereferenceable(4) ptr @_ZN20fuchsia_hardware_pci4wire9BarResult3vmoEv(ptr noundef nonnull align 8 dereferenceable(16) %0) #0 comdat align 2 !dbg !12958 {
  %2 = alloca ptr, align 8
  store ptr %0, ptr %2, align 8
  call void @llvm.dbg.declare(metadata ptr %2, metadata !12963, metadata !DIExpression()), !dbg !12965
  %3 = load ptr, ptr %2, align 8
  br label %4, !dbg !12966

4:                                                ; preds = %1
  %5 = getelementptr inbounds %"class.fuchsia_hardware_pci::wire::BarResult", ptr %3, i32 0, i32 0, !dbg !12967
  %6 = load i64, ptr %5, align 8, !dbg !12967
  %7 = icmp eq i64 %6, 2, !dbg !12967
  %8 = xor i1 %7, true, !dbg !12967
  %9 = xor i1 %8, true, !dbg !12967
  %10 = xor i1 %9, true, !dbg !12967
  br i1 %10, label %11, label %12, !dbg !12970

11:                                               ; preds = %4
  call void (ptr, ...) @__zx_panic(ptr noundef @.str.12, ptr noundef @.str.17, i32 noundef 793, ptr noundef @.str.18) #17, !dbg !12971
  unreachable, !dbg !12971

12:                                               ; preds = %4
  br label %13, !dbg !12970

13:                                               ; preds = %12
  %14 = getelementptr inbounds %"class.fuchsia_hardware_pci::wire::BarResult", ptr %3, i32 0, i32 1, !dbg !12973
  %15 = call noundef nonnull align 4 dereferenceable(8) ptr @_ZN4fidl15UntypedEnvelope2AsIN2zx3vmoEEERNS_8EnvelopeIT_vEEv(ptr noundef nonnull align 8 dereferenceable(8) %14), !dbg !12974
  %16 = call noundef nonnull align 4 dereferenceable(4) ptr @_ZN4fidl8EnvelopeIN2zx3vmoEvE8get_dataEv(ptr noundef nonnull align 4 dereferenceable(8) %15), !dbg !12975
  ret ptr %16, !dbg !12976
}

; Function Attrs: noinline optnone sspstrong uwtable
define linkonce_odr noundef ptr @_ZN2zx3vmoC2EOS0_(ptr noundef nonnull returned align 4 dereferenceable(4) %0, ptr noundef nonnull align 4 dereferenceable(4) %1) unnamed_addr #4 comdat align 2 !dbg !12977 {
  %3 = alloca ptr, align 8
  %4 = alloca ptr, align 8
  store ptr %0, ptr %3, align 8
  call void @llvm.dbg.declare(metadata ptr %3, metadata !12978, metadata !DIExpression()), !dbg !12979
  store ptr %1, ptr %4, align 8
  call void @llvm.dbg.declare(metadata ptr %4, metadata !12980, metadata !DIExpression()), !dbg !12981
  %5 = load ptr, ptr %3, align 8
  %6 = load ptr, ptr %4, align 8, !dbg !12982
  %7 = call noundef i32 @_ZN2zx11object_base7releaseEv(ptr noundef nonnull align 4 dereferenceable(4) %6), !dbg !12983
  %8 = call noundef ptr @_ZN2zx6objectINS_3vmoEEC2Ej(ptr noundef nonnull align 4 dereferenceable(4) %5, i32 noundef %7), !dbg !12984
  ret ptr %5, !dbg !12985
}

; Function Attrs: noinline nounwind optnone sspstrong uwtable
define linkonce_odr noundef ptr @_ZN2zx3vmoD2Ev(ptr noundef nonnull returned align 4 dereferenceable(4) %0) unnamed_addr #3 comdat align 2 !dbg !12986 {
  %2 = alloca ptr, align 8
  store ptr %0, ptr %2, align 8
  call void @llvm.dbg.declare(metadata ptr %2, metadata !12988, metadata !DIExpression()), !dbg !12989
  %3 = load ptr, ptr %2, align 8
  %4 = call noundef ptr @_ZN2zx6objectINS_3vmoEED2Ev(ptr noundef nonnull align 4 dereferenceable(4) %3) #16, !dbg !12990
  ret ptr %3, !dbg !12992
}

; Function Attrs: mustprogress noinline nounwind optnone sspstrong uwtable
define linkonce_odr noundef zeroext i1 @_ZNK3fit6resultIiJN3fdf10MmioBufferEEE8is_errorEv(ptr noundef nonnull align 8 dereferenceable(64) %0) #2 comdat align 2 !dbg !12993 {
  %2 = alloca ptr, align 8
  store ptr %0, ptr %2, align 8
  call void @llvm.dbg.declare(metadata ptr %2, metadata !12994, metadata !DIExpression()), !dbg !12996
  %3 = load ptr, ptr %2, align 8
  %4 = getelementptr inbounds %"class.fit::result.52", ptr %3, i32 0, i32 0, !dbg !12997
  %5 = getelementptr inbounds %"struct.fit::internal::storage_type.53", ptr %4, i32 0, i32 0, !dbg !12998
  %6 = load i32, ptr %5, align 8, !dbg !12998
  %7 = icmp eq i32 %6, 1, !dbg !12999
  ret i1 %7, !dbg !13000
}

; Function Attrs: mustprogress noinline optnone sspstrong uwtable
define linkonce_odr noundef i32 @_ZNK2zx6statusIJN3fdf10MmioBufferEEE12status_valueEv(ptr noundef nonnull align 8 dereferenceable(64) %0) #0 comdat align 2 !dbg !13001 {
  %2 = alloca ptr, align 8
  store ptr %0, ptr %2, align 8
  call void @llvm.dbg.declare(metadata ptr %2, metadata !13002, metadata !DIExpression()), !dbg !13004
  %3 = load ptr, ptr %2, align 8
  %4 = call noundef zeroext i1 @_ZNK3fit6resultIiJN3fdf10MmioBufferEEE8is_errorEv(ptr noundef nonnull align 8 dereferenceable(64) %3), !dbg !13005
  br i1 %4, label %5, label %8, !dbg !13006

5:                                                ; preds = %1
  %6 = call noundef nonnull align 4 dereferenceable(4) ptr @_ZNKR3fit6resultIiJN3fdf10MmioBufferEEE11error_valueEv(ptr noundef nonnull align 8 dereferenceable(64) %3), !dbg !13007
  %7 = load i32, ptr %6, align 4, !dbg !13007
  br label %9, !dbg !13006

8:                                                ; preds = %1
  br label %9, !dbg !13006

9:                                                ; preds = %8, %5
  %10 = phi i32 [ %7, %5 ], [ 0, %8 ], !dbg !13006
  ret i32 %10, !dbg !13008
}

; Function Attrs: mustprogress noinline optnone sspstrong uwtable
define linkonce_odr i32 @_ZN3fit6resultIiJN3fdf10MmioBufferEEE10take_errorEv(ptr noundef nonnull align 8 dereferenceable(64) %0) #0 comdat align 2 !dbg !13009 {
  %2 = alloca %"class.fit::error", align 4
  %3 = alloca ptr, align 8
  store ptr %0, ptr %3, align 8
  call void @llvm.dbg.declare(metadata ptr %3, metadata !13010, metadata !DIExpression()), !dbg !13012
  %4 = load ptr, ptr %3, align 8
  %5 = call noundef zeroext i1 @_ZNK3fit6resultIiJN3fdf10MmioBufferEEE8is_errorEv(ptr noundef nonnull align 8 dereferenceable(64) %4), !dbg !13013
  br i1 %5, label %6, label %12, !dbg !13015

6:                                                ; preds = %1
  %7 = getelementptr inbounds %"class.fit::result.52", ptr %4, i32 0, i32 0, !dbg !13016
  %8 = getelementptr inbounds %"struct.fit::internal::storage_type.53", ptr %7, i32 0, i32 1, !dbg !13018
  %9 = call noundef ptr @_ZN3fit5errorIiEC2IJiELb1EEEDpOT_(ptr noundef nonnull align 4 dereferenceable(4) %2, ptr noundef nonnull align 4 dereferenceable(4) %8), !dbg !13019
  %10 = getelementptr inbounds %"class.fit::error", ptr %2, i32 0, i32 0, !dbg !13020
  %11 = load i32, ptr %10, align 4, !dbg !13020
  ret i32 %11, !dbg !13020

12:                                               ; preds = %1
  call void @abort() #18, !dbg !13021
  unreachable, !dbg !13021
}

; Function Attrs: mustprogress noinline optnone sspstrong uwtable
define linkonce_odr noundef nonnull align 8 dereferenceable(56) ptr @_ZNO3fit6resultIiJN3fdf10MmioBufferEEEdeEv(ptr noundef nonnull align 8 dereferenceable(64) %0) #0 comdat align 2 !dbg !13022 {
  %2 = alloca ptr, align 8
  store ptr %0, ptr %2, align 8
  call void @llvm.dbg.declare(metadata ptr %2, metadata !13023, metadata !DIExpression()), !dbg !13024
  %3 = load ptr, ptr %2, align 8
  %4 = call noundef nonnull align 8 dereferenceable(56) ptr @_ZNR3fit6resultIiJN3fdf10MmioBufferEEE5valueEv(ptr noundef nonnull align 8 dereferenceable(64) %3), !dbg !13025
  ret ptr %4, !dbg !13026
}

; Function Attrs: mustprogress noinline optnone sspstrong uwtable
define linkonce_odr noundef nonnull align 8 dereferenceable(57) ptr @_ZNSt3__28optionalIN3fdf10MmioBufferEEaSB7v160000IS2_vEERS3_OT_(ptr noundef nonnull align 8 dereferenceable(57) %0, ptr noundef nonnull align 8 dereferenceable(56) %1) #0 comdat align 2 !dbg !13027 {
  %3 = alloca ptr, align 8
  %4 = alloca ptr, align 8
  store ptr %0, ptr %3, align 8
  call void @llvm.dbg.declare(metadata ptr %3, metadata !13034, metadata !DIExpression()), !dbg !13035
  store ptr %1, ptr %4, align 8
  call void @llvm.dbg.declare(metadata ptr %4, metadata !13036, metadata !DIExpression()), !dbg !13037
  %5 = load ptr, ptr %3, align 8
  %6 = call noundef zeroext i1 @_ZNKSt3__223__optional_storage_baseIN3fdf10MmioBufferELb0EE9has_valueB7v160000Ev(ptr noundef nonnull align 8 dereferenceable(57) %5) #16, !dbg !13038
  br i1 %6, label %7, label %11, !dbg !13040

7:                                                ; preds = %2
  %8 = load ptr, ptr %4, align 8, !dbg !13041
  %9 = call noundef nonnull align 8 dereferenceable(56) ptr @_ZNRSt3__223__optional_storage_baseIN3fdf10MmioBufferELb0EE5__getB7v160000Ev(ptr noundef nonnull align 8 dereferenceable(57) %5) #16, !dbg !13042
  %10 = call noundef nonnull align 8 dereferenceable(56) ptr @_ZN3fdf10MmioBufferaSEOS0_(ptr noundef nonnull align 8 dereferenceable(56) %9, ptr noundef nonnull align 8 dereferenceable(56) %8), !dbg !13043
  br label %13, !dbg !13044

11:                                               ; preds = %2
  %12 = load ptr, ptr %4, align 8, !dbg !13045
  call void @_ZNSt3__223__optional_storage_baseIN3fdf10MmioBufferELb0EE11__constructB7v160000IJS2_EEEvDpOT_(ptr noundef nonnull align 8 dereferenceable(57) %5, ptr noundef nonnull align 8 dereferenceable(56) %12), !dbg !13046
  br label %13

13:                                               ; preds = %11, %7
  ret ptr %5, !dbg !13047
}

; Function Attrs: noinline nounwind optnone sspstrong uwtable
define linkonce_odr noundef ptr @_ZN2zx6statusIJN3fdf10MmioBufferEEED2Ev(ptr noundef nonnull returned align 8 dereferenceable(64) %0) unnamed_addr #3 comdat align 2 !dbg !13048 {
  %2 = alloca ptr, align 8
  store ptr %0, ptr %2, align 8
  call void @llvm.dbg.declare(metadata ptr %2, metadata !13052, metadata !DIExpression()), !dbg !13054
  %3 = load ptr, ptr %2, align 8
  %4 = call noundef ptr @_ZN3fit6resultIiJN3fdf10MmioBufferEEED2Ev(ptr noundef nonnull align 8 dereferenceable(64) %3) #16, !dbg !13055
  ret ptr %3, !dbg !13057
}

; Function Attrs: mustprogress noinline optnone sspstrong uwtable
define linkonce_odr void @_ZN4fidl8internal18WireSyncClientImplIN20fuchsia_hardware_pci6DeviceEE16SetInterruptModeENS2_13InterruptModeEj(ptr noalias sret(%"class.fidl::WireResult.56") align 8 %0, ptr noundef nonnull align 8 dereferenceable(16) %1, i8 %2, i32 noundef %3) #0 comdat align 2 !dbg !13058 {
  %5 = alloca ptr, align 8
  %6 = alloca %"class.fuchsia_hardware_pci::InterruptMode", align 1
  %7 = alloca ptr, align 8
  %8 = alloca i32, align 4
  %9 = alloca %"struct.fidl::internal::TransactionalRequest.108", align 8
  %10 = alloca %"class.fuchsia_hardware_pci::InterruptMode", align 1
  %11 = alloca %"class.fidl::UnownedClientEnd", align 4
  store ptr %0, ptr %5, align 8
  %12 = getelementptr inbounds %"class.fuchsia_hardware_pci::InterruptMode", ptr %6, i32 0, i32 0
  store i8 %2, ptr %12, align 1
  store ptr %1, ptr %7, align 8
  call void @llvm.dbg.declare(metadata ptr %7, metadata !13059, metadata !DIExpression()), !dbg !13060
  call void @llvm.dbg.declare(metadata ptr %6, metadata !13061, metadata !DIExpression()), !dbg !13062
  store i32 %3, ptr %8, align 4
  call void @llvm.dbg.declare(metadata ptr %8, metadata !13063, metadata !DIExpression()), !dbg !13064
  %13 = load ptr, ptr %7, align 8
  call void @llvm.dbg.declare(metadata ptr %9, metadata !13065, metadata !DIExpression()), !dbg !13066
  call void @llvm.memcpy.p0.p0.i64(ptr align 1 %10, ptr align 1 %6, i64 1, i1 false), !dbg !13067
  %14 = load i32, ptr %8, align 4, !dbg !13068
  %15 = getelementptr inbounds %"class.fuchsia_hardware_pci::InterruptMode", ptr %10, i32 0, i32 0, !dbg !13066
  %16 = load i8, ptr %15, align 1, !dbg !13066
  %17 = call noundef ptr @_ZN4fidl8internal20TransactionalRequestIN20fuchsia_hardware_pci6Device16SetInterruptModeEEC2ENS2_13InterruptModeEj(ptr noundef nonnull align 8 dereferenceable(24) %9, i8 %16, i32 noundef %14), !dbg !13066
  %18 = call i32 @_ZNK4fidl8internal18WireSyncClientImplIN20fuchsia_hardware_pci6DeviceEE11_client_endEv(ptr noundef nonnull align 8 dereferenceable(16) %13), !dbg !13069
  %19 = getelementptr inbounds %"class.fidl::UnownedClientEnd", ptr %11, i32 0, i32 0, !dbg !13069
  %20 = getelementptr inbounds %"class.fidl::internal::UnownedClientEndBase", ptr %19, i32 0, i32 0, !dbg !13069
  %21 = getelementptr inbounds %"class.fidl::internal::UnownedTransportEnd", ptr %20, i32 0, i32 0, !dbg !13069
  store i32 %18, ptr %21, align 4, !dbg !13069
  %22 = getelementptr inbounds %"class.fidl::UnownedClientEnd", ptr %11, i32 0, i32 0, !dbg !13070
  %23 = getelementptr inbounds %"class.fidl::internal::UnownedClientEndBase", ptr %22, i32 0, i32 0, !dbg !13070
  %24 = getelementptr inbounds %"class.fidl::internal::UnownedTransportEnd", ptr %23, i32 0, i32 0, !dbg !13070
  %25 = load i32, ptr %24, align 4, !dbg !13070
  %26 = call noundef ptr @_ZN4fidl10WireResultIN20fuchsia_hardware_pci6Device16SetInterruptModeEEC1ENS_16UnownedClientEndIS2_EEPNS_8internal20TransactionalRequestIS3_EE(ptr noundef nonnull align 8 dereferenceable(88) %0, i32 %25, ptr noundef %9), !dbg !13070
  ret void, !dbg !13071
}

; Function Attrs: argmemonly nocallback nofree nounwind willreturn
declare void @llvm.memcpy.p0.p0.i64(ptr noalias nocapture writeonly, ptr noalias nocapture readonly, i64, i1 immarg) #5

; Function Attrs: mustprogress noinline optnone sspstrong uwtable
define linkonce_odr noundef ptr @_ZN4fidl14BaseWireResultIN20fuchsia_hardware_pci6Device16SetInterruptModeEvEptEv(ptr noundef nonnull align 8 dereferenceable(28) %0) #0 comdat align 2 !dbg !13072 {
  %2 = alloca ptr, align 8
  store ptr %0, ptr %2, align 8
  call void @llvm.dbg.declare(metadata ptr %2, metadata !13073, metadata !DIExpression()), !dbg !13075
  %3 = load ptr, ptr %2, align 8
  %4 = call noundef nonnull align 4 dereferenceable(8) ptr @_ZN4fidl14BaseWireResultIN20fuchsia_hardware_pci6Device16SetInterruptModeEvE5valueEv(ptr noundef nonnull align 8 dereferenceable(28) %3), !dbg !13076
  ret ptr %4, !dbg !13077
}

; Function Attrs: mustprogress noinline nounwind optnone sspstrong uwtable
define linkonce_odr noundef zeroext i1 @_ZNK3fit6resultIiJEE8is_errorEv(ptr noundef nonnull align 4 dereferenceable(8) %0) #2 comdat align 2 !dbg !13078 {
  %2 = alloca ptr, align 8
  store ptr %0, ptr %2, align 8
  call void @llvm.dbg.declare(metadata ptr %2, metadata !13079, metadata !DIExpression()), !dbg !13080
  %3 = load ptr, ptr %2, align 8
  %4 = getelementptr inbounds %"class.fit::result", ptr %3, i32 0, i32 0, !dbg !13081
  %5 = getelementptr inbounds %"struct.fit::internal::storage_type", ptr %4, i32 0, i32 0, !dbg !13082
  %6 = load i32, ptr %5, align 4, !dbg !13082
  %7 = icmp eq i32 %6, 1, !dbg !13083
  ret i1 %7, !dbg !13084
}

; Function Attrs: mustprogress noinline nounwind optnone sspstrong uwtable
define linkonce_odr noundef nonnull align 4 dereferenceable(4) ptr @_ZNR3fit6resultIiJEE11error_valueEv(ptr noundef nonnull align 4 dereferenceable(8) %0) #2 comdat align 2 !dbg !13085 {
  %2 = alloca ptr, align 8
  store ptr %0, ptr %2, align 8
  call void @llvm.dbg.declare(metadata ptr %2, metadata !13086, metadata !DIExpression()), !dbg !13087
  %3 = load ptr, ptr %2, align 8
  %4 = call noundef zeroext i1 @_ZNK3fit6resultIiJEE8is_errorEv(ptr noundef nonnull align 4 dereferenceable(8) %3), !dbg !13088
  br i1 %4, label %5, label %8, !dbg !13090

5:                                                ; preds = %1
  %6 = getelementptr inbounds %"class.fit::result", ptr %3, i32 0, i32 0, !dbg !13091
  %7 = getelementptr inbounds %"struct.fit::internal::storage_type", ptr %6, i32 0, i32 1, !dbg !13093
  ret ptr %7, !dbg !13094

8:                                                ; preds = %1
  call void @abort() #18, !dbg !13095
  unreachable, !dbg !13095
}

; Function Attrs: mustprogress noinline optnone sspstrong uwtable
define linkonce_odr void @_ZN4fidl8internal18WireSyncClientImplIN20fuchsia_hardware_pci6DeviceEE12MapInterruptEj(ptr noalias sret(%"class.fidl::WireResult.75") align 8 %0, ptr noundef nonnull align 8 dereferenceable(16) %1, i32 noundef %2) #0 comdat align 2 !dbg !13096 {
  %4 = alloca ptr, align 8
  %5 = alloca ptr, align 8
  %6 = alloca i32, align 4
  %7 = alloca %"struct.fidl::internal::TransactionalRequest.109", align 8
  %8 = alloca %"class.fidl::UnownedClientEnd", align 4
  store ptr %0, ptr %4, align 8
  store ptr %1, ptr %5, align 8
  call void @llvm.dbg.declare(metadata ptr %5, metadata !13097, metadata !DIExpression()), !dbg !13098
  store i32 %2, ptr %6, align 4
  call void @llvm.dbg.declare(metadata ptr %6, metadata !13099, metadata !DIExpression()), !dbg !13100
  %9 = load ptr, ptr %5, align 8
  call void @llvm.dbg.declare(metadata ptr %7, metadata !13101, metadata !DIExpression()), !dbg !13102
  %10 = load i32, ptr %6, align 4, !dbg !13103
  %11 = call noundef ptr @_ZN4fidl8internal20TransactionalRequestIN20fuchsia_hardware_pci6Device12MapInterruptEEC2Ej(ptr noundef nonnull align 8 dereferenceable(24) %7, i32 noundef %10), !dbg !13102
  %12 = call i32 @_ZNK4fidl8internal18WireSyncClientImplIN20fuchsia_hardware_pci6DeviceEE11_client_endEv(ptr noundef nonnull align 8 dereferenceable(16) %9), !dbg !13104
  %13 = getelementptr inbounds %"class.fidl::UnownedClientEnd", ptr %8, i32 0, i32 0, !dbg !13104
  %14 = getelementptr inbounds %"class.fidl::internal::UnownedClientEndBase", ptr %13, i32 0, i32 0, !dbg !13104
  %15 = getelementptr inbounds %"class.fidl::internal::UnownedTransportEnd", ptr %14, i32 0, i32 0, !dbg !13104
  store i32 %12, ptr %15, align 4, !dbg !13104
  %16 = getelementptr inbounds %"class.fidl::UnownedClientEnd", ptr %8, i32 0, i32 0, !dbg !13105
  %17 = getelementptr inbounds %"class.fidl::internal::UnownedClientEndBase", ptr %16, i32 0, i32 0, !dbg !13105
  %18 = getelementptr inbounds %"class.fidl::internal::UnownedTransportEnd", ptr %17, i32 0, i32 0, !dbg !13105
  %19 = load i32, ptr %18, align 4, !dbg !13105
  %20 = call noundef ptr @_ZN4fidl10WireResultIN20fuchsia_hardware_pci6Device12MapInterruptEEC1ENS_16UnownedClientEndIS2_EEPNS_8internal20TransactionalRequestIS3_EE(ptr noundef nonnull align 8 dereferenceable(96) %0, i32 %19, ptr noundef %7), !dbg !13105
  ret void, !dbg !13106
}

; Function Attrs: mustprogress noinline optnone sspstrong uwtable
define linkonce_odr noundef ptr @_ZN4fidl14BaseWireResultIN20fuchsia_hardware_pci6Device12MapInterruptEvEptEv(ptr noundef nonnull align 8 dereferenceable(40) %0) #0 comdat align 2 !dbg !13107 {
  %2 = alloca ptr, align 8
  store ptr %0, ptr %2, align 8
  call void @llvm.dbg.declare(metadata ptr %2, metadata !13108, metadata !DIExpression()), !dbg !13110
  %3 = load ptr, ptr %2, align 8
  %4 = call noundef nonnull align 8 dereferenceable(16) ptr @_ZN4fidl14BaseWireResultIN20fuchsia_hardware_pci6Device12MapInterruptEvE5valueEv(ptr noundef nonnull align 8 dereferenceable(40) %3), !dbg !13111
  ret ptr %4, !dbg !13112
}

; Function Attrs: mustprogress noinline nounwind optnone sspstrong uwtable
define linkonce_odr noundef zeroext i1 @_ZNK3fit6resultIiJPN20fuchsia_hardware_pci4wire26DeviceMapInterruptResponseEEE8is_errorEv(ptr noundef nonnull align 8 dereferenceable(16) %0) #2 comdat align 2 !dbg !13113 {
  %2 = alloca ptr, align 8
  store ptr %0, ptr %2, align 8
  call void @llvm.dbg.declare(metadata ptr %2, metadata !13114, metadata !DIExpression()), !dbg !13115
  %3 = load ptr, ptr %2, align 8
  %4 = getelementptr inbounds %"class.fit::result.85", ptr %3, i32 0, i32 0, !dbg !13116
  %5 = getelementptr inbounds %"struct.fit::internal::storage_type.86", ptr %4, i32 0, i32 0, !dbg !13117
  %6 = load i32, ptr %5, align 8, !dbg !13117
  %7 = icmp eq i32 %6, 1, !dbg !13118
  ret i1 %7, !dbg !13119
}

; Function Attrs: mustprogress noinline nounwind optnone sspstrong uwtable
define linkonce_odr noundef nonnull align 4 dereferenceable(4) ptr @_ZNR3fit6resultIiJPN20fuchsia_hardware_pci4wire26DeviceMapInterruptResponseEEE11error_valueEv(ptr noundef nonnull align 8 dereferenceable(16) %0) #2 comdat align 2 !dbg !13120 {
  %2 = alloca ptr, align 8
  store ptr %0, ptr %2, align 8
  call void @llvm.dbg.declare(metadata ptr %2, metadata !13121, metadata !DIExpression()), !dbg !13122
  %3 = load ptr, ptr %2, align 8
  %4 = call noundef zeroext i1 @_ZNK3fit6resultIiJPN20fuchsia_hardware_pci4wire26DeviceMapInterruptResponseEEE8is_errorEv(ptr noundef nonnull align 8 dereferenceable(16) %3), !dbg !13123
  br i1 %4, label %5, label %8, !dbg !13125

5:                                                ; preds = %1
  %6 = getelementptr inbounds %"class.fit::result.85", ptr %3, i32 0, i32 0, !dbg !13126
  %7 = getelementptr inbounds %"struct.fit::internal::storage_type.86", ptr %6, i32 0, i32 1, !dbg !13128
  ret ptr %7, !dbg !13129

8:                                                ; preds = %1
  call void @abort() #18, !dbg !13130
  unreachable, !dbg !13130
}

; Function Attrs: mustprogress noinline optnone sspstrong uwtable
define linkonce_odr noundef nonnull align 8 dereferenceable(8) ptr @_ZNR3fit6resultIiJPN20fuchsia_hardware_pci4wire26DeviceMapInterruptResponseEEE5valueEv(ptr noundef nonnull align 8 dereferenceable(16) %0) #0 comdat align 2 !dbg !13131 {
  %2 = alloca ptr, align 8
  store ptr %0, ptr %2, align 8
  call void @llvm.dbg.declare(metadata ptr %2, metadata !13132, metadata !DIExpression()), !dbg !13133
  %3 = load ptr, ptr %2, align 8
  %4 = call noundef zeroext i1 @_ZNK3fit6resultIiJPN20fuchsia_hardware_pci4wire26DeviceMapInterruptResponseEEE5is_okEv(ptr noundef nonnull align 8 dereferenceable(16) %3), !dbg !13134
  br i1 %4, label %5, label %8, !dbg !13136

5:                                                ; preds = %1
  %6 = getelementptr inbounds %"class.fit::result.85", ptr %3, i32 0, i32 0, !dbg !13137
  %7 = getelementptr inbounds %"struct.fit::internal::storage_type.86", ptr %6, i32 0, i32 1, !dbg !13139
  ret ptr %7, !dbg !13140

8:                                                ; preds = %1
  call void @abort() #18, !dbg !13141
  unreachable, !dbg !13141
}

; Function Attrs: mustprogress noinline optnone sspstrong uwtable
define linkonce_odr noundef nonnull align 4 dereferenceable(4) ptr @_ZN2zx9interruptaSEOS0_(ptr noundef nonnull align 4 dereferenceable(4) %0, ptr noundef nonnull align 4 dereferenceable(4) %1) #0 comdat align 2 !dbg !13142 {
  %3 = alloca ptr, align 8
  %4 = alloca ptr, align 8
  store ptr %0, ptr %3, align 8
  call void @llvm.dbg.declare(metadata ptr %3, metadata !13143, metadata !DIExpression()), !dbg !13144
  store ptr %1, ptr %4, align 8
  call void @llvm.dbg.declare(metadata ptr %4, metadata !13145, metadata !DIExpression()), !dbg !13146
  %5 = load ptr, ptr %3, align 8
  %6 = load ptr, ptr %4, align 8, !dbg !13147
  %7 = call noundef i32 @_ZN2zx11object_base7releaseEv(ptr noundef nonnull align 4 dereferenceable(4) %6), !dbg !13148
  call void @_ZN2zx11object_base5resetEj(ptr noundef nonnull align 4 dereferenceable(4) %5, i32 noundef %7), !dbg !13149
  ret ptr %5, !dbg !13150
}

; Function Attrs: mustprogress noinline nounwind optnone sspstrong uwtable
define linkonce_odr void @_ZN5async7IrqBase10set_objectEj(ptr noundef nonnull align 8 dereferenceable(40) %0, i32 noundef %1) #2 comdat align 2 !dbg !13151 {
  %3 = alloca ptr, align 8
  %4 = alloca i32, align 4
  store ptr %0, ptr %3, align 8
  call void @llvm.dbg.declare(metadata ptr %3, metadata !13159, metadata !DIExpression()), !dbg !13161
  store i32 %1, ptr %4, align 4
  call void @llvm.dbg.declare(metadata ptr %4, metadata !13162, metadata !DIExpression()), !dbg !13163
  %5 = load ptr, ptr %3, align 8
  %6 = load i32, ptr %4, align 4, !dbg !13164
  %7 = getelementptr inbounds %"class.async::IrqBase", ptr %5, i32 0, i32 0, !dbg !13165
  %8 = getelementptr inbounds %struct.async_irq, ptr %7, i32 0, i32 2, !dbg !13166
  store i32 %6, ptr %8, align 8, !dbg !13167
  ret void, !dbg !13168
}

; Function Attrs: mustprogress noinline nounwind optnone sspstrong uwtable
define linkonce_odr noundef i32 @_ZNK2zx11object_base3getEv(ptr noundef nonnull align 4 dereferenceable(4) %0) #2 comdat align 2 !dbg !13169 {
  %2 = alloca ptr, align 8
  store ptr %0, ptr %2, align 8
  call void @llvm.dbg.declare(metadata ptr %2, metadata !13170, metadata !DIExpression()), !dbg !13172
  %3 = load ptr, ptr %2, align 8
  %4 = getelementptr inbounds %"class.zx::object_base", ptr %3, i32 0, i32 0, !dbg !13173
  %5 = load i32, ptr %4, align 4, !dbg !13173
  ret i32 %5, !dbg !13174
}

declare noundef i32 @_ZN5async7IrqBase5BeginEP16async_dispatcher(ptr noundef nonnull align 8 dereferenceable(40), ptr noundef) #6

; Function Attrs: mustprogress noinline nounwind optnone sspstrong uwtable
define linkonce_odr void @_ZN3fit2okEv() #2 comdat !dbg !12543 {
  ret void, !dbg !13175
}

; Function Attrs: noinline optnone sspstrong uwtable
define linkonce_odr noundef ptr @_ZN2zx6statusIJEECI2N3fit6resultIiJEEEENS2_7successIJEEE(ptr noundef nonnull returned align 4 dereferenceable(8) %0) unnamed_addr #4 comdat align 2 !dbg !13176 {
  %2 = alloca %"class.fit::success", align 1
  %3 = alloca ptr, align 8
  store ptr %0, ptr %3, align 8
  call void @llvm.dbg.declare(metadata ptr %3, metadata !13180, metadata !DIExpression()), !dbg !13181
  call void @llvm.dbg.declare(metadata ptr %2, metadata !13182, metadata !DIExpression()), !dbg !13181
  %4 = load ptr, ptr %3, align 8
  %5 = call noundef ptr @_ZN3fit6resultIiJEEC2ENS_7successIJEEE(ptr noundef nonnull align 4 dereferenceable(8) %4), !dbg !13183
  ret ptr %4, !dbg !13183
}

; Function Attrs: noinline nounwind optnone sspstrong uwtable
define linkonce_odr noundef ptr @_ZN4fidl10WireResultIN20fuchsia_hardware_pci6Device12MapInterruptEED2Ev(ptr noundef nonnull returned align 8 dereferenceable(96) %0) unnamed_addr #3 comdat align 2 !dbg !13184 {
  %2 = alloca ptr, align 8
  store ptr %0, ptr %2, align 8
  call void @llvm.dbg.declare(metadata ptr %2, metadata !13189, metadata !DIExpression()), !dbg !13191
  %3 = load ptr, ptr %2, align 8
  %4 = getelementptr inbounds %"class.fidl::WireResult.75", ptr %3, i32 0, i32 2, !dbg !13192
  %5 = call noundef ptr @_ZN4fidl12DecodedValueINS_12WireResponseIN20fuchsia_hardware_pci6Device12MapInterruptEEEED2Ev(ptr noundef nonnull align 8 dereferenceable(8) %4) #16, !dbg !13192
  ret ptr %3, !dbg !13194
}

; Function Attrs: noinline nounwind optnone sspstrong uwtable
define linkonce_odr noundef ptr @_ZN4fidl10WireResultIN20fuchsia_hardware_pci6Device16SetInterruptModeEED2Ev(ptr noundef nonnull returned align 8 dereferenceable(88) %0) unnamed_addr #3 comdat align 2 !dbg !13195 {
  %2 = alloca ptr, align 8
  store ptr %0, ptr %2, align 8
  call void @llvm.dbg.declare(metadata ptr %2, metadata !13200, metadata !DIExpression()), !dbg !13202
  %3 = load ptr, ptr %2, align 8
  %4 = getelementptr inbounds %"class.fidl::WireResult.56", ptr %3, i32 0, i32 3, !dbg !13203
  %5 = call noundef ptr @_ZN4fidl12DecodedValueINS_12WireResponseIN20fuchsia_hardware_pci6Device16SetInterruptModeEEEED2Ev(ptr noundef nonnull align 8 dereferenceable(8) %4) #16, !dbg !13203
  ret ptr %3, !dbg !13205
}

; Function Attrs: noinline nounwind optnone sspstrong uwtable
define linkonce_odr noundef ptr @_ZN4fidl10WireResultIN20fuchsia_hardware_pci6Device6GetBarEED2Ev(ptr noundef nonnull returned align 8 dereferenceable(56) %0) unnamed_addr #3 comdat align 2 !dbg !13206 {
  %2 = alloca ptr, align 8
  store ptr %0, ptr %2, align 8
  call void @llvm.dbg.declare(metadata ptr %2, metadata !13211, metadata !DIExpression()), !dbg !13213
  %3 = load ptr, ptr %2, align 8
  %4 = getelementptr inbounds %"class.fidl::WireResult", ptr %3, i32 0, i32 2, !dbg !13214
  %5 = call noundef ptr @_ZN4fidl12DecodedValueINS_12WireResponseIN20fuchsia_hardware_pci6Device6GetBarEEEED2Ev(ptr noundef nonnull align 8 dereferenceable(8) %4) #16, !dbg !13214
  %6 = getelementptr inbounds %"class.fidl::WireResult", ptr %3, i32 0, i32 1, !dbg !13214
  %7 = call noundef ptr @_ZN4fidl8internal18BoxedMessageBufferILm65536EED2Ev(ptr noundef nonnull align 8 dereferenceable(8) %6) #16, !dbg !13214
  ret ptr %3, !dbg !13216
}

; Function Attrs: mustprogress noinline optnone sspstrong uwtable
define void @_ZN10edu_device13QemuEduDevice16ComputeFactorialEjN3fit13callback_implILm16ELb0EFvN2zx6statusIJjEEEEEE(ptr noundef nonnull align 16 dereferenceable(224) %0, i32 noundef %1, ptr noundef %2) #0 align 2 !dbg !13217 {
  %4 = alloca ptr, align 8
  %5 = alloca i32, align 4
  %6 = alloca %"class.zx::status.97", align 4
  %7 = alloca %"class.fit::error", align 4
  %8 = alloca i32, align 4
  %9 = alloca %"class.edu_device::Status", align 4
  store ptr %0, ptr %4, align 8
  call void @llvm.dbg.declare(metadata ptr %4, metadata !13222, metadata !DIExpression()), !dbg !13223
  store i32 %1, ptr %5, align 4
  call void @llvm.dbg.declare(metadata ptr %5, metadata !13224, metadata !DIExpression()), !dbg !13225
  call void @llvm.dbg.declare(metadata ptr %2, metadata !13226, metadata !DIExpression()), !dbg !13227
  %10 = load ptr, ptr %4, align 8
  %11 = getelementptr inbounds %"class.edu_device::QemuEduDevice", ptr %10, i32 0, i32 7, !dbg !13228
  %12 = call noundef zeroext i1 @_ZNKSt3__223__optional_storage_baseIN3fit13callback_implILm16ELb0EFvN2zx6statusIJjEEEEEELb0EE9has_valueB7v160000Ev(ptr noundef nonnull align 16 dereferenceable(33) %11) #16, !dbg !13230
  br i1 %12, label %13, label %21, !dbg !13231

13:                                               ; preds = %3
  store i32 -22, ptr %8, align 4, !dbg !13232
  %14 = call noundef ptr @_ZN3fit5errorIiEC2IJiELb1EEEDpOT_(ptr noundef nonnull align 4 dereferenceable(4) %7, ptr noundef nonnull align 4 dereferenceable(4) %8), !dbg !13234
  %15 = getelementptr inbounds %"class.fit::error", ptr %7, i32 0, i32 0, !dbg !13234
  %16 = load i32, ptr %15, align 4, !dbg !13234
  %17 = call noundef ptr @_ZN2zx6statusIJjEEC2EN3fit5errorIiEE(ptr noundef nonnull align 4 dereferenceable(8) %6, i32 %16), !dbg !13234
  %18 = getelementptr inbounds %"class.zx::status.97", ptr %6, i32 0, i32 0, !dbg !13235
  %19 = getelementptr inbounds %"class.fit::result.98", ptr %18, i32 0, i32 0, !dbg !13235
  %20 = load i64, ptr %19, align 4, !dbg !13235
  call void @_ZN3fit13callback_implILm16ELb0EFvN2zx6statusIJjEEEEEclES3_(ptr noundef nonnull align 16 dereferenceable(32) %2, i64 %20), !dbg !13235
  br label %21, !dbg !13236

21:                                               ; preds = %13, %3
  call void @llvm.dbg.declare(metadata ptr %9, metadata !13237, metadata !DIExpression()), !dbg !13238
  %22 = call { i64, i64 } @_ZN10edu_device13QemuEduDevice14StatusRegisterEv(ptr noundef nonnull align 16 dereferenceable(224) %10), !dbg !13239
  %23 = getelementptr inbounds %"class.edu_device::Status", ptr %9, i32 0, i32 0, !dbg !13239
  %24 = getelementptr inbounds { i64, i64 }, ptr %23, i32 0, i32 0, !dbg !13239
  %25 = extractvalue { i64, i64 } %22, 0, !dbg !13239
  store i64 %25, ptr %24, align 4, !dbg !13239
  %26 = getelementptr inbounds { i64, i64 }, ptr %23, i32 0, i32 1, !dbg !13239
  %27 = extractvalue { i64, i64 } %22, 1, !dbg !13239
  store i64 %27, ptr %26, align 4, !dbg !13239
  %28 = call noundef nonnull align 4 dereferenceable(16) ptr @_ZN10edu_device6Status14set_irq_enableEj(ptr noundef nonnull align 4 dereferenceable(16) %9, i32 noundef 1), !dbg !13240
  %29 = getelementptr inbounds %"class.edu_device::QemuEduDevice", ptr %10, i32 0, i32 4, !dbg !13241
  %30 = call noundef nonnull align 8 dereferenceable(56) ptr @_ZNRSt3__28optionalIN3fdf10MmioBufferEEdeB7v160000Ev(ptr noundef nonnull align 8 dereferenceable(57) %29) #16, !dbg !13242
  %31 = call noundef nonnull align 4 dereferenceable(16) ptr @_ZN5hwreg12RegisterBaseIN10edu_device6StatusEjvE7WriteToIN3fdf10MmioBufferEEERS2_PT_(ptr noundef nonnull align 4 dereferenceable(16) %9, ptr noundef %30), !dbg !13243
  %32 = getelementptr inbounds %"class.edu_device::QemuEduDevice", ptr %10, i32 0, i32 4, !dbg !13244
  %33 = call noundef ptr @_ZNSt3__28optionalIN3fdf10MmioBufferEEptB7v160000Ev(ptr noundef nonnull align 8 dereferenceable(57) %32), !dbg !13244
  %34 = load i32, ptr %5, align 4, !dbg !13245
  call void @_ZNK3fdf10MmioBuffer7Write32Ejm(ptr noundef nonnull align 8 dereferenceable(56) %33, i32 noundef %34, i64 noundef 8), !dbg !13246
  %35 = getelementptr inbounds %"class.edu_device::QemuEduDevice", ptr %10, i32 0, i32 7, !dbg !13247
  %36 = call noundef nonnull align 16 dereferenceable(33) ptr @_ZNSt3__28optionalIN3fit13callback_implILm16ELb0EFvN2zx6statusIJjEEEEEEEaSB7v160000IS7_vEERS8_OT_(ptr noundef nonnull align 16 dereferenceable(33) %35, ptr noundef nonnull align 16 dereferenceable(32) %2), !dbg !13248
  ret void, !dbg !13249
}

; Function Attrs: mustprogress noinline nounwind optnone sspstrong uwtable
define linkonce_odr hidden noundef zeroext i1 @_ZNKSt3__223__optional_storage_baseIN3fit13callback_implILm16ELb0EFvN2zx6statusIJjEEEEEELb0EE9has_valueB7v160000Ev(ptr noundef nonnull align 16 dereferenceable(33) %0) #2 comdat align 2 !dbg !13250 {
  %2 = alloca ptr, align 8
  store ptr %0, ptr %2, align 8
  call void @llvm.dbg.declare(metadata ptr %2, metadata !13251, metadata !DIExpression()), !dbg !13253
  %3 = load ptr, ptr %2, align 8
  %4 = getelementptr inbounds %"struct.std::__2::__optional_destruct_base.16", ptr %3, i32 0, i32 1, !dbg !13254
  %5 = load i8, ptr %4, align 16, !dbg !13254
  %6 = trunc i8 %5 to i1, !dbg !13254
  ret i1 %6, !dbg !13255
}

; Function Attrs: mustprogress noinline optnone sspstrong uwtable
define linkonce_odr void @_ZN3fit13callback_implILm16ELb0EFvN2zx6statusIJjEEEEEclES3_(ptr noundef nonnull align 16 dereferenceable(32) %0, i64 %1) #0 comdat align 2 personality ptr @__gxx_personality_v0 !dbg !13256 {
  %3 = alloca %"class.zx::status.97", align 4
  %4 = alloca ptr, align 8
  %5 = alloca %"class.fit::callback_impl", align 16
  %6 = alloca %"class.zx::status.97", align 4
  %7 = alloca ptr, align 8
  %8 = alloca i32, align 4
  %9 = getelementptr inbounds %"class.zx::status.97", ptr %3, i32 0, i32 0
  %10 = getelementptr inbounds %"class.fit::result.98", ptr %9, i32 0, i32 0
  store i64 %1, ptr %10, align 4
  store ptr %0, ptr %4, align 8
  call void @llvm.dbg.declare(metadata ptr %4, metadata !13257, metadata !DIExpression()), !dbg !13258
  call void @llvm.dbg.declare(metadata ptr %3, metadata !13259, metadata !DIExpression()), !dbg !13260
  %11 = load ptr, ptr %4, align 8
  call void @llvm.dbg.declare(metadata ptr %5, metadata !13261, metadata !DIExpression()), !dbg !13264
  %12 = call noundef ptr @_ZN3fit13callback_implILm16ELb0EFvN2zx6statusIJjEEEEEC2EOS5_(ptr noundef nonnull align 16 dereferenceable(32) %5, ptr noundef nonnull align 16 dereferenceable(32) %11) #16, !dbg !13265
  call void @llvm.memcpy.p0.p0.i64(ptr align 4 %6, ptr align 4 %3, i64 8, i1 false), !dbg !13266
  %13 = getelementptr inbounds %"class.zx::status.97", ptr %6, i32 0, i32 0, !dbg !13267
  %14 = getelementptr inbounds %"class.fit::result.98", ptr %13, i32 0, i32 0, !dbg !13267
  %15 = load i64, ptr %14, align 4, !dbg !13267
  invoke void @_ZNK3fit8internal13function_baseILm16ELb0EFvN2zx6statusIJjEEEEE6invokeES4_(ptr noundef nonnull align 16 dereferenceable(24) %5, i64 %15)
          to label %16 unwind label %18, !dbg !13267

16:                                               ; preds = %2
  %17 = call noundef ptr @_ZN3fit13callback_implILm16ELb0EFvN2zx6statusIJjEEEEED2Ev(ptr noundef nonnull align 16 dereferenceable(32) %5) #16, !dbg !13268
  ret void, !dbg !13268

18:                                               ; preds = %2
  %19 = landingpad { ptr, i32 }
          cleanup, !dbg !13268
  %20 = extractvalue { ptr, i32 } %19, 0, !dbg !13268
  store ptr %20, ptr %7, align 8, !dbg !13268
  %21 = extractvalue { ptr, i32 } %19, 1, !dbg !13268
  store i32 %21, ptr %8, align 4, !dbg !13268
  %22 = call noundef ptr @_ZN3fit13callback_implILm16ELb0EFvN2zx6statusIJjEEEEED2Ev(ptr noundef nonnull align 16 dereferenceable(32) %5) #16, !dbg !13268
  br label %23, !dbg !13268

23:                                               ; preds = %18
  %24 = load ptr, ptr %7, align 8, !dbg !13268
  %25 = load i32, ptr %8, align 4, !dbg !13268
  %26 = insertvalue { ptr, i32 } undef, ptr %24, 0, !dbg !13268
  %27 = insertvalue { ptr, i32 } %26, i32 %25, 1, !dbg !13268
  resume { ptr, i32 } %27, !dbg !13268
}

; Function Attrs: noinline optnone sspstrong uwtable
define linkonce_odr noundef ptr @_ZN2zx6statusIJjEEC2EN3fit5errorIiEE(ptr noundef nonnull returned align 4 dereferenceable(8) %0, i32 %1) unnamed_addr #4 comdat align 2 !dbg !13269 {
  %3 = alloca %"class.fit::error", align 4
  %4 = alloca ptr, align 8
  %5 = alloca %"class.fit::error", align 4
  %6 = getelementptr inbounds %"class.fit::error", ptr %3, i32 0, i32 0
  store i32 %1, ptr %6, align 4
  store ptr %0, ptr %4, align 8
  call void @llvm.dbg.declare(metadata ptr %4, metadata !13270, metadata !DIExpression()), !dbg !13272
  call void @llvm.dbg.declare(metadata ptr %3, metadata !13273, metadata !DIExpression()), !dbg !13274
  %7 = load ptr, ptr %4, align 8
  call void @llvm.memcpy.p0.p0.i64(ptr align 4 %5, ptr align 4 %3, i64 4, i1 false), !dbg !13275
  %8 = getelementptr inbounds %"class.fit::error", ptr %5, i32 0, i32 0, !dbg !13276
  %9 = load i32, ptr %8, align 4, !dbg !13276
  %10 = call noundef ptr @_ZN3fit6resultIiJjEEC2IiLb1EEENS_5errorIT_EE(ptr noundef nonnull align 4 dereferenceable(8) %7, i32 %9), !dbg !13276
  %11 = call noundef nonnull align 4 dereferenceable(4) ptr @_ZNR3fit6resultIiJjEE11error_valueEv(ptr noundef nonnull align 4 dereferenceable(8) %7), !dbg !13277
  %12 = load i32, ptr %11, align 4, !dbg !13277
  %13 = icmp eq i32 %12, 0, !dbg !13280
  br i1 %13, label %14, label %15, !dbg !13281

14:                                               ; preds = %2
  call void @abort() #18, !dbg !13282
  unreachable, !dbg !13282

15:                                               ; preds = %2
  ret ptr %7, !dbg !13284
}

; Function Attrs: mustprogress noinline optnone sspstrong uwtable
define linkonce_odr { i64, i64 } @_ZN10edu_device13QemuEduDevice14StatusRegisterEv(ptr noundef nonnull align 16 dereferenceable(224) %0) #0 comdat align 2 !dbg !13285 {
  %2 = alloca %"class.edu_device::Status", align 4
  %3 = alloca ptr, align 8
  %4 = alloca %"class.hwreg::RegisterAddr", align 4
  store ptr %0, ptr %3, align 8
  call void @llvm.dbg.declare(metadata ptr %3, metadata !13289, metadata !DIExpression()), !dbg !13290
  %5 = load ptr, ptr %3, align 8
  %6 = call i32 @_ZN10edu_device6Status3GetEv(), !dbg !13291
  %7 = getelementptr inbounds %"class.hwreg::RegisterAddr", ptr %4, i32 0, i32 0, !dbg !13291
  store i32 %6, ptr %7, align 4, !dbg !13291
  %8 = getelementptr inbounds %"class.edu_device::QemuEduDevice", ptr %5, i32 0, i32 4, !dbg !13292
  %9 = call noundef nonnull align 8 dereferenceable(56) ptr @_ZNRSt3__28optionalIN3fdf10MmioBufferEEdeB7v160000Ev(ptr noundef nonnull align 8 dereferenceable(57) %8) #16, !dbg !13293
  %10 = call { i64, i64 } @_ZN5hwreg12RegisterAddrIN10edu_device6StatusEE8ReadFromIN3fdf10MmioBufferEEES2_PT_(ptr noundef nonnull align 4 dereferenceable(4) %4, ptr noundef %9), !dbg !13294
  %11 = getelementptr inbounds %"class.edu_device::Status", ptr %2, i32 0, i32 0, !dbg !13294
  %12 = getelementptr inbounds { i64, i64 }, ptr %11, i32 0, i32 0, !dbg !13294
  %13 = extractvalue { i64, i64 } %10, 0, !dbg !13294
  store i64 %13, ptr %12, align 4, !dbg !13294
  %14 = getelementptr inbounds { i64, i64 }, ptr %11, i32 0, i32 1, !dbg !13294
  %15 = extractvalue { i64, i64 } %10, 1, !dbg !13294
  store i64 %15, ptr %14, align 4, !dbg !13294
  %16 = getelementptr inbounds %"class.edu_device::Status", ptr %2, i32 0, i32 0, !dbg !13295
  %17 = load { i64, i64 }, ptr %16, align 4, !dbg !13295
  ret { i64, i64 } %17, !dbg !13295
}

; Function Attrs: mustprogress noinline optnone sspstrong uwtable
define linkonce_odr noundef nonnull align 4 dereferenceable(16) ptr @_ZN10edu_device6Status14set_irq_enableEj(ptr noundef nonnull align 4 dereferenceable(16) %0, i32 noundef %1) #0 comdat align 2 !dbg !13296 {
  %3 = alloca ptr, align 8
  %4 = alloca i32, align 4
  %5 = alloca %"class.hwreg::BitfieldRef", align 8
  store ptr %0, ptr %3, align 8
  call void @llvm.dbg.declare(metadata ptr %3, metadata !13297, metadata !DIExpression()), !dbg !13299
  store i32 %1, ptr %4, align 4
  call void @llvm.dbg.declare(metadata ptr %4, metadata !13300, metadata !DIExpression()), !dbg !13301
  %6 = load ptr, ptr %3, align 8
  %7 = call noundef ptr @_ZN5hwreg12RegisterBaseIN10edu_device6StatusEjvE13reg_value_ptrEv(ptr noundef nonnull align 4 dereferenceable(16) %6), !dbg !13301
  %8 = call noundef ptr @_ZN5hwreg11BitfieldRefIjEC2EPjjj(ptr noundef nonnull align 8 dereferenceable(16) %5, ptr noundef %7, i32 noundef 7, i32 noundef 7), !dbg !13301
  %9 = load i32, ptr %4, align 4, !dbg !13301
  call void @_ZN5hwreg11BitfieldRefIjE3setEj(ptr noundef nonnull align 8 dereferenceable(16) %5, i32 noundef %9), !dbg !13301
  ret ptr %6, !dbg !13301
}

; Function Attrs: mustprogress noinline optnone sspstrong uwtable
define linkonce_odr noundef nonnull align 4 dereferenceable(16) ptr @_ZN5hwreg12RegisterBaseIN10edu_device6StatusEjvE7WriteToIN3fdf10MmioBufferEEERS2_PT_(ptr noundef nonnull align 4 dereferenceable(16) %0, ptr noundef %1) #0 comdat align 2 !dbg !13302 {
  %3 = alloca ptr, align 8
  %4 = alloca ptr, align 8
  %5 = alloca %class.anon.160, align 8
  store ptr %0, ptr %3, align 8
  call void @llvm.dbg.declare(metadata ptr %3, metadata !13307, metadata !DIExpression()), !dbg !13309
  store ptr %1, ptr %4, align 8
  call void @llvm.dbg.declare(metadata ptr %4, metadata !13310, metadata !DIExpression()), !dbg !13311
  %6 = load ptr, ptr %3, align 8
  %7 = getelementptr inbounds %class.anon.160, ptr %5, i32 0, i32 0, !dbg !13312
  store ptr %6, ptr %7, align 8, !dbg !13312
  %8 = load ptr, ptr %4, align 8, !dbg !13313
  call void @_ZN5hwreg8internal5VisitIZNS_12RegisterBaseIN10edu_device6StatusEjvE7WriteToIN3fdf10MmioBufferEEERS4_PT_EUlOSA_E_RS8_JEEEvSC_OT0_DpOT1_(ptr noundef nonnull align 8 dereferenceable(8) %5, ptr noundef nonnull align 8 dereferenceable(56) %8), !dbg !13314
  ret ptr %6, !dbg !13315
}

; Function Attrs: mustprogress noinline nounwind optnone sspstrong uwtable
define linkonce_odr hidden noundef nonnull align 8 dereferenceable(56) ptr @_ZNRSt3__28optionalIN3fdf10MmioBufferEEdeB7v160000Ev(ptr noundef nonnull align 8 dereferenceable(57) %0) #2 comdat align 2 !dbg !13316 {
  %2 = alloca ptr, align 8
  store ptr %0, ptr %2, align 8
  call void @llvm.dbg.declare(metadata ptr %2, metadata !13317, metadata !DIExpression()), !dbg !13318
  %3 = load ptr, ptr %2, align 8
  %4 = call noundef nonnull align 8 dereferenceable(56) ptr @_ZNRSt3__223__optional_storage_baseIN3fdf10MmioBufferELb0EE5__getB7v160000Ev(ptr noundef nonnull align 8 dereferenceable(57) %3) #16, !dbg !13319
  ret ptr %4, !dbg !13320
}

; Function Attrs: mustprogress noinline nounwind optnone sspstrong uwtable
define linkonce_odr hidden noundef ptr @_ZNSt3__28optionalIN3fdf10MmioBufferEEptB7v160000Ev(ptr noundef nonnull align 8 dereferenceable(57) %0) #2 comdat align 2 !dbg !13321 {
  %2 = alloca ptr, align 8
  store ptr %0, ptr %2, align 8
  call void @llvm.dbg.declare(metadata ptr %2, metadata !13322, metadata !DIExpression()), !dbg !13323
  %3 = load ptr, ptr %2, align 8
  %4 = call noundef nonnull align 8 dereferenceable(56) ptr @_ZNRSt3__223__optional_storage_baseIN3fdf10MmioBufferELb0EE5__getB7v160000Ev(ptr noundef nonnull align 8 dereferenceable(57) %3) #16, !dbg !13324
  ret ptr %4, !dbg !13325
}

; Function Attrs: mustprogress noinline optnone sspstrong uwtable
define linkonce_odr void @_ZNK3fdf10MmioBuffer7Write32Ejm(ptr noundef nonnull align 8 dereferenceable(56) %0, i32 noundef %1, i64 noundef %2) #0 comdat align 2 !dbg !13326 {
  %4 = alloca ptr, align 8
  %5 = alloca i32, align 4
  %6 = alloca i64, align 8
  store ptr %0, ptr %4, align 8
  call void @llvm.dbg.declare(metadata ptr %4, metadata !13327, metadata !DIExpression()), !dbg !13328
  store i32 %1, ptr %5, align 4
  call void @llvm.dbg.declare(metadata ptr %5, metadata !13329, metadata !DIExpression()), !dbg !13330
  store i64 %2, ptr %6, align 8
  call void @llvm.dbg.declare(metadata ptr %6, metadata !13331, metadata !DIExpression()), !dbg !13332
  %7 = load ptr, ptr %4, align 8
  %8 = getelementptr inbounds %"class.fdf::MmioBuffer", ptr %7, i32 0, i32 2, !dbg !13333
  %9 = load ptr, ptr %8, align 8, !dbg !13333
  %10 = getelementptr inbounds %"struct.fdf::internal::MmioBufferOps", ptr %9, i32 0, i32 7, !dbg !13334
  %11 = load ptr, ptr %10, align 8, !dbg !13334
  %12 = getelementptr inbounds %"class.fdf::MmioBuffer", ptr %7, i32 0, i32 3, !dbg !13335
  %13 = load ptr, ptr %12, align 8, !dbg !13335
  %14 = getelementptr inbounds %"class.fdf::MmioBuffer", ptr %7, i32 0, i32 1, !dbg !13336
  %15 = load i32, ptr %5, align 4, !dbg !13337
  %16 = load i64, ptr %6, align 8, !dbg !13338
  call void %11(ptr noundef %13, ptr noundef nonnull align 8 dereferenceable(32) %14, i32 noundef %15, i64 noundef %16), !dbg !13333
  ret void, !dbg !13339
}

; Function Attrs: mustprogress noinline optnone sspstrong uwtable
define linkonce_odr noundef nonnull align 16 dereferenceable(33) ptr @_ZNSt3__28optionalIN3fit13callback_implILm16ELb0EFvN2zx6statusIJjEEEEEEEaSB7v160000IS7_vEERS8_OT_(ptr noundef nonnull align 16 dereferenceable(33) %0, ptr noundef nonnull align 16 dereferenceable(32) %1) #0 comdat align 2 !dbg !13340 {
  %3 = alloca ptr, align 8
  %4 = alloca ptr, align 8
  store ptr %0, ptr %3, align 8
  call void @llvm.dbg.declare(metadata ptr %3, metadata !13346, metadata !DIExpression()), !dbg !13348
  store ptr %1, ptr %4, align 8
  call void @llvm.dbg.declare(metadata ptr %4, metadata !13349, metadata !DIExpression()), !dbg !13350
  %5 = load ptr, ptr %3, align 8
  %6 = call noundef zeroext i1 @_ZNKSt3__223__optional_storage_baseIN3fit13callback_implILm16ELb0EFvN2zx6statusIJjEEEEEELb0EE9has_valueB7v160000Ev(ptr noundef nonnull align 16 dereferenceable(33) %5) #16, !dbg !13351
  br i1 %6, label %7, label %11, !dbg !13353

7:                                                ; preds = %2
  %8 = load ptr, ptr %4, align 8, !dbg !13354
  %9 = call noundef nonnull align 16 dereferenceable(32) ptr @_ZNRSt3__223__optional_storage_baseIN3fit13callback_implILm16ELb0EFvN2zx6statusIJjEEEEEELb0EE5__getB7v160000Ev(ptr noundef nonnull align 16 dereferenceable(33) %5) #16, !dbg !13355
  %10 = call noundef nonnull align 16 dereferenceable(32) ptr @_ZN3fit13callback_implILm16ELb0EFvN2zx6statusIJjEEEEEaSEOS5_(ptr noundef nonnull align 16 dereferenceable(32) %9, ptr noundef nonnull align 16 dereferenceable(32) %8) #16, !dbg !13356
  br label %13, !dbg !13357

11:                                               ; preds = %2
  %12 = load ptr, ptr %4, align 8, !dbg !13358
  call void @_ZNSt3__223__optional_storage_baseIN3fit13callback_implILm16ELb0EFvN2zx6statusIJjEEEEEELb0EE11__constructB7v160000IJS7_EEEvDpOT_(ptr noundef nonnull align 16 dereferenceable(33) %5, ptr noundef nonnull align 16 dereferenceable(32) %12), !dbg !13359
  br label %13

13:                                               ; preds = %11, %7
  ret ptr %5, !dbg !13360
}

; Function Attrs: mustprogress noinline optnone sspstrong uwtable
define void @_ZN10edu_device13QemuEduDevice9HandleIrqEP16async_dispatcherPN5async7IrqBaseEiPK19zx_packet_interrupt(ptr noundef nonnull align 16 dereferenceable(224) %0, ptr noundef %1, ptr noundef %2, i32 noundef %3, ptr noundef %4) #0 align 2 personality ptr @__gxx_personality_v0 !dbg !13361 {
  %6 = alloca ptr, align 8
  %7 = alloca ptr, align 8
  %8 = alloca ptr, align 8
  %9 = alloca i32, align 4
  %10 = alloca ptr, align 8
  %11 = alloca %"class.fit::callback_impl", align 16
  %12 = alloca %"struct.std::__2::nullopt_t", align 1
  %13 = alloca ptr, align 8
  %14 = alloca i32, align 4
  %15 = alloca %"class.zx::status.97", align 4
  %16 = alloca %"class.fit::error", align 4
  %17 = alloca i32, align 4
  %18 = alloca i32, align 4
  %19 = alloca %"class.fidl::WireResult.101", align 8
  %20 = alloca %"struct.fidl::internal::SyncEndpointManagedVeneer", align 8
  %21 = alloca %"class.zx::status.97", align 4
  %22 = alloca %"class.fit::error", align 4
  %23 = alloca i32, align 4
  %24 = alloca i32, align 4
  %25 = alloca %"class.zx::status.97", align 4
  %26 = alloca %"class.fit::success.106", align 4
  store ptr %0, ptr %6, align 8
  call void @llvm.dbg.declare(metadata ptr %6, metadata !13376, metadata !DIExpression()), !dbg !13377
  store ptr %1, ptr %7, align 8
  call void @llvm.dbg.declare(metadata ptr %7, metadata !13378, metadata !DIExpression()), !dbg !13379
  store ptr %2, ptr %8, align 8
  call void @llvm.dbg.declare(metadata ptr %8, metadata !13380, metadata !DIExpression()), !dbg !13381
  store i32 %3, ptr %9, align 4
  call void @llvm.dbg.declare(metadata ptr %9, metadata !13382, metadata !DIExpression()), !dbg !13383
  store ptr %4, ptr %10, align 8
  call void @llvm.dbg.declare(metadata ptr %10, metadata !13384, metadata !DIExpression()), !dbg !13385
  %27 = load ptr, ptr %6, align 8
  %28 = getelementptr inbounds %"class.edu_device::QemuEduDevice", ptr %27, i32 0, i32 5, !dbg !13386
  %29 = call noundef i32 @_ZNK2zx9interrupt3ackEv(ptr noundef nonnull align 4 dereferenceable(4) %28), !dbg !13387
  %30 = getelementptr inbounds %"class.edu_device::QemuEduDevice", ptr %27, i32 0, i32 7, !dbg !13388
  %31 = call noundef zeroext i1 @_ZNKSt3__223__optional_storage_baseIN3fit13callback_implILm16ELb0EFvN2zx6statusIJjEEEEEELb0EE9has_valueB7v160000Ev(ptr noundef nonnull align 16 dereferenceable(33) %30) #16, !dbg !13390
  br i1 %31, label %34, label %32, !dbg !13391

32:                                               ; preds = %5
  %33 = getelementptr inbounds %"class.edu_device::QemuEduDevice", ptr %27, i32 0, i32 1, !dbg !13392
  call void (ptr, i8, ptr, ptr, i32, ptr, ...) @_ZN6driver6Logger4logfEaPKcS2_iS2_z(ptr noundef nonnull align 8 dereferenceable(36) %33, i8 noundef signext 80, ptr noundef null, ptr noundef @.str, i32 noundef 98, ptr noundef @.str.7), !dbg !13392
  br label %156, !dbg !13394

34:                                               ; preds = %5
  call void @llvm.dbg.declare(metadata ptr %11, metadata !13395, metadata !DIExpression()), !dbg !13396
  %35 = getelementptr inbounds %"class.edu_device::QemuEduDevice", ptr %27, i32 0, i32 7, !dbg !13397
  %36 = call noundef nonnull align 16 dereferenceable(32) ptr @_ZNRSt3__28optionalIN3fit13callback_implILm16ELb0EFvN2zx6statusIJjEEEEEEEdeB7v160000Ev(ptr noundef nonnull align 16 dereferenceable(33) %35) #16, !dbg !13398
  %37 = call noundef ptr @_ZN3fit13callback_implILm16ELb0EFvN2zx6statusIJjEEEEEC2EOS5_(ptr noundef nonnull align 16 dereferenceable(32) %11, ptr noundef nonnull align 16 dereferenceable(32) %36) #16, !dbg !13399
  %38 = getelementptr inbounds %"class.edu_device::QemuEduDevice", ptr %27, i32 0, i32 7, !dbg !13400
  %39 = call noundef nonnull align 16 dereferenceable(33) ptr @_ZNSt3__28optionalIN3fit13callback_implILm16ELb0EFvN2zx6statusIJjEEEEEEEaSB7v160000ENS_9nullopt_tE(ptr noundef nonnull align 16 dereferenceable(33) %38) #16, !dbg !13401
  %40 = load i32, ptr %9, align 4, !dbg !13402
  %41 = icmp ne i32 %40, 0, !dbg !13404
  br i1 %41, label %42, label %65, !dbg !13405

42:                                               ; preds = %34
  br label %43, !dbg !13406

43:                                               ; preds = %42
  %44 = getelementptr inbounds %"class.edu_device::QemuEduDevice", ptr %27, i32 0, i32 1, !dbg !13408
  %45 = load i32, ptr %9, align 4, !dbg !13408
  %46 = invoke ptr @zx_status_get_string(i32 noundef %45)
          to label %47 unwind label %61, !dbg !13408

47:                                               ; preds = %43
  invoke void @_ZN15driver_internalL7fx_slogIPKcJS2_S2_EEEvRN6driver6LoggerEaS2_iT_DpT0_(ptr noundef nonnull align 8 dereferenceable(36) %44, i8 noundef signext 80, ptr noundef @.str, i32 noundef 104, ptr noundef @.str.8, ptr noundef @.str.2, ptr noundef %46)
          to label %48 unwind label %61, !dbg !13408

48:                                               ; preds = %47
  br label %49, !dbg !13408

49:                                               ; preds = %48
  br label %50, !dbg !13408

50:                                               ; preds = %49
  %51 = invoke noundef ptr @_ZN3fit5errorIiEC2IJRiELb1EEEDpOT_(ptr noundef nonnull align 4 dereferenceable(4) %16, ptr noundef nonnull align 4 dereferenceable(4) %9)
          to label %52 unwind label %61, !dbg !13410

52:                                               ; preds = %50
  %53 = getelementptr inbounds %"class.fit::error", ptr %16, i32 0, i32 0, !dbg !13410
  %54 = load i32, ptr %53, align 4, !dbg !13410
  %55 = invoke noundef ptr @_ZN2zx6statusIJjEEC2EN3fit5errorIiEE(ptr noundef nonnull align 4 dereferenceable(8) %15, i32 %54)
          to label %56 unwind label %61, !dbg !13410

56:                                               ; preds = %52
  %57 = getelementptr inbounds %"class.zx::status.97", ptr %15, i32 0, i32 0, !dbg !13411
  %58 = getelementptr inbounds %"class.fit::result.98", ptr %57, i32 0, i32 0, !dbg !13411
  %59 = load i64, ptr %58, align 4, !dbg !13411
  invoke void @_ZN3fit13callback_implILm16ELb0EFvN2zx6statusIJjEEEEEclES3_(ptr noundef nonnull align 16 dereferenceable(32) %11, i64 %59)
          to label %60 unwind label %61, !dbg !13411

60:                                               ; preds = %56
  store i32 1, ptr %17, align 4
  br label %153, !dbg !13412

61:                                               ; preds = %85, %78, %75, %73, %70, %68, %65, %56, %52, %50, %47, %43
  %62 = landingpad { ptr, i32 }
          cleanup, !dbg !13413
  %63 = extractvalue { ptr, i32 } %62, 0, !dbg !13413
  store ptr %63, ptr %13, align 8, !dbg !13413
  %64 = extractvalue { ptr, i32 } %62, 1, !dbg !13413
  store i32 %64, ptr %14, align 4, !dbg !13413
  br label %157, !dbg !13413

65:                                               ; preds = %34
  call void @llvm.dbg.declare(metadata ptr %18, metadata !13414, metadata !DIExpression()), !dbg !13415
  %66 = getelementptr inbounds %"class.edu_device::QemuEduDevice", ptr %27, i32 0, i32 4, !dbg !13416
  %67 = invoke noundef ptr @_ZNSt3__28optionalIN3fdf10MmioBufferEEptB7v160000Ev(ptr noundef nonnull align 8 dereferenceable(57) %66)
          to label %68 unwind label %61, !dbg !13416

68:                                               ; preds = %65
  %69 = invoke noundef i32 @_ZNK3fdf10MmioBuffer6Read32Em(ptr noundef nonnull align 8 dereferenceable(56) %67, i64 noundef 36)
          to label %70 unwind label %61, !dbg !13417

70:                                               ; preds = %68
  store i32 %69, ptr %18, align 4, !dbg !13415
  %71 = getelementptr inbounds %"class.edu_device::QemuEduDevice", ptr %27, i32 0, i32 4, !dbg !13418
  %72 = invoke noundef ptr @_ZNSt3__28optionalIN3fdf10MmioBufferEEptB7v160000Ev(ptr noundef nonnull align 8 dereferenceable(57) %71)
          to label %73 unwind label %61, !dbg !13418

73:                                               ; preds = %70
  %74 = load i32, ptr %18, align 4, !dbg !13419
  invoke void @_ZNK3fdf10MmioBuffer7Write32Ejm(ptr noundef nonnull align 8 dereferenceable(56) %72, i32 noundef %74, i64 noundef 100)
          to label %75 unwind label %61, !dbg !13420

75:                                               ; preds = %73
  call void @llvm.dbg.declare(metadata ptr %19, metadata !13421, metadata !DIExpression()), !dbg !13422
  %76 = getelementptr inbounds %"class.edu_device::QemuEduDevice", ptr %27, i32 0, i32 2, !dbg !13423
  %77 = invoke { ptr, i32 } @_ZNK4fidl14WireSyncClientIN20fuchsia_hardware_pci6DeviceEEptEv(ptr noundef nonnull align 4 dereferenceable(4) %76)
          to label %78 unwind label %61, !dbg !13423

78:                                               ; preds = %75
  %79 = getelementptr inbounds %"struct.fidl::internal::SyncEndpointManagedVeneer", ptr %20, i32 0, i32 0, !dbg !13423
  %80 = getelementptr inbounds { ptr, i32 }, ptr %79, i32 0, i32 0, !dbg !13423
  %81 = extractvalue { ptr, i32 } %77, 0, !dbg !13423
  store ptr %81, ptr %80, align 8, !dbg !13423
  %82 = getelementptr inbounds { ptr, i32 }, ptr %79, i32 0, i32 1, !dbg !13423
  %83 = extractvalue { ptr, i32 } %77, 1, !dbg !13423
  store i32 %83, ptr %82, align 8, !dbg !13423
  %84 = invoke noundef ptr @_ZNO4fidl8internal25SyncEndpointManagedVeneerINS0_18WireSyncClientImplIN20fuchsia_hardware_pci6DeviceEEEEptEv(ptr noundef nonnull align 8 dereferenceable(16) %20)
          to label %85 unwind label %61, !dbg !13423

85:                                               ; preds = %78
  invoke void @_ZN4fidl8internal18WireSyncClientImplIN20fuchsia_hardware_pci6DeviceEE12AckInterruptEv(ptr sret(%"class.fidl::WireResult.101") align 8 %19, ptr noundef nonnull align 8 dereferenceable(16) %84)
          to label %86 unwind label %61, !dbg !13424

86:                                               ; preds = %85
  %87 = invoke noundef zeroext i1 @_ZNK4fidl6Status2okEv(ptr noundef nonnull align 8 dereferenceable(16) %19)
          to label %88 unwind label %123, !dbg !13425

88:                                               ; preds = %86
  br i1 %87, label %89, label %94, !dbg !13427

89:                                               ; preds = %88
  %90 = invoke noundef ptr @_ZN4fidl14BaseWireResultIN20fuchsia_hardware_pci6Device12AckInterruptEvEptEv(ptr noundef nonnull align 8 dereferenceable(28) %19)
          to label %91 unwind label %123, !dbg !13428

91:                                               ; preds = %89
  %92 = invoke noundef zeroext i1 @_ZNK3fit6resultIiJEE8is_errorEv(ptr noundef nonnull align 4 dereferenceable(8) %90)
          to label %93 unwind label %123, !dbg !13429

93:                                               ; preds = %91
  br i1 %92, label %94, label %128, !dbg !13430

94:                                               ; preds = %93, %88
  br label %95, !dbg !13431

95:                                               ; preds = %94
  %96 = getelementptr inbounds %"class.edu_device::QemuEduDevice", ptr %27, i32 0, i32 1, !dbg !13433
  %97 = invoke noundef zeroext i1 @_ZNK4fidl6Status2okEv(ptr noundef nonnull align 8 dereferenceable(16) %19)
          to label %98 unwind label %123, !dbg !13433

98:                                               ; preds = %95
  br i1 %97, label %99, label %105, !dbg !13433

99:                                               ; preds = %98
  %100 = invoke noundef ptr @_ZN4fidl14BaseWireResultIN20fuchsia_hardware_pci6Device12AckInterruptEvEptEv(ptr noundef nonnull align 8 dereferenceable(28) %19)
          to label %101 unwind label %123, !dbg !13433

101:                                              ; preds = %99
  %102 = invoke noundef nonnull align 4 dereferenceable(4) ptr @_ZNR3fit6resultIiJEE11error_valueEv(ptr noundef nonnull align 4 dereferenceable(8) %100)
          to label %103 unwind label %123, !dbg !13433

103:                                              ; preds = %101
  %104 = load i32, ptr %102, align 4, !dbg !13433
  br label %108, !dbg !13433

105:                                              ; preds = %98
  %106 = invoke noundef i32 @_ZNK4fidl6Status6statusEv(ptr noundef nonnull align 8 dereferenceable(16) %19)
          to label %107 unwind label %123, !dbg !13433

107:                                              ; preds = %105
  br label %108, !dbg !13433

108:                                              ; preds = %107, %103
  %109 = phi i32 [ %104, %103 ], [ %106, %107 ], !dbg !13433
  invoke void @_ZN15driver_internalL7fx_slogIPKcJS2_iEEEvRN6driver6LoggerEaS2_iT_DpT0_(ptr noundef nonnull align 8 dereferenceable(36) %96, i8 noundef signext 80, ptr noundef @.str, i32 noundef 117, ptr noundef @.str.9, ptr noundef @.str.2, i32 noundef %109)
          to label %110 unwind label %123, !dbg !13433

110:                                              ; preds = %108
  br label %111, !dbg !13433

111:                                              ; preds = %110
  br label %112, !dbg !13433

112:                                              ; preds = %111
  store i32 -40, ptr %23, align 4, !dbg !13435
  %113 = invoke noundef ptr @_ZN3fit5errorIiEC2IJiELb1EEEDpOT_(ptr noundef nonnull align 4 dereferenceable(4) %22, ptr noundef nonnull align 4 dereferenceable(4) %23)
          to label %114 unwind label %123, !dbg !13436

114:                                              ; preds = %112
  %115 = getelementptr inbounds %"class.fit::error", ptr %22, i32 0, i32 0, !dbg !13436
  %116 = load i32, ptr %115, align 4, !dbg !13436
  %117 = invoke noundef ptr @_ZN2zx6statusIJjEEC2EN3fit5errorIiEE(ptr noundef nonnull align 4 dereferenceable(8) %21, i32 %116)
          to label %118 unwind label %123, !dbg !13436

118:                                              ; preds = %114
  %119 = getelementptr inbounds %"class.zx::status.97", ptr %21, i32 0, i32 0, !dbg !13437
  %120 = getelementptr inbounds %"class.fit::result.98", ptr %119, i32 0, i32 0, !dbg !13437
  %121 = load i64, ptr %120, align 4, !dbg !13437
  invoke void @_ZN3fit13callback_implILm16ELb0EFvN2zx6statusIJjEEEEEclES3_(ptr noundef nonnull align 16 dereferenceable(32) %11, i64 %121)
          to label %122 unwind label %123, !dbg !13437

122:                                              ; preds = %118
  store i32 1, ptr %17, align 4
  br label %151, !dbg !13438

123:                                              ; preds = %146, %141, %139, %134, %131, %128, %118, %114, %112, %108, %105, %101, %99, %95, %91, %89, %86
  %124 = landingpad { ptr, i32 }
          cleanup, !dbg !13439
  %125 = extractvalue { ptr, i32 } %124, 0, !dbg !13439
  store ptr %125, ptr %13, align 8, !dbg !13439
  %126 = extractvalue { ptr, i32 } %124, 1, !dbg !13439
  store i32 %126, ptr %14, align 4, !dbg !13439
  %127 = call noundef ptr @_ZN4fidl10WireResultIN20fuchsia_hardware_pci6Device12AckInterruptEED2Ev(ptr noundef nonnull align 8 dereferenceable(88) %19) #16, !dbg !13440
  br label %157, !dbg !13440

128:                                              ; preds = %93
  call void @llvm.dbg.declare(metadata ptr %24, metadata !13441, metadata !DIExpression()), !dbg !13442
  %129 = getelementptr inbounds %"class.edu_device::QemuEduDevice", ptr %27, i32 0, i32 4, !dbg !13443
  %130 = invoke noundef ptr @_ZNSt3__28optionalIN3fdf10MmioBufferEEptB7v160000Ev(ptr noundef nonnull align 8 dereferenceable(57) %129)
          to label %131 unwind label %123, !dbg !13443

131:                                              ; preds = %128
  %132 = invoke noundef i32 @_ZNK3fdf10MmioBuffer6Read32Em(ptr noundef nonnull align 8 dereferenceable(56) %130, i64 noundef 8)
          to label %133 unwind label %123, !dbg !13444

133:                                              ; preds = %131
  store i32 %132, ptr %24, align 4, !dbg !13442
  br label %134, !dbg !13445

134:                                              ; preds = %133
  %135 = getelementptr inbounds %"class.edu_device::QemuEduDevice", ptr %27, i32 0, i32 1, !dbg !13446
  %136 = load i32, ptr %24, align 4, !dbg !13446
  invoke void @_ZN15driver_internalL7fx_slogIPKcJS2_jEEEvRN6driver6LoggerEaS2_iT_DpT0_(ptr noundef nonnull align 8 dereferenceable(36) %135, i8 noundef signext 48, ptr noundef @.str, i32 noundef 124, ptr noundef @.str.10, ptr noundef @.str.11, i32 noundef %136)
          to label %137 unwind label %123, !dbg !13446

137:                                              ; preds = %134
  br label %138, !dbg !13446

138:                                              ; preds = %137
  br label %139, !dbg !13446

139:                                              ; preds = %138
  %140 = invoke i32 @_ZN3fit2okIRjEENS_7successIJNSt3__25decayIT_E4typeEEEEOS5_(ptr noundef nonnull align 4 dereferenceable(4) %24)
          to label %141 unwind label %123, !dbg !13448

141:                                              ; preds = %139
  %142 = getelementptr inbounds %"class.fit::success.106", ptr %26, i32 0, i32 0, !dbg !13448
  store i32 %140, ptr %142, align 4, !dbg !13448
  %143 = getelementptr inbounds %"class.fit::success.106", ptr %26, i32 0, i32 0, !dbg !13448
  %144 = load i32, ptr %143, align 4, !dbg !13448
  %145 = invoke noundef ptr @_ZN2zx6statusIJjEECI2N3fit6resultIiJjEEEIjLb1EEENS2_7successIJT_EEE(ptr noundef nonnull align 4 dereferenceable(8) %25, i32 %144)
          to label %146 unwind label %123, !dbg !13448

146:                                              ; preds = %141
  %147 = getelementptr inbounds %"class.zx::status.97", ptr %25, i32 0, i32 0, !dbg !13449
  %148 = getelementptr inbounds %"class.fit::result.98", ptr %147, i32 0, i32 0, !dbg !13449
  %149 = load i64, ptr %148, align 4, !dbg !13449
  invoke void @_ZN3fit13callback_implILm16ELb0EFvN2zx6statusIJjEEEEEclES3_(ptr noundef nonnull align 16 dereferenceable(32) %11, i64 %149)
          to label %150 unwind label %123, !dbg !13449

150:                                              ; preds = %146
  store i32 0, ptr %17, align 4, !dbg !13440
  br label %151, !dbg !13440

151:                                              ; preds = %150, %122
  %152 = call noundef ptr @_ZN4fidl10WireResultIN20fuchsia_hardware_pci6Device12AckInterruptEED2Ev(ptr noundef nonnull align 8 dereferenceable(88) %19) #16, !dbg !13440
  br label %153

153:                                              ; preds = %151, %60
  %154 = call noundef ptr @_ZN3fit13callback_implILm16ELb0EFvN2zx6statusIJjEEEEED2Ev(ptr noundef nonnull align 16 dereferenceable(32) %11) #16, !dbg !13440
  %155 = load i32, ptr %17, align 4
  switch i32 %155, label %164 [
    i32 0, label %156
    i32 1, label %156
  ]

156:                                              ; preds = %32, %153, %153
  ret void, !dbg !13440

157:                                              ; preds = %123, %61
  %158 = call noundef ptr @_ZN3fit13callback_implILm16ELb0EFvN2zx6statusIJjEEEEED2Ev(ptr noundef nonnull align 16 dereferenceable(32) %11) #16, !dbg !13440
  br label %159, !dbg !13440

159:                                              ; preds = %157
  %160 = load ptr, ptr %13, align 8, !dbg !13440
  %161 = load i32, ptr %14, align 4, !dbg !13440
  %162 = insertvalue { ptr, i32 } undef, ptr %160, 0, !dbg !13440
  %163 = insertvalue { ptr, i32 } %162, i32 %161, 1, !dbg !13440
  resume { ptr, i32 } %163, !dbg !13440

164:                                              ; preds = %153
  unreachable
}

; Function Attrs: mustprogress noinline optnone sspstrong uwtable
define linkonce_odr noundef i32 @_ZNK2zx9interrupt3ackEv(ptr noundef nonnull align 4 dereferenceable(4) %0) #0 comdat align 2 !dbg !13450 {
  %2 = alloca ptr, align 8
  store ptr %0, ptr %2, align 8
  call void @llvm.dbg.declare(metadata ptr %2, metadata !13451, metadata !DIExpression()), !dbg !13453
  %3 = load ptr, ptr %2, align 8
  %4 = call noundef i32 @_ZNK2zx11object_base3getEv(ptr noundef nonnull align 4 dereferenceable(4) %3), !dbg !13454
  %5 = call i32 @zx_interrupt_ack(i32 noundef %4) #19, !dbg !13455
  ret i32 %5, !dbg !13456
}

declare void @_ZN6driver6Logger4logfEaPKcS2_iS2_z(ptr noundef nonnull align 8 dereferenceable(36), i8 noundef signext, ptr noundef, ptr noundef, i32 noundef, ptr noundef, ...) #6

; Function Attrs: mustprogress noinline nounwind optnone sspstrong uwtable
define linkonce_odr hidden noundef nonnull align 16 dereferenceable(32) ptr @_ZNRSt3__28optionalIN3fit13callback_implILm16ELb0EFvN2zx6statusIJjEEEEEEEdeB7v160000Ev(ptr noundef nonnull align 16 dereferenceable(33) %0) #2 comdat align 2 !dbg !13457 {
  %2 = alloca ptr, align 8
  store ptr %0, ptr %2, align 8
  call void @llvm.dbg.declare(metadata ptr %2, metadata !13458, metadata !DIExpression()), !dbg !13459
  %3 = load ptr, ptr %2, align 8
  %4 = call noundef nonnull align 16 dereferenceable(32) ptr @_ZNRSt3__223__optional_storage_baseIN3fit13callback_implILm16ELb0EFvN2zx6statusIJjEEEEEELb0EE5__getB7v160000Ev(ptr noundef nonnull align 16 dereferenceable(33) %3) #16, !dbg !13460
  ret ptr %4, !dbg !13461
}

; Function Attrs: noinline nounwind optnone sspstrong uwtable
define linkonce_odr noundef ptr @_ZN3fit13callback_implILm16ELb0EFvN2zx6statusIJjEEEEEC2EOS5_(ptr noundef nonnull returned align 16 dereferenceable(32) %0, ptr noundef nonnull align 16 dereferenceable(32) %1) unnamed_addr #3 comdat align 2 !dbg !13462 {
  %3 = alloca ptr, align 8
  %4 = alloca ptr, align 8
  store ptr %0, ptr %3, align 8
  call void @llvm.dbg.declare(metadata ptr %3, metadata !13463, metadata !DIExpression()), !dbg !13464
  store ptr %1, ptr %4, align 8
  call void @llvm.dbg.declare(metadata ptr %4, metadata !13465, metadata !DIExpression()), !dbg !13466
  %5 = load ptr, ptr %3, align 8
  %6 = load ptr, ptr %4, align 8, !dbg !13467
  %7 = call noundef ptr @_ZN3fit8internal13function_baseILm16ELb0EFvN2zx6statusIJjEEEEEC2EOS6_(ptr noundef nonnull align 16 dereferenceable(24) %5, ptr noundef nonnull align 16 dereferenceable(24) %6) #16, !dbg !13468
  ret ptr %5, !dbg !13469
}

; Function Attrs: mustprogress noinline nounwind optnone sspstrong uwtable
define linkonce_odr hidden noundef nonnull align 16 dereferenceable(33) ptr @_ZNSt3__28optionalIN3fit13callback_implILm16ELb0EFvN2zx6statusIJjEEEEEEEaSB7v160000ENS_9nullopt_tE(ptr noundef nonnull align 16 dereferenceable(33) %0) #2 comdat align 2 !dbg !13470 {
  %2 = alloca %"struct.std::__2::nullopt_t", align 1
  %3 = alloca ptr, align 8
  store ptr %0, ptr %3, align 8
  call void @llvm.dbg.declare(metadata ptr %3, metadata !13471, metadata !DIExpression()), !dbg !13472
  call void @llvm.dbg.declare(metadata ptr %2, metadata !13473, metadata !DIExpression()), !dbg !13474
  %4 = load ptr, ptr %3, align 8
  call void @_ZNSt3__224__optional_destruct_baseIN3fit13callback_implILm16ELb0EFvN2zx6statusIJjEEEEEELb0EE5resetB7v160000Ev(ptr noundef nonnull align 16 dereferenceable(33) %4) #16, !dbg !13475
  ret ptr %4, !dbg !13476
}

; Function Attrs: mustprogress noinline optnone sspstrong uwtable
define internal void @_ZN15driver_internalL7fx_slogIPKcJS2_S2_EEEvRN6driver6LoggerEaS2_iT_DpT0_(ptr noundef nonnull align 8 dereferenceable(36) %0, i8 noundef signext %1, ptr noundef %2, i32 noundef %3, ptr noundef %4, ptr noundef %5, ptr noundef %6) #0 !dbg !13477 {
  %8 = alloca ptr, align 8
  %9 = alloca i8, align 1
  %10 = alloca ptr, align 8
  %11 = alloca i32, align 4
  %12 = alloca ptr, align 8
  %13 = alloca ptr, align 8
  %14 = alloca ptr, align 8
  %15 = alloca %"struct.driver_internal::LogValue.162", align 8
  %16 = alloca %"struct.driver_internal::Tuplet.163", align 8
  %17 = alloca %"class.std::__2::tuple.168", align 8
  store ptr %0, ptr %8, align 8
  call void @llvm.dbg.declare(metadata ptr %8, metadata !13482, metadata !DIExpression()), !dbg !13483
  store i8 %1, ptr %9, align 1
  call void @llvm.dbg.declare(metadata ptr %9, metadata !13484, metadata !DIExpression()), !dbg !13485
  store ptr %2, ptr %10, align 8
  call void @llvm.dbg.declare(metadata ptr %10, metadata !13486, metadata !DIExpression()), !dbg !13487
  store i32 %3, ptr %11, align 4
  call void @llvm.dbg.declare(metadata ptr %11, metadata !13488, metadata !DIExpression()), !dbg !13489
  store ptr %4, ptr %12, align 8
  call void @llvm.dbg.declare(metadata ptr %12, metadata !13490, metadata !DIExpression()), !dbg !13491
  store ptr %5, ptr %13, align 8
  call void @llvm.dbg.declare(metadata ptr %13, metadata !13492, metadata !DIExpression()), !dbg !13493
  store ptr %6, ptr %14, align 8
  call void @llvm.dbg.declare(metadata ptr %14, metadata !13494, metadata !DIExpression()), !dbg !13493
  %18 = load i8, ptr %9, align 1, !dbg !13495
  %19 = sext i8 %18 to i32, !dbg !13495
  %20 = load ptr, ptr %8, align 8, !dbg !13497
  %21 = call noundef signext i8 @_ZN6driver6Logger11GetSeverityEv(ptr noundef nonnull align 8 dereferenceable(36) %20), !dbg !13498
  %22 = sext i8 %21 to i32, !dbg !13497
  %23 = icmp slt i32 %19, %22, !dbg !13499
  br i1 %23, label %24, label %25, !dbg !13500

24:                                               ; preds = %7
  br label %41, !dbg !13501

25:                                               ; preds = %7
  %26 = load ptr, ptr %12, align 8, !dbg !13503
  %27 = call { ptr, ptr } @_ZNSt3__210make_tupleB7v160000IJRPKcS3_EEENS_5tupleIJDpNS_18__unwrap_ref_decayIT_E4typeEEEEDpOS6_(ptr noundef nonnull align 8 dereferenceable(8) %13, ptr noundef nonnull align 8 dereferenceable(8) %14), !dbg !13504
  %28 = getelementptr inbounds %"class.std::__2::tuple.168", ptr %17, i32 0, i32 0, !dbg !13504
  %29 = getelementptr inbounds { ptr, ptr }, ptr %28, i32 0, i32 0, !dbg !13504
  %30 = extractvalue { ptr, ptr } %27, 0, !dbg !13504
  store ptr %30, ptr %29, align 8, !dbg !13504
  %31 = getelementptr inbounds { ptr, ptr }, ptr %28, i32 0, i32 1, !dbg !13504
  %32 = extractvalue { ptr, ptr } %27, 1, !dbg !13504
  store ptr %32, ptr %31, align 8, !dbg !13504
  %33 = getelementptr inbounds { ptr, ptr }, ptr %17, i32 0, i32 0, !dbg !13505
  %34 = load ptr, ptr %33, align 8, !dbg !13505
  %35 = getelementptr inbounds { ptr, ptr }, ptr %17, i32 0, i32 1, !dbg !13505
  %36 = load ptr, ptr %35, align 8, !dbg !13505
  call void @_ZN15driver_internalL6MakeKVIJPKcS2_EEEDaNSt3__25tupleIJDpT_EEE(ptr sret(%"struct.driver_internal::Tuplet.163") align 8 %16, ptr %34, ptr %36), !dbg !13505
  call void @_ZN15driver_internalL9MakeValueIPKcJNS_8KeyValueIS2_S2_EEEEEDaT_NS_6TupletIJDpT0_EEE(ptr sret(%"struct.driver_internal::LogValue.162") align 8 %15, ptr noundef %26, ptr noundef byval(%"struct.driver_internal::Tuplet.163") align 8 %16), !dbg !13506
  %37 = load ptr, ptr %8, align 8, !dbg !13507
  %38 = load i8, ptr %9, align 1, !dbg !13508
  %39 = load ptr, ptr %10, align 8, !dbg !13509
  %40 = load i32, ptr %11, align 4, !dbg !13510
  call void @_ZNK15driver_internal8LogValueIPKcJNS_8KeyValueIS2_S2_EEEE6LogNewERN6driver6LoggerEaS2_jS2_(ptr noundef nonnull align 8 dereferenceable(32) %15, ptr noundef nonnull align 8 dereferenceable(36) %37, i8 noundef signext %38, ptr noundef %39, i32 noundef %40, ptr noundef null), !dbg !13511
  br label %41, !dbg !13512

41:                                               ; preds = %25, %24
  ret void, !dbg !13512
}

declare ptr @zx_status_get_string(i32 noundef) #6

; Function Attrs: mustprogress noinline optnone sspstrong uwtable
define linkonce_odr noundef i32 @_ZNK3fdf10MmioBuffer6Read32Em(ptr noundef nonnull align 8 dereferenceable(56) %0, i64 noundef %1) #0 comdat align 2 !dbg !13513 {
  %3 = alloca ptr, align 8
  %4 = alloca i64, align 8
  store ptr %0, ptr %3, align 8
  call void @llvm.dbg.declare(metadata ptr %3, metadata !13514, metadata !DIExpression()), !dbg !13515
  store i64 %1, ptr %4, align 8
  call void @llvm.dbg.declare(metadata ptr %4, metadata !13516, metadata !DIExpression()), !dbg !13517
  %5 = load ptr, ptr %3, align 8
  %6 = getelementptr inbounds %"class.fdf::MmioBuffer", ptr %5, i32 0, i32 2, !dbg !13518
  %7 = load ptr, ptr %6, align 8, !dbg !13518
  %8 = getelementptr inbounds %"struct.fdf::internal::MmioBufferOps", ptr %7, i32 0, i32 2, !dbg !13519
  %9 = load ptr, ptr %8, align 8, !dbg !13519
  %10 = getelementptr inbounds %"class.fdf::MmioBuffer", ptr %5, i32 0, i32 3, !dbg !13520
  %11 = load ptr, ptr %10, align 8, !dbg !13520
  %12 = getelementptr inbounds %"class.fdf::MmioBuffer", ptr %5, i32 0, i32 1, !dbg !13521
  %13 = load i64, ptr %4, align 8, !dbg !13522
  %14 = call noundef i32 %9(ptr noundef %11, ptr noundef nonnull align 8 dereferenceable(32) %12, i64 noundef %13), !dbg !13518
  ret i32 %14, !dbg !13523
}

; Function Attrs: mustprogress noinline optnone sspstrong uwtable
define linkonce_odr void @_ZN4fidl8internal18WireSyncClientImplIN20fuchsia_hardware_pci6DeviceEE12AckInterruptEv(ptr noalias sret(%"class.fidl::WireResult.101") align 8 %0, ptr noundef nonnull align 8 dereferenceable(16) %1) #0 comdat align 2 !dbg !13524 {
  %3 = alloca ptr, align 8
  %4 = alloca ptr, align 8
  %5 = alloca %"struct.fidl::internal::TransactionalRequest.112", align 8
  %6 = alloca %"class.fidl::UnownedClientEnd", align 4
  store ptr %0, ptr %3, align 8
  store ptr %1, ptr %4, align 8
  call void @llvm.dbg.declare(metadata ptr %4, metadata !13525, metadata !DIExpression()), !dbg !13526
  %7 = load ptr, ptr %4, align 8
  call void @llvm.dbg.declare(metadata ptr %5, metadata !13527, metadata !DIExpression()), !dbg !13528
  %8 = call noundef ptr @_ZN4fidl8internal20TransactionalRequestIN20fuchsia_hardware_pci6Device12AckInterruptEEC2Ev(ptr noundef nonnull align 8 dereferenceable(16) %5), !dbg !13528
  %9 = call i32 @_ZNK4fidl8internal18WireSyncClientImplIN20fuchsia_hardware_pci6DeviceEE11_client_endEv(ptr noundef nonnull align 8 dereferenceable(16) %7), !dbg !13529
  %10 = getelementptr inbounds %"class.fidl::UnownedClientEnd", ptr %6, i32 0, i32 0, !dbg !13529
  %11 = getelementptr inbounds %"class.fidl::internal::UnownedClientEndBase", ptr %10, i32 0, i32 0, !dbg !13529
  %12 = getelementptr inbounds %"class.fidl::internal::UnownedTransportEnd", ptr %11, i32 0, i32 0, !dbg !13529
  store i32 %9, ptr %12, align 4, !dbg !13529
  %13 = getelementptr inbounds %"class.fidl::UnownedClientEnd", ptr %6, i32 0, i32 0, !dbg !13530
  %14 = getelementptr inbounds %"class.fidl::internal::UnownedClientEndBase", ptr %13, i32 0, i32 0, !dbg !13530
  %15 = getelementptr inbounds %"class.fidl::internal::UnownedTransportEnd", ptr %14, i32 0, i32 0, !dbg !13530
  %16 = load i32, ptr %15, align 4, !dbg !13530
  %17 = call noundef ptr @_ZN4fidl10WireResultIN20fuchsia_hardware_pci6Device12AckInterruptEEC1ENS_16UnownedClientEndIS2_EEPNS_8internal20TransactionalRequestIS3_EE(ptr noundef nonnull align 8 dereferenceable(88) %0, i32 %16, ptr noundef %5), !dbg !13530
  ret void, !dbg !13531
}

; Function Attrs: mustprogress noinline optnone sspstrong uwtable
define linkonce_odr noundef ptr @_ZN4fidl14BaseWireResultIN20fuchsia_hardware_pci6Device12AckInterruptEvEptEv(ptr noundef nonnull align 8 dereferenceable(28) %0) #0 comdat align 2 !dbg !13532 {
  %2 = alloca ptr, align 8
  store ptr %0, ptr %2, align 8
  call void @llvm.dbg.declare(metadata ptr %2, metadata !13533, metadata !DIExpression()), !dbg !13535
  %3 = load ptr, ptr %2, align 8
  %4 = call noundef nonnull align 4 dereferenceable(8) ptr @_ZN4fidl14BaseWireResultIN20fuchsia_hardware_pci6Device12AckInterruptEvE5valueEv(ptr noundef nonnull align 8 dereferenceable(28) %3), !dbg !13536
  ret ptr %4, !dbg !13537
}

; Function Attrs: mustprogress noinline optnone sspstrong uwtable
define internal void @_ZN15driver_internalL7fx_slogIPKcJS2_jEEEvRN6driver6LoggerEaS2_iT_DpT0_(ptr noundef nonnull align 8 dereferenceable(36) %0, i8 noundef signext %1, ptr noundef %2, i32 noundef %3, ptr noundef %4, ptr noundef %5, i32 noundef %6) #0 !dbg !13538 {
  %8 = alloca ptr, align 8
  %9 = alloca i8, align 1
  %10 = alloca ptr, align 8
  %11 = alloca i32, align 4
  %12 = alloca ptr, align 8
  %13 = alloca ptr, align 8
  %14 = alloca i32, align 4
  %15 = alloca %"struct.driver_internal::LogValue.177", align 8
  %16 = alloca %"struct.driver_internal::Tuplet.178", align 8
  %17 = alloca %"class.std::__2::tuple.184", align 8
  store ptr %0, ptr %8, align 8
  call void @llvm.dbg.declare(metadata ptr %8, metadata !13543, metadata !DIExpression()), !dbg !13544
  store i8 %1, ptr %9, align 1
  call void @llvm.dbg.declare(metadata ptr %9, metadata !13545, metadata !DIExpression()), !dbg !13546
  store ptr %2, ptr %10, align 8
  call void @llvm.dbg.declare(metadata ptr %10, metadata !13547, metadata !DIExpression()), !dbg !13548
  store i32 %3, ptr %11, align 4
  call void @llvm.dbg.declare(metadata ptr %11, metadata !13549, metadata !DIExpression()), !dbg !13550
  store ptr %4, ptr %12, align 8
  call void @llvm.dbg.declare(metadata ptr %12, metadata !13551, metadata !DIExpression()), !dbg !13552
  store ptr %5, ptr %13, align 8
  call void @llvm.dbg.declare(metadata ptr %13, metadata !13553, metadata !DIExpression()), !dbg !13554
  store i32 %6, ptr %14, align 4
  call void @llvm.dbg.declare(metadata ptr %14, metadata !13555, metadata !DIExpression()), !dbg !13554
  %18 = load i8, ptr %9, align 1, !dbg !13556
  %19 = sext i8 %18 to i32, !dbg !13556
  %20 = load ptr, ptr %8, align 8, !dbg !13558
  %21 = call noundef signext i8 @_ZN6driver6Logger11GetSeverityEv(ptr noundef nonnull align 8 dereferenceable(36) %20), !dbg !13559
  %22 = sext i8 %21 to i32, !dbg !13558
  %23 = icmp slt i32 %19, %22, !dbg !13560
  br i1 %23, label %24, label %25, !dbg !13561

24:                                               ; preds = %7
  br label %41, !dbg !13562

25:                                               ; preds = %7
  %26 = load ptr, ptr %12, align 8, !dbg !13564
  %27 = call { ptr, i32 } @_ZNSt3__210make_tupleB7v160000IJRPKcRjEEENS_5tupleIJDpNS_18__unwrap_ref_decayIT_E4typeEEEEDpOS7_(ptr noundef nonnull align 8 dereferenceable(8) %13, ptr noundef nonnull align 4 dereferenceable(4) %14), !dbg !13565
  %28 = getelementptr inbounds %"class.std::__2::tuple.184", ptr %17, i32 0, i32 0, !dbg !13565
  %29 = getelementptr inbounds { ptr, i32 }, ptr %28, i32 0, i32 0, !dbg !13565
  %30 = extractvalue { ptr, i32 } %27, 0, !dbg !13565
  store ptr %30, ptr %29, align 8, !dbg !13565
  %31 = getelementptr inbounds { ptr, i32 }, ptr %28, i32 0, i32 1, !dbg !13565
  %32 = extractvalue { ptr, i32 } %27, 1, !dbg !13565
  store i32 %32, ptr %31, align 8, !dbg !13565
  %33 = getelementptr inbounds { ptr, i32 }, ptr %17, i32 0, i32 0, !dbg !13566
  %34 = load ptr, ptr %33, align 8, !dbg !13566
  %35 = getelementptr inbounds { ptr, i32 }, ptr %17, i32 0, i32 1, !dbg !13566
  %36 = load i32, ptr %35, align 8, !dbg !13566
  call void @_ZN15driver_internalL6MakeKVIJPKcjEEEDaNSt3__25tupleIJDpT_EEE(ptr sret(%"struct.driver_internal::Tuplet.178") align 8 %16, ptr %34, i32 %36), !dbg !13566
  call void @_ZN15driver_internalL9MakeValueIPKcJNS_8KeyValueIS2_jEEEEEDaT_NS_6TupletIJDpT0_EEE(ptr sret(%"struct.driver_internal::LogValue.177") align 8 %15, ptr noundef %26, ptr noundef byval(%"struct.driver_internal::Tuplet.178") align 8 %16), !dbg !13567
  %37 = load ptr, ptr %8, align 8, !dbg !13568
  %38 = load i8, ptr %9, align 1, !dbg !13569
  %39 = load ptr, ptr %10, align 8, !dbg !13570
  %40 = load i32, ptr %11, align 4, !dbg !13571
  call void @_ZNK15driver_internal8LogValueIPKcJNS_8KeyValueIS2_jEEEE6LogNewERN6driver6LoggerEaS2_jS2_(ptr noundef nonnull align 8 dereferenceable(32) %15, ptr noundef nonnull align 8 dereferenceable(36) %37, i8 noundef signext %38, ptr noundef %39, i32 noundef %40, ptr noundef null), !dbg !13572
  br label %41, !dbg !13573

41:                                               ; preds = %25, %24
  ret void, !dbg !13573
}

; Function Attrs: mustprogress noinline optnone sspstrong uwtable
define linkonce_odr i32 @_ZN3fit2okIRjEENS_7successIJNSt3__25decayIT_E4typeEEEEOS5_(ptr noundef nonnull align 4 dereferenceable(4) %0) #0 comdat !dbg !13574 {
  %2 = alloca %"class.fit::success.106", align 4
  %3 = alloca ptr, align 8
  store ptr %0, ptr %3, align 8
  call void @llvm.dbg.declare(metadata ptr %3, metadata !13579, metadata !DIExpression()), !dbg !13580
  %4 = load ptr, ptr %3, align 8, !dbg !13581
  %5 = call noundef ptr @_ZN3fit7successIJjEEC2IJRjELb1EEEDpOT_(ptr noundef nonnull align 4 dereferenceable(4) %2, ptr noundef nonnull align 4 dereferenceable(4) %4), !dbg !13582
  %6 = getelementptr inbounds %"class.fit::success.106", ptr %2, i32 0, i32 0, !dbg !13583
  %7 = load i32, ptr %6, align 4, !dbg !13583
  ret i32 %7, !dbg !13583
}

; Function Attrs: noinline optnone sspstrong uwtable
define linkonce_odr noundef ptr @_ZN2zx6statusIJjEECI2N3fit6resultIiJjEEEIjLb1EEENS2_7successIJT_EEE(ptr noundef nonnull returned align 4 dereferenceable(8) %0, i32 %1) unnamed_addr #4 comdat align 2 !dbg !13584 {
  %3 = alloca %"class.fit::success.106", align 4
  %4 = alloca ptr, align 8
  %5 = getelementptr inbounds %"class.fit::success.106", ptr %3, i32 0, i32 0
  store i32 %1, ptr %5, align 4
  store ptr %0, ptr %4, align 8
  call void @llvm.dbg.declare(metadata ptr %4, metadata !13588, metadata !DIExpression()), !dbg !13589
  call void @llvm.dbg.declare(metadata ptr %3, metadata !13590, metadata !DIExpression()), !dbg !13589
  %6 = load ptr, ptr %4, align 8
  %7 = getelementptr inbounds %"class.fit::success.106", ptr %3, i32 0, i32 0, !dbg !13591
  %8 = load i32, ptr %7, align 4, !dbg !13591
  %9 = call noundef ptr @_ZN3fit6resultIiJjEEC2IjLb1EEENS_7successIJT_EEE(ptr noundef nonnull align 4 dereferenceable(8) %6, i32 %8), !dbg !13591
  ret ptr %6, !dbg !13591
}

; Function Attrs: noinline nounwind optnone sspstrong uwtable
define linkonce_odr noundef ptr @_ZN4fidl10WireResultIN20fuchsia_hardware_pci6Device12AckInterruptEED2Ev(ptr noundef nonnull returned align 8 dereferenceable(88) %0) unnamed_addr #3 comdat align 2 !dbg !13592 {
  %2 = alloca ptr, align 8
  store ptr %0, ptr %2, align 8
  call void @llvm.dbg.declare(metadata ptr %2, metadata !13597, metadata !DIExpression()), !dbg !13599
  %3 = load ptr, ptr %2, align 8
  %4 = getelementptr inbounds %"class.fidl::WireResult.101", ptr %3, i32 0, i32 3, !dbg !13600
  %5 = call noundef ptr @_ZN4fidl12DecodedValueINS_12WireResponseIN20fuchsia_hardware_pci6Device12AckInterruptEEEED2Ev(ptr noundef nonnull align 8 dereferenceable(8) %4) #16, !dbg !13600
  ret ptr %3, !dbg !13602
}

; Function Attrs: noinline nounwind optnone sspstrong uwtable
define linkonce_odr noundef ptr @_ZN3fit13callback_implILm16ELb0EFvN2zx6statusIJjEEEEED2Ev(ptr noundef nonnull returned align 16 dereferenceable(32) %0) unnamed_addr #3 comdat align 2 !dbg !13603 {
  %2 = alloca ptr, align 8
  store ptr %0, ptr %2, align 8
  call void @llvm.dbg.declare(metadata ptr %2, metadata !13604, metadata !DIExpression()), !dbg !13605
  %3 = load ptr, ptr %2, align 8
  %4 = call noundef ptr @_ZN3fit8internal13function_baseILm16ELb0EFvN2zx6statusIJjEEEEED2Ev(ptr noundef nonnull align 16 dereferenceable(24) %3) #16, !dbg !13606
  ret ptr %3, !dbg !13608
}

; Function Attrs: mustprogress noinline optnone sspstrong uwtable
define i64 @_ZN10edu_device13QemuEduDevice13LivenessCheckEj(ptr noundef nonnull align 16 dereferenceable(224) %0, i32 noundef %1) #0 align 2 !dbg !13609 {
  %3 = alloca %"class.zx::status.97", align 4
  %4 = alloca ptr, align 8
  %5 = alloca i32, align 4
  %6 = alloca i32, align 4
  %7 = alloca %"class.fit::success.106", align 4
  store ptr %0, ptr %4, align 8
  call void @llvm.dbg.declare(metadata ptr %4, metadata !13613, metadata !DIExpression()), !dbg !13614
  store i32 %1, ptr %5, align 4
  call void @llvm.dbg.declare(metadata ptr %5, metadata !13615, metadata !DIExpression()), !dbg !13616
  %8 = load ptr, ptr %4, align 8
  %9 = getelementptr inbounds %"class.edu_device::QemuEduDevice", ptr %8, i32 0, i32 4, !dbg !13617
  %10 = call noundef ptr @_ZNSt3__28optionalIN3fdf10MmioBufferEEptB7v160000Ev(ptr noundef nonnull align 8 dereferenceable(57) %9), !dbg !13617
  %11 = load i32, ptr %5, align 4, !dbg !13618
  call void @_ZNK3fdf10MmioBuffer7Write32Ejm(ptr noundef nonnull align 8 dereferenceable(56) %10, i32 noundef %11, i64 noundef 4), !dbg !13619
  call void @llvm.dbg.declare(metadata ptr %6, metadata !13620, metadata !DIExpression()), !dbg !13621
  %12 = getelementptr inbounds %"class.edu_device::QemuEduDevice", ptr %8, i32 0, i32 4, !dbg !13622
  %13 = call noundef ptr @_ZNSt3__28optionalIN3fdf10MmioBufferEEptB7v160000Ev(ptr noundef nonnull align 8 dereferenceable(57) %12), !dbg !13622
  %14 = call noundef i32 @_ZNK3fdf10MmioBuffer6Read32Em(ptr noundef nonnull align 8 dereferenceable(56) %13, i64 noundef 4), !dbg !13623
  store i32 %14, ptr %6, align 4, !dbg !13621
  %15 = call i32 @_ZN3fit2okIRjEENS_7successIJNSt3__25decayIT_E4typeEEEEOS5_(ptr noundef nonnull align 4 dereferenceable(4) %6), !dbg !13624
  %16 = getelementptr inbounds %"class.fit::success.106", ptr %7, i32 0, i32 0, !dbg !13624
  store i32 %15, ptr %16, align 4, !dbg !13624
  %17 = getelementptr inbounds %"class.fit::success.106", ptr %7, i32 0, i32 0, !dbg !13624
  %18 = load i32, ptr %17, align 4, !dbg !13624
  %19 = call noundef ptr @_ZN2zx6statusIJjEECI2N3fit6resultIiJjEEEIjLb1EEENS2_7successIJT_EEE(ptr noundef nonnull align 4 dereferenceable(8) %3, i32 %18), !dbg !13624
  %20 = getelementptr inbounds %"class.zx::status.97", ptr %3, i32 0, i32 0, !dbg !13625
  %21 = getelementptr inbounds %"class.fit::result.98", ptr %20, i32 0, i32 0, !dbg !13625
  %22 = load i64, ptr %21, align 4, !dbg !13625
  ret i64 %22, !dbg !13625
}

; Function Attrs: noinline optnone sspstrong uwtable
define linkonce_odr noundef ptr @_ZN4fidl8internal20TransactionalRequestIN20fuchsia_hardware_pci6Device6GetBarEEC2Ej(ptr noundef nonnull returned align 8 dereferenceable(24) %0, i32 noundef %1) unnamed_addr #4 comdat align 2 !dbg !13626 {
  %3 = alloca ptr, align 8
  %4 = alloca i32, align 4
  store ptr %0, ptr %3, align 8
  call void @llvm.dbg.declare(metadata ptr %3, metadata !13627, metadata !DIExpression()), !dbg !13629
  store i32 %1, ptr %4, align 4
  call void @llvm.dbg.declare(metadata ptr %4, metadata !13630, metadata !DIExpression()), !dbg !13631
  %5 = load ptr, ptr %3, align 8
  %6 = getelementptr inbounds %"struct.fidl::internal::TransactionalRequest", ptr %5, i32 0, i32 0, !dbg !13632
  %7 = getelementptr inbounds %"struct.fidl::internal::TransactionalRequest", ptr %5, i32 0, i32 1, !dbg !13633
  %8 = getelementptr inbounds %"struct.fuchsia_hardware_pci::wire::DeviceGetBarRequest", ptr %7, i32 0, i32 0, !dbg !13634
  %9 = load i32, ptr %4, align 4, !dbg !13635
  store i32 %9, ptr %8, align 8, !dbg !13634
  call void @_ZN4fidl8internal20TransactionalRequestIN20fuchsia_hardware_pci6Device6GetBarEE11_InitHeaderEv(ptr noundef nonnull align 8 dereferenceable(24) %5), !dbg !13636
  ret ptr %5, !dbg !13638
}

; Function Attrs: mustprogress noinline optnone sspstrong uwtable
define linkonce_odr i32 @_ZNK4fidl8internal18WireSyncClientImplIN20fuchsia_hardware_pci6DeviceEE11_client_endEv(ptr noundef nonnull align 8 dereferenceable(16) %0) #0 comdat align 2 personality ptr @__gxx_personality_v0 !dbg !13639 {
  %2 = alloca %"class.fidl::UnownedClientEnd", align 4
  %3 = alloca ptr, align 8
  %4 = alloca %"class.zx::unowned", align 4
  %5 = alloca %"class.fidl::internal::AnyUnownedTransport", align 8
  %6 = alloca ptr, align 8
  %7 = alloca i32, align 4
  store ptr %0, ptr %3, align 8
  call void @llvm.dbg.declare(metadata ptr %3, metadata !13640, metadata !DIExpression()), !dbg !13642
  %8 = load ptr, ptr %3, align 8
  %9 = call { ptr, i32 } @_ZNK4fidl8internal25SyncEndpointManagedVeneerINS0_18WireSyncClientImplIN20fuchsia_hardware_pci6DeviceEEEE10_transportEv(ptr noundef nonnull align 8 dereferenceable(16) %8), !dbg !13643
  %10 = getelementptr inbounds { ptr, i32 }, ptr %5, i32 0, i32 0, !dbg !13643
  %11 = extractvalue { ptr, i32 } %9, 0, !dbg !13643
  store ptr %11, ptr %10, align 8, !dbg !13643
  %12 = getelementptr inbounds { ptr, i32 }, ptr %5, i32 0, i32 1, !dbg !13643
  %13 = extractvalue { ptr, i32 } %9, 1, !dbg !13643
  store i32 %13, ptr %12, align 8, !dbg !13643
  call void @_ZNK4fidl8internal19AnyUnownedTransport3getINS0_16ChannelTransportEEENT_11UnownedTypeEv(ptr sret(%"class.zx::unowned") align 4 %4, ptr noundef nonnull align 8 dereferenceable(12) %5), !dbg !13644
  %14 = invoke noundef ptr @_ZN4fidl16UnownedClientEndIN20fuchsia_hardware_pci6DeviceEECI2NS_8internal19UnownedTransportEndIS2_NS4_16ChannelTransportEEEERKN2zx7unownedINS7_7channelEEE(ptr noundef nonnull align 4 dereferenceable(4) %2, ptr noundef nonnull align 4 dereferenceable(4) %4)
          to label %15 unwind label %21, !dbg !13645

15:                                               ; preds = %1
  %16 = call noundef ptr @_ZN2zx7unownedINS_7channelEED2Ev(ptr noundef nonnull align 4 dereferenceable(4) %4) #16, !dbg !13646
  %17 = getelementptr inbounds %"class.fidl::UnownedClientEnd", ptr %2, i32 0, i32 0, !dbg !13646
  %18 = getelementptr inbounds %"class.fidl::internal::UnownedClientEndBase", ptr %17, i32 0, i32 0, !dbg !13646
  %19 = getelementptr inbounds %"class.fidl::internal::UnownedTransportEnd", ptr %18, i32 0, i32 0, !dbg !13646
  %20 = load i32, ptr %19, align 4, !dbg !13646
  ret i32 %20, !dbg !13646

21:                                               ; preds = %1
  %22 = landingpad { ptr, i32 }
          cleanup, !dbg !13647
  %23 = extractvalue { ptr, i32 } %22, 0, !dbg !13647
  store ptr %23, ptr %6, align 8, !dbg !13647
  %24 = extractvalue { ptr, i32 } %22, 1, !dbg !13647
  store i32 %24, ptr %7, align 4, !dbg !13647
  %25 = call noundef ptr @_ZN2zx7unownedINS_7channelEED2Ev(ptr noundef nonnull align 4 dereferenceable(4) %4) #16, !dbg !13646
  br label %26, !dbg !13646

26:                                               ; preds = %21
  %27 = load ptr, ptr %6, align 8, !dbg !13646
  %28 = load i32, ptr %7, align 4, !dbg !13646
  %29 = insertvalue { ptr, i32 } undef, ptr %27, 0, !dbg !13646
  %30 = insertvalue { ptr, i32 } %29, i32 %28, 1, !dbg !13646
  resume { ptr, i32 } %30, !dbg !13646
}

declare noundef ptr @_ZN4fidl10WireResultIN20fuchsia_hardware_pci6Device6GetBarEEC1ENS_16UnownedClientEndIS2_EEPNS_8internal20TransactionalRequestIS3_EE(ptr noundef nonnull returned align 8 dereferenceable(56), i32, ptr noundef) unnamed_addr #6

declare void @_ZN4fidl8internal20TransactionalRequestIN20fuchsia_hardware_pci6Device6GetBarEE11_InitHeaderEv(ptr noundef nonnull align 8 dereferenceable(24)) #6

; Function Attrs: mustprogress noinline nounwind optnone sspstrong uwtable
define linkonce_odr { ptr, i32 } @_ZNK4fidl8internal25SyncEndpointManagedVeneerINS0_18WireSyncClientImplIN20fuchsia_hardware_pci6DeviceEEEE10_transportEv(ptr noundef nonnull align 8 dereferenceable(16) %0) #2 comdat align 2 !dbg !13648 {
  %2 = alloca %"class.fidl::internal::AnyUnownedTransport", align 8
  %3 = alloca ptr, align 8
  store ptr %0, ptr %3, align 8
  call void @llvm.dbg.declare(metadata ptr %3, metadata !13649, metadata !DIExpression()), !dbg !13651
  %4 = load ptr, ptr %3, align 8
  %5 = getelementptr inbounds %"struct.fidl::internal::SyncEndpointManagedVeneer", ptr %4, i32 0, i32 0, !dbg !13652
  call void @llvm.memcpy.p0.p0.i64(ptr align 8 %2, ptr align 8 %5, i64 16, i1 false), !dbg !13652
  %6 = load { ptr, i32 }, ptr %2, align 8, !dbg !13653
  ret { ptr, i32 } %6, !dbg !13653
}

; Function Attrs: mustprogress noinline optnone sspstrong uwtable
define linkonce_odr void @_ZNK4fidl8internal19AnyUnownedTransport3getINS0_16ChannelTransportEEENT_11UnownedTypeEv(ptr noalias sret(%"class.zx::unowned") align 4 %0, ptr noundef nonnull align 8 dereferenceable(12) %1) #0 comdat align 2 !dbg !13654 {
  %3 = alloca ptr, align 8
  %4 = alloca ptr, align 8
  store ptr %0, ptr %3, align 8
  store ptr %1, ptr %4, align 8
  call void @llvm.dbg.declare(metadata ptr %4, metadata !13659, metadata !DIExpression()), !dbg !13661
  %5 = load ptr, ptr %4, align 8
  br label %6, !dbg !13662

6:                                                ; preds = %2
  %7 = getelementptr inbounds %"class.fidl::internal::AnyUnownedTransport", ptr %5, i32 0, i32 0, !dbg !13663
  %8 = load ptr, ptr %7, align 8, !dbg !13663
  %9 = getelementptr inbounds %"struct.fidl::internal::TransportVTable", ptr %8, i32 0, i32 0, !dbg !13663
  %10 = load i8, ptr %9, align 8, !dbg !13663
  %11 = zext i8 %10 to i32, !dbg !13663
  %12 = load i8, ptr @_ZN4fidl8internal16ChannelTransport6VTableE, align 8, !dbg !13663
  %13 = zext i8 %12 to i32, !dbg !13663
  %14 = icmp eq i32 %11, %13, !dbg !13663
  %15 = xor i1 %14, true, !dbg !13663
  %16 = xor i1 %15, true, !dbg !13663
  %17 = xor i1 %16, true, !dbg !13663
  br i1 %17, label %18, label %19, !dbg !13666

18:                                               ; preds = %6
  call void (ptr, ...) @__zx_panic(ptr noundef @.str.12, ptr noundef @.str.13, i32 noundef 258, ptr noundef @.str.14) #17, !dbg !13667
  unreachable, !dbg !13667

19:                                               ; preds = %6
  br label %20, !dbg !13666

20:                                               ; preds = %19
  %21 = getelementptr inbounds %"class.fidl::internal::AnyUnownedTransport", ptr %5, i32 0, i32 1, !dbg !13669
  %22 = load i32, ptr %21, align 8, !dbg !13669
  %23 = call noundef ptr @_ZN2zx7unownedINS_7channelEEC2Ej(ptr noundef nonnull align 4 dereferenceable(4) %0, i32 noundef %22), !dbg !13670
  ret void, !dbg !13671
}

; Function Attrs: noinline optnone sspstrong uwtable
define linkonce_odr noundef ptr @_ZN4fidl16UnownedClientEndIN20fuchsia_hardware_pci6DeviceEECI2NS_8internal19UnownedTransportEndIS2_NS4_16ChannelTransportEEEERKN2zx7unownedINS7_7channelEEE(ptr noundef nonnull returned align 4 dereferenceable(4) %0, ptr noundef nonnull align 4 dereferenceable(4) %1) unnamed_addr #4 comdat align 2 !dbg !13672 {
  %3 = alloca ptr, align 8
  %4 = alloca ptr, align 8
  store ptr %0, ptr %3, align 8
  call void @llvm.dbg.declare(metadata ptr %3, metadata !13677, metadata !DIExpression()), !dbg !13679
  store ptr %1, ptr %4, align 8
  call void @llvm.dbg.declare(metadata ptr %4, metadata !13680, metadata !DIExpression()), !dbg !13679
  %5 = load ptr, ptr %3, align 8
  %6 = load ptr, ptr %4, align 8, !dbg !13681
  %7 = call noundef ptr @_ZN4fidl8internal20UnownedClientEndBaseIN20fuchsia_hardware_pci6DeviceENS0_16ChannelTransportEECI2NS0_19UnownedTransportEndIS3_S4_EEERKN2zx7unownedINS7_7channelEEE(ptr noundef nonnull align 4 dereferenceable(4) %5, ptr noundef nonnull align 4 dereferenceable(4) %6), !dbg !13681
  ret ptr %5, !dbg !13681
}

; Function Attrs: noinline nounwind optnone sspstrong uwtable
define linkonce_odr noundef ptr @_ZN2zx7unownedINS_7channelEED2Ev(ptr noundef nonnull returned align 4 dereferenceable(4) %0) unnamed_addr #3 comdat align 2 personality ptr @__gxx_personality_v0 !dbg !13682 {
  %2 = alloca ptr, align 8
  store ptr %0, ptr %2, align 8
  call void @llvm.dbg.declare(metadata ptr %2, metadata !13683, metadata !DIExpression()), !dbg !13685
  %3 = load ptr, ptr %2, align 8
  invoke void @_ZN2zx7unownedINS_7channelEE13release_valueEv(ptr noundef nonnull align 4 dereferenceable(4) %3)
          to label %4 unwind label %7, !dbg !13686

4:                                                ; preds = %1
  %5 = getelementptr inbounds %"class.zx::unowned", ptr %3, i32 0, i32 0, !dbg !13688
  %6 = call noundef ptr @_ZN2zx7channelD2Ev(ptr noundef nonnull align 4 dereferenceable(4) %5) #16, !dbg !13688
  ret ptr %3, !dbg !13689

7:                                                ; preds = %1
  %8 = landingpad { ptr, i32 }
          catch ptr null, !dbg !13686
  %9 = extractvalue { ptr, i32 } %8, 0, !dbg !13686
  call void @__clang_call_terminate(ptr %9) #18, !dbg !13686
  unreachable, !dbg !13686
}

; Function Attrs: noreturn
declare void @__zx_panic(ptr noundef, ...) #7

; Function Attrs: noinline optnone sspstrong uwtable
define linkonce_odr noundef ptr @_ZN2zx7unownedINS_7channelEEC2Ej(ptr noundef nonnull returned align 4 dereferenceable(4) %0, i32 noundef %1) unnamed_addr #4 comdat align 2 !dbg !13690 {
  %3 = alloca ptr, align 8
  %4 = alloca i32, align 4
  store ptr %0, ptr %3, align 8
  call void @llvm.dbg.declare(metadata ptr %3, metadata !13691, metadata !DIExpression()), !dbg !13692
  store i32 %1, ptr %4, align 4
  call void @llvm.dbg.declare(metadata ptr %4, metadata !13693, metadata !DIExpression()), !dbg !13694
  %5 = load ptr, ptr %3, align 8
  %6 = getelementptr inbounds %"class.zx::unowned", ptr %5, i32 0, i32 0, !dbg !13695
  %7 = load i32, ptr %4, align 4, !dbg !13696
  %8 = call noundef ptr @_ZN2zx7channelC2Ej(ptr noundef nonnull align 4 dereferenceable(4) %6, i32 noundef %7), !dbg !13695
  ret ptr %5, !dbg !13697
}

; Function Attrs: noinline optnone sspstrong uwtable
define linkonce_odr noundef ptr @_ZN2zx7channelC2Ej(ptr noundef nonnull returned align 4 dereferenceable(4) %0, i32 noundef %1) unnamed_addr #4 comdat align 2 !dbg !13698 {
  %3 = alloca ptr, align 8
  %4 = alloca i32, align 4
  store ptr %0, ptr %3, align 8
  call void @llvm.dbg.declare(metadata ptr %3, metadata !13699, metadata !DIExpression()), !dbg !13700
  store i32 %1, ptr %4, align 4
  call void @llvm.dbg.declare(metadata ptr %4, metadata !13701, metadata !DIExpression()), !dbg !13702
  %5 = load ptr, ptr %3, align 8
  %6 = load i32, ptr %4, align 4, !dbg !13703
  %7 = call noundef ptr @_ZN2zx6objectINS_7channelEEC2Ej(ptr noundef nonnull align 4 dereferenceable(4) %5, i32 noundef %6), !dbg !13704
  ret ptr %5, !dbg !13705
}

; Function Attrs: noinline optnone sspstrong uwtable
define linkonce_odr noundef ptr @_ZN2zx6objectINS_7channelEEC2Ej(ptr noundef nonnull returned align 4 dereferenceable(4) %0, i32 noundef %1) unnamed_addr #4 comdat align 2 !dbg !13706 {
  %3 = alloca ptr, align 8
  %4 = alloca i32, align 4
  store ptr %0, ptr %3, align 8
  call void @llvm.dbg.declare(metadata ptr %3, metadata !13707, metadata !DIExpression()), !dbg !13708
  store i32 %1, ptr %4, align 4
  call void @llvm.dbg.declare(metadata ptr %4, metadata !13709, metadata !DIExpression()), !dbg !13710
  %5 = load ptr, ptr %3, align 8
  %6 = load i32, ptr %4, align 4, !dbg !13711
  %7 = call noundef ptr @_ZN2zx11object_baseC2Ej(ptr noundef nonnull align 4 dereferenceable(4) %5, i32 noundef %6), !dbg !13712
  ret ptr %5, !dbg !13713
}

; Function Attrs: noinline nounwind optnone sspstrong uwtable
define linkonce_odr noundef ptr @_ZN2zx11object_baseC2Ej(ptr noundef nonnull returned align 4 dereferenceable(4) %0, i32 noundef %1) unnamed_addr #3 comdat align 2 !dbg !13714 {
  %3 = alloca ptr, align 8
  %4 = alloca i32, align 4
  store ptr %0, ptr %3, align 8
  call void @llvm.dbg.declare(metadata ptr %3, metadata !13715, metadata !DIExpression()), !dbg !13717
  store i32 %1, ptr %4, align 4
  call void @llvm.dbg.declare(metadata ptr %4, metadata !13718, metadata !DIExpression()), !dbg !13719
  %5 = load ptr, ptr %3, align 8
  %6 = getelementptr inbounds %"class.zx::object_base", ptr %5, i32 0, i32 0, !dbg !13720
  %7 = load i32, ptr %4, align 4, !dbg !13721
  store i32 %7, ptr %6, align 4, !dbg !13720
  ret ptr %5, !dbg !13722
}

; Function Attrs: noinline optnone sspstrong uwtable
define linkonce_odr noundef ptr @_ZN4fidl8internal20UnownedClientEndBaseIN20fuchsia_hardware_pci6DeviceENS0_16ChannelTransportEECI2NS0_19UnownedTransportEndIS3_S4_EEERKN2zx7unownedINS7_7channelEEE(ptr noundef nonnull returned align 4 dereferenceable(4) %0, ptr noundef nonnull align 4 dereferenceable(4) %1) unnamed_addr #4 comdat align 2 !dbg !13723 {
  %3 = alloca ptr, align 8
  %4 = alloca ptr, align 8
  store ptr %0, ptr %3, align 8
  call void @llvm.dbg.declare(metadata ptr %3, metadata !13727, metadata !DIExpression()), !dbg !13729
  store ptr %1, ptr %4, align 8
  call void @llvm.dbg.declare(metadata ptr %4, metadata !13730, metadata !DIExpression()), !dbg !13729
  %5 = load ptr, ptr %3, align 8
  %6 = load ptr, ptr %4, align 8, !dbg !13731
  %7 = call noundef ptr @_ZN4fidl8internal19UnownedTransportEndIN20fuchsia_hardware_pci6DeviceENS0_16ChannelTransportEEC2ERKN2zx7unownedINS6_7channelEEE(ptr noundef nonnull align 4 dereferenceable(4) %5, ptr noundef nonnull align 4 dereferenceable(4) %6), !dbg !13731
  ret ptr %5, !dbg !13731
}

; Function Attrs: noinline optnone sspstrong uwtable
define linkonce_odr noundef ptr @_ZN4fidl8internal19UnownedTransportEndIN20fuchsia_hardware_pci6DeviceENS0_16ChannelTransportEEC2ERKN2zx7unownedINS6_7channelEEE(ptr noundef nonnull returned align 4 dereferenceable(4) %0, ptr noundef nonnull align 4 dereferenceable(4) %1) unnamed_addr #4 comdat align 2 !dbg !13732 {
  %3 = alloca ptr, align 8
  %4 = alloca ptr, align 8
  store ptr %0, ptr %3, align 8
  call void @llvm.dbg.declare(metadata ptr %3, metadata !13733, metadata !DIExpression()), !dbg !13735
  store ptr %1, ptr %4, align 8
  call void @llvm.dbg.declare(metadata ptr %4, metadata !13736, metadata !DIExpression()), !dbg !13737
  %5 = load ptr, ptr %3, align 8
  %6 = getelementptr inbounds %"class.fidl::internal::UnownedTransportEnd", ptr %5, i32 0, i32 0, !dbg !13738
  %7 = load ptr, ptr %4, align 8, !dbg !13739
  %8 = call noundef ptr @_ZNK2zx7unownedINS_7channelEEptEv(ptr noundef nonnull align 4 dereferenceable(4) %7), !dbg !13739
  %9 = call noundef i32 @_ZNK2zx11object_base3getEv(ptr noundef nonnull align 4 dereferenceable(4) %8), !dbg !13740
  store i32 %9, ptr %6, align 4, !dbg !13738
  ret ptr %5, !dbg !13741
}

; Function Attrs: mustprogress noinline nounwind optnone sspstrong uwtable
define linkonce_odr noundef ptr @_ZNK2zx7unownedINS_7channelEEptEv(ptr noundef nonnull align 4 dereferenceable(4) %0) #2 comdat align 2 !dbg !13742 {
  %2 = alloca ptr, align 8
  store ptr %0, ptr %2, align 8
  call void @llvm.dbg.declare(metadata ptr %2, metadata !13743, metadata !DIExpression()), !dbg !13745
  %3 = load ptr, ptr %2, align 8
  %4 = getelementptr inbounds %"class.zx::unowned", ptr %3, i32 0, i32 0, !dbg !13746
  ret ptr %4, !dbg !13747
}

; Function Attrs: mustprogress noinline optnone sspstrong uwtable
define linkonce_odr void @_ZN2zx7unownedINS_7channelEE13release_valueEv(ptr noundef nonnull align 4 dereferenceable(4) %0) #0 comdat align 2 !dbg !13748 {
  %2 = alloca ptr, align 8
  %3 = alloca i32, align 4
  store ptr %0, ptr %2, align 8
  call void @llvm.dbg.declare(metadata ptr %2, metadata !13749, metadata !DIExpression()), !dbg !13750
  %4 = load ptr, ptr %2, align 8
  call void @llvm.dbg.declare(metadata ptr %3, metadata !13751, metadata !DIExpression()), !dbg !13752
  %5 = getelementptr inbounds %"class.zx::unowned", ptr %4, i32 0, i32 0, !dbg !13753
  %6 = call noundef i32 @_ZN2zx11object_base7releaseEv(ptr noundef nonnull align 4 dereferenceable(4) %5), !dbg !13754
  store i32 %6, ptr %3, align 4, !dbg !13752
  ret void, !dbg !13755
}

; Function Attrs: noinline noreturn nounwind
define linkonce_odr hidden void @__clang_call_terminate(ptr %0) #8 comdat {
  %2 = call ptr @__cxa_begin_catch(ptr %0) #16
  call void @_ZSt9terminatev() #18
  unreachable
}

declare ptr @__cxa_begin_catch(ptr)

declare void @_ZSt9terminatev()

; Function Attrs: noinline nounwind optnone sspstrong uwtable
define linkonce_odr noundef ptr @_ZN2zx7channelD2Ev(ptr noundef nonnull returned align 4 dereferenceable(4) %0) unnamed_addr #3 comdat align 2 !dbg !13756 {
  %2 = alloca ptr, align 8
  store ptr %0, ptr %2, align 8
  call void @llvm.dbg.declare(metadata ptr %2, metadata !13758, metadata !DIExpression()), !dbg !13759
  %3 = load ptr, ptr %2, align 8
  %4 = call noundef ptr @_ZN2zx6objectINS_7channelEED2Ev(ptr noundef nonnull align 4 dereferenceable(4) %3) #16, !dbg !13760
  ret ptr %3, !dbg !13762
}

; Function Attrs: mustprogress noinline nounwind optnone sspstrong uwtable
define linkonce_odr noundef i32 @_ZN2zx11object_base7releaseEv(ptr noundef nonnull align 4 dereferenceable(4) %0) #2 comdat align 2 !dbg !13763 {
  %2 = alloca ptr, align 8
  %3 = alloca i32, align 4
  store ptr %0, ptr %2, align 8
  call void @llvm.dbg.declare(metadata ptr %2, metadata !13764, metadata !DIExpression()), !dbg !13765
  %4 = load ptr, ptr %2, align 8
  call void @llvm.dbg.declare(metadata ptr %3, metadata !13766, metadata !DIExpression()), !dbg !13767
  %5 = getelementptr inbounds %"class.zx::object_base", ptr %4, i32 0, i32 0, !dbg !13768
  %6 = load i32, ptr %5, align 4, !dbg !13768
  store i32 %6, ptr %3, align 4, !dbg !13767
  %7 = getelementptr inbounds %"class.zx::object_base", ptr %4, i32 0, i32 0, !dbg !13769
  store i32 0, ptr %7, align 4, !dbg !13770
  %8 = load i32, ptr %3, align 4, !dbg !13771
  ret i32 %8, !dbg !13772
}

; Function Attrs: noinline nounwind optnone sspstrong uwtable
define linkonce_odr noundef ptr @_ZN2zx6objectINS_7channelEED2Ev(ptr noundef nonnull returned align 4 dereferenceable(4) %0) unnamed_addr #3 comdat align 2 !dbg !13773 {
  %2 = alloca ptr, align 8
  store ptr %0, ptr %2, align 8
  call void @llvm.dbg.declare(metadata ptr %2, metadata !13775, metadata !DIExpression()), !dbg !13776
  %3 = load ptr, ptr %2, align 8
  %4 = call noundef ptr @_ZN2zx11object_baseD2Ev(ptr noundef nonnull align 4 dereferenceable(4) %3) #16, !dbg !13777
  ret ptr %3, !dbg !13779
}

; Function Attrs: noinline nounwind optnone sspstrong uwtable
define linkonce_odr noundef ptr @_ZN2zx11object_baseD2Ev(ptr noundef nonnull returned align 4 dereferenceable(4) %0) unnamed_addr #3 comdat align 2 personality ptr @__gxx_personality_v0 !dbg !13780 {
  %2 = alloca ptr, align 8
  store ptr %0, ptr %2, align 8
  call void @llvm.dbg.declare(metadata ptr %2, metadata !13781, metadata !DIExpression()), !dbg !13782
  %3 = load ptr, ptr %2, align 8
  invoke void @_ZN2zx11object_base5closeEv(ptr noundef nonnull align 4 dereferenceable(4) %3)
          to label %4 unwind label %5, !dbg !13783

4:                                                ; preds = %1
  ret ptr %3, !dbg !13785

5:                                                ; preds = %1
  %6 = landingpad { ptr, i32 }
          catch ptr null, !dbg !13783
  %7 = extractvalue { ptr, i32 } %6, 0, !dbg !13783
  call void @__clang_call_terminate(ptr %7) #18, !dbg !13783
  unreachable, !dbg !13783
}

; Function Attrs: mustprogress noinline optnone sspstrong uwtable
define linkonce_odr void @_ZN2zx11object_base5closeEv(ptr noundef nonnull align 4 dereferenceable(4) %0) #0 comdat align 2 !dbg !13786 {
  %2 = alloca ptr, align 8
  store ptr %0, ptr %2, align 8
  call void @llvm.dbg.declare(metadata ptr %2, metadata !13787, metadata !DIExpression()), !dbg !13788
  %3 = load ptr, ptr %2, align 8
  %4 = getelementptr inbounds %"class.zx::object_base", ptr %3, i32 0, i32 0, !dbg !13789
  %5 = load i32, ptr %4, align 4, !dbg !13789
  %6 = icmp ne i32 %5, 0, !dbg !13791
  br i1 %6, label %7, label %12, !dbg !13792

7:                                                ; preds = %1
  %8 = getelementptr inbounds %"class.zx::object_base", ptr %3, i32 0, i32 0, !dbg !13793
  %9 = load i32, ptr %8, align 4, !dbg !13793
  %10 = call i32 @zx_handle_close(i32 noundef %9) #19, !dbg !13795
  %11 = getelementptr inbounds %"class.zx::object_base", ptr %3, i32 0, i32 0, !dbg !13796
  store i32 0, ptr %11, align 4, !dbg !13797
  br label %12, !dbg !13798

12:                                               ; preds = %7, %1
  ret void, !dbg !13799
}

; Function Attrs: nocallback
declare i32 @zx_handle_close(i32 noundef) #9

; Function Attrs: noinline optnone sspstrong uwtable
define linkonce_odr noundef ptr @_ZN3fit6resultIiJEEC2IiLb1EEENS_5errorIT_EE(ptr noundef nonnull returned align 4 dereferenceable(8) %0, i32 %1) unnamed_addr #4 comdat align 2 !dbg !13800 {
  %3 = alloca %"class.fit::error", align 4
  %4 = alloca ptr, align 8
  %5 = getelementptr inbounds %"class.fit::error", ptr %3, i32 0, i32 0
  store i32 %1, ptr %5, align 4
  store ptr %0, ptr %4, align 8
  call void @llvm.dbg.declare(metadata ptr %4, metadata !13806, metadata !DIExpression()), !dbg !13807
  call void @llvm.dbg.declare(metadata ptr %3, metadata !13808, metadata !DIExpression()), !dbg !13809
  %6 = load ptr, ptr %4, align 8
  %7 = getelementptr inbounds %"class.fit::result", ptr %6, i32 0, i32 0, !dbg !13810
  %8 = getelementptr inbounds %"class.fit::error", ptr %3, i32 0, i32 0, !dbg !13811
  %9 = call noundef ptr @_ZN3fit8internal12storage_typeILNS0_15storage_class_eE0EiJEEC2IiEENS0_7error_tEOT_(ptr noundef nonnull align 4 dereferenceable(8) %7, i32 noundef 0, ptr noundef nonnull align 4 dereferenceable(4) %8), !dbg !13810
  ret ptr %6, !dbg !13812
}

; Function Attrs: noreturn nounwind
declare void @abort() #10

; Function Attrs: noinline optnone sspstrong uwtable
define linkonce_odr noundef ptr @_ZN3fit8internal12storage_typeILNS0_15storage_class_eE0EiJEEC2IiEENS0_7error_tEOT_(ptr noundef nonnull returned align 4 dereferenceable(8) %0, i32 noundef %1, ptr noundef nonnull align 4 dereferenceable(4) %2) unnamed_addr #4 comdat align 2 !dbg !13813 {
  %4 = alloca ptr, align 8
  %5 = alloca i32, align 4
  %6 = alloca ptr, align 8
  store ptr %0, ptr %4, align 8
  call void @llvm.dbg.declare(metadata ptr %4, metadata !13818, metadata !DIExpression()), !dbg !13820
  store i32 %1, ptr %5, align 4
  call void @llvm.dbg.declare(metadata ptr %5, metadata !13821, metadata !DIExpression()), !dbg !13822
  store ptr %2, ptr %6, align 8
  call void @llvm.dbg.declare(metadata ptr %6, metadata !13823, metadata !DIExpression()), !dbg !13824
  %7 = load ptr, ptr %4, align 8
  %8 = getelementptr inbounds %"struct.fit::internal::storage_type", ptr %7, i32 0, i32 0, !dbg !13825
  store i32 1, ptr %8, align 4, !dbg !13825
  %9 = getelementptr inbounds %"struct.fit::internal::storage_type", ptr %7, i32 0, i32 1, !dbg !13826
  %10 = load ptr, ptr %6, align 8, !dbg !13827
  %11 = call noundef ptr @_ZN3fit8internal19error_or_value_typeIiNS0_10empty_typeELNS0_15storage_class_eE0EEC2IiEENS0_7error_tEOT_(ptr noundef nonnull align 4 dereferenceable(4) %9, i32 noundef 0, ptr noundef nonnull align 4 dereferenceable(4) %10), !dbg !13826
  ret ptr %7, !dbg !13828
}

; Function Attrs: noinline nounwind optnone sspstrong uwtable
define linkonce_odr noundef ptr @_ZN3fit8internal19error_or_value_typeIiNS0_10empty_typeELNS0_15storage_class_eE0EEC2IiEENS0_7error_tEOT_(ptr noundef nonnull returned align 4 dereferenceable(4) %0, i32 noundef %1, ptr noundef nonnull align 4 dereferenceable(4) %2) unnamed_addr #3 comdat align 2 !dbg !13829 {
  %4 = alloca ptr, align 8
  %5 = alloca i32, align 4
  %6 = alloca ptr, align 8
  store ptr %0, ptr %4, align 8
  call void @llvm.dbg.declare(metadata ptr %4, metadata !13833, metadata !DIExpression()), !dbg !13835
  store i32 %1, ptr %5, align 4
  call void @llvm.dbg.declare(metadata ptr %5, metadata !13836, metadata !DIExpression()), !dbg !13837
  store ptr %2, ptr %6, align 8
  call void @llvm.dbg.declare(metadata ptr %6, metadata !13838, metadata !DIExpression()), !dbg !13839
  %7 = load ptr, ptr %4, align 8
  %8 = load ptr, ptr %6, align 8, !dbg !13840
  %9 = load i32, ptr %8, align 4, !dbg !13841
  store i32 %9, ptr %7, align 4, !dbg !13842
  ret ptr %7, !dbg !13843
}

; Function Attrs: mustprogress noinline nounwind optnone sspstrong uwtable
define linkonce_odr noundef zeroext i1 @_ZNK3fit6resultIiJPN20fuchsia_hardware_pci4wire20DeviceGetBarResponseEEE5is_okEv(ptr noundef nonnull align 8 dereferenceable(16) %0) #2 comdat align 2 !dbg !13844 {
  %2 = alloca ptr, align 8
  store ptr %0, ptr %2, align 8
  call void @llvm.dbg.declare(metadata ptr %2, metadata !13845, metadata !DIExpression()), !dbg !13846
  %3 = load ptr, ptr %2, align 8
  %4 = getelementptr inbounds %"class.fit::result.34", ptr %3, i32 0, i32 0, !dbg !13847
  %5 = getelementptr inbounds %"struct.fit::internal::storage_type.35", ptr %4, i32 0, i32 0, !dbg !13848
  %6 = load i32, ptr %5, align 8, !dbg !13848
  %7 = icmp eq i32 %6, 2, !dbg !13849
  ret i1 %7, !dbg !13850
}

declare i32 @mmio_buffer_init(ptr noundef, i64 noundef, i64 noundef, i32 noundef, i32 noundef) #6

; Function Attrs: noinline optnone sspstrong uwtable
define linkonce_odr noundef ptr @_ZN2zx6statusIJN3fdf10MmioBufferEEEC2EN3fit5errorIiEE(ptr noundef nonnull returned align 8 dereferenceable(64) %0, i32 %1) unnamed_addr #4 comdat align 2 personality ptr @__gxx_personality_v0 !dbg !13851 {
  %3 = alloca %"class.fit::error", align 4
  %4 = alloca ptr, align 8
  %5 = alloca %"class.fit::error", align 4
  %6 = alloca ptr, align 8
  %7 = alloca i32, align 4
  %8 = getelementptr inbounds %"class.fit::error", ptr %3, i32 0, i32 0
  store i32 %1, ptr %8, align 4
  store ptr %0, ptr %4, align 8
  call void @llvm.dbg.declare(metadata ptr %4, metadata !13852, metadata !DIExpression()), !dbg !13853
  call void @llvm.dbg.declare(metadata ptr %3, metadata !13854, metadata !DIExpression()), !dbg !13855
  %9 = load ptr, ptr %4, align 8
  call void @llvm.memcpy.p0.p0.i64(ptr align 4 %5, ptr align 4 %3, i64 4, i1 false), !dbg !13856
  %10 = getelementptr inbounds %"class.fit::error", ptr %5, i32 0, i32 0, !dbg !13857
  %11 = load i32, ptr %10, align 4, !dbg !13857
  %12 = call noundef ptr @_ZN3fit6resultIiJN3fdf10MmioBufferEEEC2IiLb1EEENS_5errorIT_EE(ptr noundef nonnull align 8 dereferenceable(64) %9, i32 %11), !dbg !13857
  %13 = invoke noundef nonnull align 4 dereferenceable(4) ptr @_ZNR3fit6resultIiJN3fdf10MmioBufferEEE11error_valueEv(ptr noundef nonnull align 8 dereferenceable(64) %9)
          to label %14 unwind label %18, !dbg !13858

14:                                               ; preds = %2
  %15 = load i32, ptr %13, align 4, !dbg !13858
  %16 = icmp eq i32 %15, 0, !dbg !13861
  br i1 %16, label %17, label %23, !dbg !13862

17:                                               ; preds = %14
  call void @abort() #18, !dbg !13863
  unreachable, !dbg !13863

18:                                               ; preds = %2
  %19 = landingpad { ptr, i32 }
          cleanup, !dbg !13865
  %20 = extractvalue { ptr, i32 } %19, 0, !dbg !13865
  store ptr %20, ptr %6, align 8, !dbg !13865
  %21 = extractvalue { ptr, i32 } %19, 1, !dbg !13865
  store i32 %21, ptr %7, align 4, !dbg !13865
  %22 = call noundef ptr @_ZN3fit6resultIiJN3fdf10MmioBufferEEED2Ev(ptr noundef nonnull align 8 dereferenceable(64) %9) #16, !dbg !13866
  br label %24, !dbg !13866

23:                                               ; preds = %14
  ret ptr %9, !dbg !13867

24:                                               ; preds = %18
  %25 = load ptr, ptr %6, align 8, !dbg !13866
  %26 = load i32, ptr %7, align 4, !dbg !13866
  %27 = insertvalue { ptr, i32 } undef, ptr %25, 0, !dbg !13866
  %28 = insertvalue { ptr, i32 } %27, i32 %26, 1, !dbg !13866
  resume { ptr, i32 } %28, !dbg !13866
}

; Function Attrs: mustprogress noinline optnone sspstrong uwtable
define linkonce_odr void @_ZN3fit2okIN3fdf10MmioBufferEEENS_7successIJNSt3__25decayIT_E4typeEEEEOS6_(ptr noalias sret(%"class.fit::success.107") align 8 %0, ptr noundef nonnull align 8 dereferenceable(56) %1) #0 comdat !dbg !13868 {
  %3 = alloca ptr, align 8
  %4 = alloca ptr, align 8
  store ptr %0, ptr %3, align 8
  store ptr %1, ptr %4, align 8
  call void @llvm.dbg.declare(metadata ptr %4, metadata !13871, metadata !DIExpression()), !dbg !13872
  %5 = load ptr, ptr %4, align 8, !dbg !13873
  %6 = call noundef ptr @_ZN3fit7successIJN3fdf10MmioBufferEEEC2IJS2_ELb1EEEDpOT_(ptr noundef nonnull align 8 dereferenceable(56) %0, ptr noundef nonnull align 8 dereferenceable(56) %5), !dbg !13874
  ret void, !dbg !13875
}

; Function Attrs: noinline optnone sspstrong uwtable
define linkonce_odr noundef ptr @_ZN3fdf10MmioBufferC2E13mmio_buffer_tPKNS_8internal13MmioBufferOpsEPKv(ptr noundef nonnull returned align 8 dereferenceable(56) %0, ptr noundef byval(%struct.mmio_buffer_t) align 8 %1, ptr noundef %2, ptr noundef %3) unnamed_addr #4 comdat align 2 !dbg !13876 {
  %5 = alloca ptr, align 8
  %6 = alloca ptr, align 8
  %7 = alloca ptr, align 8
  store ptr %0, ptr %5, align 8
  call void @llvm.dbg.declare(metadata ptr %5, metadata !13877, metadata !DIExpression()), !dbg !13878
  call void @llvm.dbg.declare(metadata ptr %1, metadata !13879, metadata !DIExpression()), !dbg !13880
  store ptr %2, ptr %6, align 8
  call void @llvm.dbg.declare(metadata ptr %6, metadata !13881, metadata !DIExpression()), !dbg !13882
  store ptr %3, ptr %7, align 8
  call void @llvm.dbg.declare(metadata ptr %7, metadata !13883, metadata !DIExpression()), !dbg !13884
  %8 = load ptr, ptr %5, align 8
  store ptr getelementptr inbounds ({ [4 x i32] }, ptr @_ZTVN3fdf10MmioBufferE.local, i32 0, inrange i32 0, i32 2), ptr %8, align 8, !dbg !13885
  %9 = getelementptr inbounds %"class.fdf::MmioBuffer", ptr %8, i32 0, i32 1, !dbg !13886
  call void @llvm.memcpy.p0.p0.i64(ptr align 8 %9, ptr align 8 %1, i64 32, i1 false), !dbg !13886
  %10 = getelementptr inbounds %"class.fdf::MmioBuffer", ptr %8, i32 0, i32 2, !dbg !13887
  %11 = load ptr, ptr %6, align 8, !dbg !13888
  store ptr %11, ptr %10, align 8, !dbg !13887
  %12 = getelementptr inbounds %"class.fdf::MmioBuffer", ptr %8, i32 0, i32 3, !dbg !13889
  %13 = load ptr, ptr %7, align 8, !dbg !13890
  store ptr %13, ptr %12, align 8, !dbg !13889
  br label %14, !dbg !13891

14:                                               ; preds = %4
  %15 = getelementptr inbounds %"class.fdf::MmioBuffer", ptr %8, i32 0, i32 1, !dbg !13893
  %16 = getelementptr inbounds %struct.mmio_buffer_t, ptr %15, i32 0, i32 0, !dbg !13893
  %17 = load ptr addrspace(100), ptr %16, align 8, !dbg !13893
  %18 = icmp ne ptr addrspace(100) %17, null, !dbg !13893
  %19 = xor i1 %18, true, !dbg !13893
  %20 = xor i1 %19, true, !dbg !13893
  %21 = xor i1 %20, true, !dbg !13893
  br i1 %21, label %22, label %23, !dbg !13896

22:                                               ; preds = %14
  call void (ptr, ...) @__zx_panic(ptr noundef @.str.12, ptr noundef @.str.15, i32 noundef 60, ptr noundef @.str.16) #17, !dbg !13897
  unreachable, !dbg !13897

23:                                               ; preds = %14
  br label %24, !dbg !13896

24:                                               ; preds = %23
  ret ptr %8, !dbg !13899
}

; Function Attrs: noinline optnone sspstrong uwtable
define linkonce_odr noundef ptr @_ZN2zx6statusIJN3fdf10MmioBufferEEECI2N3fit6resultIiJS2_EEEIS2_Lb1EEENS4_7successIJT_EEE(ptr noundef nonnull returned align 8 dereferenceable(64) %0, ptr noundef %1) unnamed_addr #4 comdat align 2 !dbg !13900 {
  %3 = alloca ptr, align 8
  store ptr %0, ptr %3, align 8
  call void @llvm.dbg.declare(metadata ptr %3, metadata !13904, metadata !DIExpression()), !dbg !13905
  call void @llvm.dbg.declare(metadata ptr %1, metadata !13906, metadata !DIExpression()), !dbg !13905
  %4 = load ptr, ptr %3, align 8
  %5 = call noundef ptr @_ZN3fit6resultIiJN3fdf10MmioBufferEEEC2IS2_Lb1EEENS_7successIJT_EEE(ptr noundef nonnull align 8 dereferenceable(64) %4, ptr noundef %1), !dbg !13907
  ret ptr %4, !dbg !13907
}

; Function Attrs: noinline nounwind optnone sspstrong uwtable
define linkonce_odr noundef ptr @_ZN3fit7successIJN3fdf10MmioBufferEEED2Ev(ptr noundef nonnull returned align 8 dereferenceable(56) %0) unnamed_addr #3 comdat align 2 !dbg !13908 {
  %2 = alloca ptr, align 8
  store ptr %0, ptr %2, align 8
  call void @llvm.dbg.declare(metadata ptr %2, metadata !13909, metadata !DIExpression()), !dbg !13911
  %3 = load ptr, ptr %2, align 8
  %4 = getelementptr inbounds %"class.fit::success.107", ptr %3, i32 0, i32 0, !dbg !13912
  %5 = call noundef ptr @_ZN3fdf10MmioBufferD2Ev(ptr noundef nonnull align 8 dereferenceable(56) %4) #16, !dbg !13912
  ret ptr %3, !dbg !13914
}

; Function Attrs: noinline nounwind optnone sspstrong uwtable
define linkonce_odr noundef ptr @_ZN3fdf10MmioBufferD2Ev(ptr noundef nonnull returned align 8 dereferenceable(56) %0) unnamed_addr #3 comdat align 2 personality ptr @__gxx_personality_v0 !dbg !13915 {
  %2 = alloca ptr, align 8
  store ptr %0, ptr %2, align 8
  call void @llvm.dbg.declare(metadata ptr %2, metadata !13916, metadata !DIExpression()), !dbg !13917
  %3 = load ptr, ptr %2, align 8
  store ptr getelementptr inbounds ({ [4 x i32] }, ptr @_ZTVN3fdf10MmioBufferE.local, i32 0, inrange i32 0, i32 2), ptr %3, align 8, !dbg !13918
  %4 = getelementptr inbounds %"class.fdf::MmioBuffer", ptr %3, i32 0, i32 1, !dbg !13919
  invoke void @mmio_buffer_release(ptr noundef %4)
          to label %5 unwind label %6, !dbg !13921

5:                                                ; preds = %1
  ret ptr %3, !dbg !13922

6:                                                ; preds = %1
  %7 = landingpad { ptr, i32 }
          catch ptr null, !dbg !13921
  %8 = extractvalue { ptr, i32 } %7, 0, !dbg !13921
  call void @__clang_call_terminate(ptr %8) #18, !dbg !13921
  unreachable, !dbg !13921
}

; Function Attrs: noinline optnone sspstrong uwtable
define linkonce_odr noundef ptr @_ZN3fit6resultIiJN3fdf10MmioBufferEEEC2IiLb1EEENS_5errorIT_EE(ptr noundef nonnull returned align 8 dereferenceable(64) %0, i32 %1) unnamed_addr #4 comdat align 2 !dbg !13923 {
  %3 = alloca %"class.fit::error", align 4
  %4 = alloca ptr, align 8
  %5 = getelementptr inbounds %"class.fit::error", ptr %3, i32 0, i32 0
  store i32 %1, ptr %5, align 4
  store ptr %0, ptr %4, align 8
  call void @llvm.dbg.declare(metadata ptr %4, metadata !13927, metadata !DIExpression()), !dbg !13928
  call void @llvm.dbg.declare(metadata ptr %3, metadata !13929, metadata !DIExpression()), !dbg !13930
  %6 = load ptr, ptr %4, align 8
  %7 = getelementptr inbounds %"class.fit::result.52", ptr %6, i32 0, i32 0, !dbg !13931
  %8 = getelementptr inbounds %"class.fit::error", ptr %3, i32 0, i32 0, !dbg !13932
  %9 = call noundef ptr @_ZN3fit8internal12storage_typeILNS0_15storage_class_eE1EiJN3fdf10MmioBufferEEEC2IiEENS0_7error_tEOT_(ptr noundef nonnull align 8 dereferenceable(64) %7, i32 noundef 0, ptr noundef nonnull align 4 dereferenceable(4) %8), !dbg !13931
  ret ptr %6, !dbg !13933
}

; Function Attrs: mustprogress noinline optnone sspstrong uwtable
define linkonce_odr noundef nonnull align 4 dereferenceable(4) ptr @_ZNR3fit6resultIiJN3fdf10MmioBufferEEE11error_valueEv(ptr noundef nonnull align 8 dereferenceable(64) %0) #0 comdat align 2 !dbg !13934 {
  %2 = alloca ptr, align 8
  store ptr %0, ptr %2, align 8
  call void @llvm.dbg.declare(metadata ptr %2, metadata !13935, metadata !DIExpression()), !dbg !13936
  %3 = load ptr, ptr %2, align 8
  %4 = call noundef zeroext i1 @_ZNK3fit6resultIiJN3fdf10MmioBufferEEE8is_errorEv(ptr noundef nonnull align 8 dereferenceable(64) %3), !dbg !13937
  br i1 %4, label %5, label %8, !dbg !13939

5:                                                ; preds = %1
  %6 = getelementptr inbounds %"class.fit::result.52", ptr %3, i32 0, i32 0, !dbg !13940
  %7 = getelementptr inbounds %"struct.fit::internal::storage_type.53", ptr %6, i32 0, i32 1, !dbg !13942
  ret ptr %7, !dbg !13943

8:                                                ; preds = %1
  call void @abort() #18, !dbg !13944
  unreachable, !dbg !13944
}

; Function Attrs: noinline nounwind optnone sspstrong uwtable
define linkonce_odr noundef ptr @_ZN3fit6resultIiJN3fdf10MmioBufferEEED2Ev(ptr noundef nonnull returned align 8 dereferenceable(64) %0) unnamed_addr #3 comdat align 2 !dbg !13945 {
  %2 = alloca ptr, align 8
  store ptr %0, ptr %2, align 8
  call void @llvm.dbg.declare(metadata ptr %2, metadata !13947, metadata !DIExpression()), !dbg !13948
  %3 = load ptr, ptr %2, align 8
  %4 = getelementptr inbounds %"class.fit::result.52", ptr %3, i32 0, i32 0, !dbg !13949
  %5 = call noundef ptr @_ZN3fit8internal12storage_typeILNS0_15storage_class_eE1EiJN3fdf10MmioBufferEEED2Ev(ptr noundef nonnull align 8 dereferenceable(64) %4) #16, !dbg !13949
  ret ptr %3, !dbg !13951
}

; Function Attrs: noinline optnone sspstrong uwtable
define linkonce_odr noundef ptr @_ZN3fit8internal12storage_typeILNS0_15storage_class_eE1EiJN3fdf10MmioBufferEEEC2IiEENS0_7error_tEOT_(ptr noundef nonnull returned align 8 dereferenceable(64) %0, i32 noundef %1, ptr noundef nonnull align 4 dereferenceable(4) %2) unnamed_addr #4 comdat align 2 !dbg !13952 {
  %4 = alloca ptr, align 8
  %5 = alloca i32, align 4
  %6 = alloca ptr, align 8
  store ptr %0, ptr %4, align 8
  call void @llvm.dbg.declare(metadata ptr %4, metadata !13956, metadata !DIExpression()), !dbg !13958
  store i32 %1, ptr %5, align 4
  call void @llvm.dbg.declare(metadata ptr %5, metadata !13959, metadata !DIExpression()), !dbg !13960
  store ptr %2, ptr %6, align 8
  call void @llvm.dbg.declare(metadata ptr %6, metadata !13961, metadata !DIExpression()), !dbg !13962
  %7 = load ptr, ptr %4, align 8
  %8 = getelementptr inbounds %"struct.fit::internal::storage_type.53", ptr %7, i32 0, i32 0, !dbg !13963
  store i32 1, ptr %8, align 8, !dbg !13963
  %9 = getelementptr inbounds %"struct.fit::internal::storage_type.53", ptr %7, i32 0, i32 1, !dbg !13964
  %10 = load ptr, ptr %6, align 8, !dbg !13965
  %11 = call noundef ptr @_ZN3fit8internal19error_or_value_typeIiN3fdf10MmioBufferELNS0_15storage_class_eE1EEC2IiEENS0_7error_tEOT_(ptr noundef nonnull align 8 dereferenceable(56) %9, i32 noundef 0, ptr noundef nonnull align 4 dereferenceable(4) %10), !dbg !13964
  ret ptr %7, !dbg !13966
}

; Function Attrs: noinline nounwind optnone sspstrong uwtable
define linkonce_odr noundef ptr @_ZN3fit8internal19error_or_value_typeIiN3fdf10MmioBufferELNS0_15storage_class_eE1EEC2IiEENS0_7error_tEOT_(ptr noundef nonnull returned align 8 dereferenceable(56) %0, i32 noundef %1, ptr noundef nonnull align 4 dereferenceable(4) %2) unnamed_addr #3 comdat align 2 !dbg !13967 {
  %4 = alloca ptr, align 8
  %5 = alloca i32, align 4
  %6 = alloca ptr, align 8
  store ptr %0, ptr %4, align 8
  call void @llvm.dbg.declare(metadata ptr %4, metadata !13969, metadata !DIExpression()), !dbg !13971
  store i32 %1, ptr %5, align 4
  call void @llvm.dbg.declare(metadata ptr %5, metadata !13972, metadata !DIExpression()), !dbg !13973
  store ptr %2, ptr %6, align 8
  call void @llvm.dbg.declare(metadata ptr %6, metadata !13974, metadata !DIExpression()), !dbg !13975
  %7 = load ptr, ptr %4, align 8
  %8 = load ptr, ptr %6, align 8, !dbg !13976
  %9 = load i32, ptr %8, align 4, !dbg !13977
  store i32 %9, ptr %7, align 8, !dbg !13978
  ret ptr %7, !dbg !13979
}

; Function Attrs: noinline nounwind optnone sspstrong uwtable
define linkonce_odr noundef ptr @_ZN3fit8internal12storage_typeILNS0_15storage_class_eE1EiJN3fdf10MmioBufferEEED2Ev(ptr noundef nonnull returned align 8 dereferenceable(64) %0) unnamed_addr #3 comdat align 2 personality ptr @__gxx_personality_v0 !dbg !13980 {
  %2 = alloca ptr, align 8
  store ptr %0, ptr %2, align 8
  call void @llvm.dbg.declare(metadata ptr %2, metadata !13981, metadata !DIExpression()), !dbg !13982
  %3 = load ptr, ptr %2, align 8
  invoke void @_ZN3fit8internal12storage_typeILNS0_15storage_class_eE1EiJN3fdf10MmioBufferEEE7destroyEv(ptr noundef nonnull align 8 dereferenceable(64) %3)
          to label %4 unwind label %7, !dbg !13983

4:                                                ; preds = %1
  %5 = getelementptr inbounds %"struct.fit::internal::storage_type.53", ptr %3, i32 0, i32 1, !dbg !13985
  %6 = call noundef ptr @_ZN3fit8internal19error_or_value_typeIiN3fdf10MmioBufferELNS0_15storage_class_eE1EED2Ev(ptr noundef nonnull align 8 dereferenceable(56) %5) #16, !dbg !13985
  ret ptr %3, !dbg !13986

7:                                                ; preds = %1
  %8 = landingpad { ptr, i32 }
          catch ptr null, !dbg !13983
  %9 = extractvalue { ptr, i32 } %8, 0, !dbg !13983
  call void @__clang_call_terminate(ptr %9) #18, !dbg !13983
  unreachable, !dbg !13983
}

; Function Attrs: mustprogress noinline optnone sspstrong uwtable
define linkonce_odr void @_ZN3fit8internal12storage_typeILNS0_15storage_class_eE1EiJN3fdf10MmioBufferEEE7destroyEv(ptr noundef nonnull align 8 dereferenceable(64) %0) #0 comdat align 2 !dbg !13987 {
  %2 = alloca ptr, align 8
  store ptr %0, ptr %2, align 8
  call void @llvm.dbg.declare(metadata ptr %2, metadata !13988, metadata !DIExpression()), !dbg !13989
  %3 = load ptr, ptr %2, align 8
  %4 = getelementptr inbounds %"struct.fit::internal::storage_type.53", ptr %3, i32 0, i32 0, !dbg !13990
  %5 = load i32, ptr %4, align 8, !dbg !13990
  %6 = icmp eq i32 %5, 2, !dbg !13992
  br i1 %6, label %7, label %9, !dbg !13993

7:                                                ; preds = %1
  %8 = getelementptr inbounds %"struct.fit::internal::storage_type.53", ptr %3, i32 0, i32 1, !dbg !13994
  call void @_ZN3fit8internal19error_or_value_typeIiN3fdf10MmioBufferELNS0_15storage_class_eE1EE7destroyENS0_7value_tE(ptr noundef nonnull align 8 dereferenceable(56) %8, i32 noundef 0), !dbg !13996
  br label %16, !dbg !13997

9:                                                ; preds = %1
  %10 = getelementptr inbounds %"struct.fit::internal::storage_type.53", ptr %3, i32 0, i32 0, !dbg !13998
  %11 = load i32, ptr %10, align 8, !dbg !13998
  %12 = icmp eq i32 %11, 1, !dbg !14000
  br i1 %12, label %13, label %15, !dbg !14001

13:                                               ; preds = %9
  %14 = getelementptr inbounds %"struct.fit::internal::storage_type.53", ptr %3, i32 0, i32 1, !dbg !14002
  call void @_ZN3fit8internal19error_or_value_typeIiN3fdf10MmioBufferELNS0_15storage_class_eE1EE7destroyENS0_7error_tE(ptr noundef nonnull align 8 dereferenceable(56) %14, i32 noundef 0), !dbg !14004
  br label %15, !dbg !14005

15:                                               ; preds = %13, %9
  br label %16

16:                                               ; preds = %15, %7
  ret void, !dbg !14006
}

; Function Attrs: noinline nounwind optnone sspstrong uwtable
define linkonce_odr noundef ptr @_ZN3fit8internal19error_or_value_typeIiN3fdf10MmioBufferELNS0_15storage_class_eE1EED2Ev(ptr noundef nonnull returned align 8 dereferenceable(56) %0) unnamed_addr #3 comdat align 2 !dbg !14007 {
  %2 = alloca ptr, align 8
  store ptr %0, ptr %2, align 8
  call void @llvm.dbg.declare(metadata ptr %2, metadata !14008, metadata !DIExpression()), !dbg !14009
  %3 = load ptr, ptr %2, align 8
  ret ptr %3, !dbg !14010
}

; Function Attrs: mustprogress noinline nounwind optnone sspstrong uwtable
define linkonce_odr void @_ZN3fit8internal19error_or_value_typeIiN3fdf10MmioBufferELNS0_15storage_class_eE1EE7destroyENS0_7value_tE(ptr noundef nonnull align 8 dereferenceable(56) %0, i32 noundef %1) #2 comdat align 2 !dbg !14011 {
  %3 = alloca ptr, align 8
  %4 = alloca i32, align 4
  store ptr %0, ptr %3, align 8
  call void @llvm.dbg.declare(metadata ptr %3, metadata !14012, metadata !DIExpression()), !dbg !14013
  store i32 %1, ptr %4, align 4
  call void @llvm.dbg.declare(metadata ptr %4, metadata !14014, metadata !DIExpression()), !dbg !14015
  %5 = load ptr, ptr %3, align 8
  %6 = call noundef ptr @_ZN3fdf10MmioBufferD2Ev(ptr noundef nonnull align 8 dereferenceable(56) %5) #16, !dbg !14016
  ret void, !dbg !14017
}

; Function Attrs: mustprogress noinline nounwind optnone sspstrong uwtable
define linkonce_odr void @_ZN3fit8internal19error_or_value_typeIiN3fdf10MmioBufferELNS0_15storage_class_eE1EE7destroyENS0_7error_tE(ptr noundef nonnull align 8 dereferenceable(56) %0, i32 noundef %1) #2 comdat align 2 !dbg !14018 {
  %3 = alloca ptr, align 8
  %4 = alloca i32, align 4
  store ptr %0, ptr %3, align 8
  call void @llvm.dbg.declare(metadata ptr %3, metadata !14019, metadata !DIExpression()), !dbg !14020
  store i32 %1, ptr %4, align 4
  call void @llvm.dbg.declare(metadata ptr %4, metadata !14021, metadata !DIExpression()), !dbg !14022
  %5 = load ptr, ptr %3, align 8
  ret void, !dbg !14023
}

; Function Attrs: noinline optnone sspstrong uwtable
define linkonce_odr noundef ptr @_ZN3fit7successIJN3fdf10MmioBufferEEEC2IJS2_ELb1EEEDpOT_(ptr noundef nonnull returned align 8 dereferenceable(56) %0, ptr noundef nonnull align 8 dereferenceable(56) %1) unnamed_addr #4 comdat align 2 !dbg !14024 {
  %3 = alloca ptr, align 8
  %4 = alloca ptr, align 8
  store ptr %0, ptr %3, align 8
  call void @llvm.dbg.declare(metadata ptr %3, metadata !14030, metadata !DIExpression()), !dbg !14031
  store ptr %1, ptr %4, align 8
  call void @llvm.dbg.declare(metadata ptr %4, metadata !14032, metadata !DIExpression()), !dbg !14033
  %5 = load ptr, ptr %3, align 8
  %6 = getelementptr inbounds %"class.fit::success.107", ptr %5, i32 0, i32 0, !dbg !14034
  %7 = load ptr, ptr %4, align 8, !dbg !14035
  %8 = call noundef ptr @_ZN3fdf10MmioBufferC2EOS0_(ptr noundef nonnull align 8 dereferenceable(56) %6, ptr noundef nonnull align 8 dereferenceable(56) %7), !dbg !14034
  ret ptr %5, !dbg !14036
}

; Function Attrs: noinline optnone sspstrong uwtable
define linkonce_odr noundef ptr @_ZN3fdf10MmioBufferC2EOS0_(ptr noundef nonnull returned align 8 dereferenceable(56) %0, ptr noundef nonnull align 8 dereferenceable(56) %1) unnamed_addr #4 comdat align 2 !dbg !14037 {
  %3 = alloca ptr, align 8
  %4 = alloca ptr, align 8
  store ptr %0, ptr %3, align 8
  call void @llvm.dbg.declare(metadata ptr %3, metadata !14038, metadata !DIExpression()), !dbg !14039
  store ptr %1, ptr %4, align 8
  call void @llvm.dbg.declare(metadata ptr %4, metadata !14040, metadata !DIExpression()), !dbg !14041
  %5 = load ptr, ptr %3, align 8
  store ptr getelementptr inbounds ({ [4 x i32] }, ptr @_ZTVN3fdf10MmioBufferE.local, i32 0, inrange i32 0, i32 2), ptr %5, align 8, !dbg !14042
  %6 = getelementptr inbounds %"class.fdf::MmioBuffer", ptr %5, i32 0, i32 1, !dbg !14043
  %7 = load ptr, ptr %4, align 8, !dbg !14044
  call void @_ZN3fdf10MmioBuffer8transferEOS0_(ptr noundef nonnull align 8 dereferenceable(56) %5, ptr noundef nonnull align 8 dereferenceable(56) %7), !dbg !14046
  ret ptr %5, !dbg !14047
}

; Function Attrs: mustprogress noinline nounwind optnone sspstrong uwtable
define linkonce_odr void @_ZN3fdf10MmioBuffer8transferEOS0_(ptr noundef nonnull align 8 dereferenceable(56) %0, ptr noundef nonnull align 8 dereferenceable(56) %1) #2 comdat align 2 !dbg !14048 {
  %3 = alloca ptr, align 8
  %4 = alloca ptr, align 8
  store ptr %0, ptr %3, align 8
  call void @llvm.dbg.declare(metadata ptr %3, metadata !14049, metadata !DIExpression()), !dbg !14050
  store ptr %1, ptr %4, align 8
  call void @llvm.dbg.declare(metadata ptr %4, metadata !14051, metadata !DIExpression()), !dbg !14052
  %5 = load ptr, ptr %3, align 8
  %6 = load ptr, ptr %4, align 8, !dbg !14053
  %7 = getelementptr inbounds %"class.fdf::MmioBuffer", ptr %6, i32 0, i32 1, !dbg !14054
  %8 = getelementptr inbounds %"class.fdf::MmioBuffer", ptr %5, i32 0, i32 1, !dbg !14055
  call void @llvm.memcpy.p0.p0.i64(ptr align 8 %8, ptr align 8 %7, i64 32, i1 false), !dbg !14056
  %9 = load ptr, ptr %4, align 8, !dbg !14057
  %10 = getelementptr inbounds %"class.fdf::MmioBuffer", ptr %9, i32 0, i32 2, !dbg !14058
  %11 = load ptr, ptr %10, align 8, !dbg !14058
  %12 = getelementptr inbounds %"class.fdf::MmioBuffer", ptr %5, i32 0, i32 2, !dbg !14059
  store ptr %11, ptr %12, align 8, !dbg !14060
  %13 = load ptr, ptr %4, align 8, !dbg !14061
  %14 = getelementptr inbounds %"class.fdf::MmioBuffer", ptr %13, i32 0, i32 3, !dbg !14062
  %15 = load ptr, ptr %14, align 8, !dbg !14062
  %16 = getelementptr inbounds %"class.fdf::MmioBuffer", ptr %5, i32 0, i32 3, !dbg !14063
  store ptr %15, ptr %16, align 8, !dbg !14064
  %17 = load ptr, ptr %4, align 8, !dbg !14065
  %18 = getelementptr inbounds %"class.fdf::MmioBuffer", ptr %17, i32 0, i32 1, !dbg !14066
  call void @llvm.memset.p0.i64(ptr align 8 %18, i8 0, i64 32, i1 false), !dbg !14067
  ret void, !dbg !14068
}

; Function Attrs: noinline nounwind optnone sspstrong uwtable
define linkonce_odr void @_ZN3fdf10MmioBufferD0Ev(ptr noundef nonnull align 8 dereferenceable(56) %0) unnamed_addr #3 comdat align 2 !dbg !14069 {
  %2 = alloca ptr, align 8
  store ptr %0, ptr %2, align 8
  call void @llvm.dbg.declare(metadata ptr %2, metadata !14070, metadata !DIExpression()), !dbg !14071
  %3 = load ptr, ptr %2, align 8
  %4 = call noundef ptr @_ZN3fdf10MmioBufferD2Ev(ptr noundef nonnull align 8 dereferenceable(56) %3) #16, !dbg !14072
  call void @_ZdlPv(ptr noundef %3) #20, !dbg !14072
  ret void, !dbg !14073
}

; Function Attrs: argmemonly nocallback nofree nounwind willreturn writeonly
declare void @llvm.memset.p0.i64(ptr nocapture writeonly, i8, i64, i1 immarg) #11

; Function Attrs: nobuiltin nounwind
declare void @_ZdlPv(ptr noundef) #12

; Function Attrs: mustprogress noinline optnone sspstrong uwtable
define internal noundef zeroext i8 @_ZN3fdf8internalL5Read8EPKvRK13mmio_buffer_tm(ptr noundef %0, ptr noundef nonnull align 8 dereferenceable(32) %1, i64 noundef %2) #0 !dbg !14074 {
  %4 = alloca ptr, align 8
  %5 = alloca ptr, align 8
  %6 = alloca i64, align 8
  store ptr %0, ptr %4, align 8
  call void @llvm.dbg.declare(metadata ptr %4, metadata !14075, metadata !DIExpression()), !dbg !14076
  store ptr %1, ptr %5, align 8
  call void @llvm.dbg.declare(metadata ptr %5, metadata !14077, metadata !DIExpression()), !dbg !14078
  store i64 %2, ptr %6, align 8
  call void @llvm.dbg.declare(metadata ptr %6, metadata !14079, metadata !DIExpression()), !dbg !14080
  %7 = load ptr, ptr %4, align 8, !dbg !14081
  %8 = load ptr, ptr %5, align 8, !dbg !14082
  %9 = load i64, ptr %6, align 8, !dbg !14083
  %10 = call noundef ptr addrspace(100) @_ZN3fdf8internalL7GetAddrIhEEPU5AS100VT_PKvRK13mmio_buffer_tm(ptr noundef %7, ptr noundef nonnull align 8 dereferenceable(32) %8, i64 noundef %9), !dbg !14084
  %11 = call noundef zeroext i8 @_ZL9MmioRead8PU5AS100VKh(ptr addrspace(100) noundef %10), !dbg !14085
  ret i8 %11, !dbg !14086
}

; Function Attrs: mustprogress noinline optnone sspstrong uwtable
define internal noundef zeroext i16 @_ZN3fdf8internalL6Read16EPKvRK13mmio_buffer_tm(ptr noundef %0, ptr noundef nonnull align 8 dereferenceable(32) %1, i64 noundef %2) #0 !dbg !14087 {
  %4 = alloca ptr, align 8
  %5 = alloca ptr, align 8
  %6 = alloca i64, align 8
  store ptr %0, ptr %4, align 8
  call void @llvm.dbg.declare(metadata ptr %4, metadata !14088, metadata !DIExpression()), !dbg !14089
  store ptr %1, ptr %5, align 8
  call void @llvm.dbg.declare(metadata ptr %5, metadata !14090, metadata !DIExpression()), !dbg !14091
  store i64 %2, ptr %6, align 8
  call void @llvm.dbg.declare(metadata ptr %6, metadata !14092, metadata !DIExpression()), !dbg !14093
  %7 = load ptr, ptr %4, align 8, !dbg !14094
  %8 = load ptr, ptr %5, align 8, !dbg !14095
  %9 = load i64, ptr %6, align 8, !dbg !14096
  %10 = call noundef ptr addrspace(100) @_ZN3fdf8internalL7GetAddrItEEPU5AS100VT_PKvRK13mmio_buffer_tm(ptr noundef %7, ptr noundef nonnull align 8 dereferenceable(32) %8, i64 noundef %9), !dbg !14097
  %11 = call noundef zeroext i16 @_ZL10MmioRead16PU5AS100VKt(ptr addrspace(100) noundef %10), !dbg !14098
  ret i16 %11, !dbg !14099
}

; Function Attrs: mustprogress noinline optnone sspstrong uwtable
define internal noundef i32 @_ZN3fdf8internalL6Read32EPKvRK13mmio_buffer_tm(ptr noundef %0, ptr noundef nonnull align 8 dereferenceable(32) %1, i64 noundef %2) #0 !dbg !14100 {
  %4 = alloca ptr, align 8
  %5 = alloca ptr, align 8
  %6 = alloca i64, align 8
  store ptr %0, ptr %4, align 8
  call void @llvm.dbg.declare(metadata ptr %4, metadata !14101, metadata !DIExpression()), !dbg !14102
  store ptr %1, ptr %5, align 8
  call void @llvm.dbg.declare(metadata ptr %5, metadata !14103, metadata !DIExpression()), !dbg !14104
  store i64 %2, ptr %6, align 8
  call void @llvm.dbg.declare(metadata ptr %6, metadata !14105, metadata !DIExpression()), !dbg !14106
  %7 = load ptr, ptr %4, align 8, !dbg !14107
  %8 = load ptr, ptr %5, align 8, !dbg !14108
  %9 = load i64, ptr %6, align 8, !dbg !14109
  %10 = call noundef ptr addrspace(100) @_ZN3fdf8internalL7GetAddrIjEEPU5AS100VT_PKvRK13mmio_buffer_tm(ptr noundef %7, ptr noundef nonnull align 8 dereferenceable(32) %8, i64 noundef %9), !dbg !14110
  %11 = call noundef i32 @_ZL10MmioRead32PU5AS100VKj(ptr addrspace(100) noundef %10), !dbg !14111
  ret i32 %11, !dbg !14112
}

; Function Attrs: mustprogress noinline optnone sspstrong uwtable
define internal noundef i64 @_ZN3fdf8internalL6Read64EPKvRK13mmio_buffer_tm(ptr noundef %0, ptr noundef nonnull align 8 dereferenceable(32) %1, i64 noundef %2) #0 !dbg !14113 {
  %4 = alloca ptr, align 8
  %5 = alloca ptr, align 8
  %6 = alloca i64, align 8
  store ptr %0, ptr %4, align 8
  call void @llvm.dbg.declare(metadata ptr %4, metadata !14114, metadata !DIExpression()), !dbg !14115
  store ptr %1, ptr %5, align 8
  call void @llvm.dbg.declare(metadata ptr %5, metadata !14116, metadata !DIExpression()), !dbg !14117
  store i64 %2, ptr %6, align 8
  call void @llvm.dbg.declare(metadata ptr %6, metadata !14118, metadata !DIExpression()), !dbg !14119
  %7 = load ptr, ptr %4, align 8, !dbg !14120
  %8 = load ptr, ptr %5, align 8, !dbg !14121
  %9 = load i64, ptr %6, align 8, !dbg !14122
  %10 = call noundef ptr addrspace(100) @_ZN3fdf8internalL7GetAddrImEEPU5AS100VT_PKvRK13mmio_buffer_tm(ptr noundef %7, ptr noundef nonnull align 8 dereferenceable(32) %8, i64 noundef %9), !dbg !14123
  %11 = call noundef i64 @_ZL10MmioRead64PU5AS100VKm(ptr addrspace(100) noundef %10), !dbg !14124
  ret i64 %11, !dbg !14125
}

; Function Attrs: mustprogress noinline optnone sspstrong uwtable
define internal void @_ZN3fdf8internalL10ReadBufferEPKvRK13mmio_buffer_tmPvm(ptr noundef %0, ptr noundef nonnull align 8 dereferenceable(32) %1, i64 noundef %2, ptr noundef %3, i64 noundef %4) #0 !dbg !14126 {
  %6 = alloca ptr, align 8
  %7 = alloca ptr, align 8
  %8 = alloca i64, align 8
  %9 = alloca ptr, align 8
  %10 = alloca i64, align 8
  store ptr %0, ptr %6, align 8
  call void @llvm.dbg.declare(metadata ptr %6, metadata !14127, metadata !DIExpression()), !dbg !14128
  store ptr %1, ptr %7, align 8
  call void @llvm.dbg.declare(metadata ptr %7, metadata !14129, metadata !DIExpression()), !dbg !14130
  store i64 %2, ptr %8, align 8
  call void @llvm.dbg.declare(metadata ptr %8, metadata !14131, metadata !DIExpression()), !dbg !14132
  store ptr %3, ptr %9, align 8
  call void @llvm.dbg.declare(metadata ptr %9, metadata !14133, metadata !DIExpression()), !dbg !14134
  store i64 %4, ptr %10, align 8
  call void @llvm.dbg.declare(metadata ptr %10, metadata !14135, metadata !DIExpression()), !dbg !14136
  br label %11, !dbg !14137

11:                                               ; preds = %5
  br label %12, !dbg !14138

12:                                               ; preds = %11
  %13 = load ptr, ptr %9, align 8, !dbg !14140
  %14 = load ptr, ptr %6, align 8, !dbg !14141
  %15 = load ptr, ptr %7, align 8, !dbg !14142
  %16 = load i64, ptr %8, align 8, !dbg !14143
  %17 = call noundef ptr addrspace(100) @_ZN3fdf8internalL7GetAddrImEEPU5AS100VT_PKvRK13mmio_buffer_tm(ptr noundef %14, ptr noundef nonnull align 8 dereferenceable(32) %15, i64 noundef %16), !dbg !14144
  %18 = load i64, ptr %10, align 8, !dbg !14145
  call void @_ZL14MmioReadBufferPvPU5AS100VKvm(ptr noundef %13, ptr addrspace(100) noundef %17, i64 noundef %18), !dbg !14146
  ret void, !dbg !14147
}

; Function Attrs: mustprogress noinline optnone sspstrong uwtable
define internal void @_ZN3fdf8internalL6Write8EPKvRK13mmio_buffer_thm(ptr noundef %0, ptr noundef nonnull align 8 dereferenceable(32) %1, i8 noundef zeroext %2, i64 noundef %3) #0 !dbg !14148 {
  %5 = alloca ptr, align 8
  %6 = alloca ptr, align 8
  %7 = alloca i8, align 1
  %8 = alloca i64, align 8
  store ptr %0, ptr %5, align 8
  call void @llvm.dbg.declare(metadata ptr %5, metadata !14149, metadata !DIExpression()), !dbg !14150
  store ptr %1, ptr %6, align 8
  call void @llvm.dbg.declare(metadata ptr %6, metadata !14151, metadata !DIExpression()), !dbg !14152
  store i8 %2, ptr %7, align 1
  call void @llvm.dbg.declare(metadata ptr %7, metadata !14153, metadata !DIExpression()), !dbg !14154
  store i64 %3, ptr %8, align 8
  call void @llvm.dbg.declare(metadata ptr %8, metadata !14155, metadata !DIExpression()), !dbg !14156
  %9 = load i8, ptr %7, align 1, !dbg !14157
  %10 = load ptr, ptr %5, align 8, !dbg !14158
  %11 = load ptr, ptr %6, align 8, !dbg !14159
  %12 = load i64, ptr %8, align 8, !dbg !14160
  %13 = call noundef ptr addrspace(100) @_ZN3fdf8internalL7GetAddrIhEEPU5AS100VT_PKvRK13mmio_buffer_tm(ptr noundef %10, ptr noundef nonnull align 8 dereferenceable(32) %11, i64 noundef %12), !dbg !14161
  call void @_ZL10MmioWrite8hPU5AS100Vh(i8 noundef zeroext %9, ptr addrspace(100) noundef %13), !dbg !14162
  call void asm sideeffect "mfence", "~{memory},~{dirflag},~{fpsr},~{flags}"() #16, !dbg !14163, !srcloc !14164
  ret void, !dbg !14165
}

; Function Attrs: mustprogress noinline optnone sspstrong uwtable
define internal void @_ZN3fdf8internalL7Write16EPKvRK13mmio_buffer_ttm(ptr noundef %0, ptr noundef nonnull align 8 dereferenceable(32) %1, i16 noundef zeroext %2, i64 noundef %3) #0 !dbg !14166 {
  %5 = alloca ptr, align 8
  %6 = alloca ptr, align 8
  %7 = alloca i16, align 2
  %8 = alloca i64, align 8
  store ptr %0, ptr %5, align 8
  call void @llvm.dbg.declare(metadata ptr %5, metadata !14167, metadata !DIExpression()), !dbg !14168
  store ptr %1, ptr %6, align 8
  call void @llvm.dbg.declare(metadata ptr %6, metadata !14169, metadata !DIExpression()), !dbg !14170
  store i16 %2, ptr %7, align 2
  call void @llvm.dbg.declare(metadata ptr %7, metadata !14171, metadata !DIExpression()), !dbg !14172
  store i64 %3, ptr %8, align 8
  call void @llvm.dbg.declare(metadata ptr %8, metadata !14173, metadata !DIExpression()), !dbg !14174
  %9 = load i16, ptr %7, align 2, !dbg !14175
  %10 = load ptr, ptr %5, align 8, !dbg !14176
  %11 = load ptr, ptr %6, align 8, !dbg !14177
  %12 = load i64, ptr %8, align 8, !dbg !14178
  %13 = call noundef ptr addrspace(100) @_ZN3fdf8internalL7GetAddrItEEPU5AS100VT_PKvRK13mmio_buffer_tm(ptr noundef %10, ptr noundef nonnull align 8 dereferenceable(32) %11, i64 noundef %12), !dbg !14179
  call void @_ZL11MmioWrite16tPU5AS100Vt(i16 noundef zeroext %9, ptr addrspace(100) noundef %13), !dbg !14180
  call void asm sideeffect "mfence", "~{memory},~{dirflag},~{fpsr},~{flags}"() #16, !dbg !14181, !srcloc !14182
  ret void, !dbg !14183
}

; Function Attrs: mustprogress noinline optnone sspstrong uwtable
define internal void @_ZN3fdf8internalL7Write32EPKvRK13mmio_buffer_tjm(ptr noundef %0, ptr noundef nonnull align 8 dereferenceable(32) %1, i32 noundef %2, i64 noundef %3) #0 !dbg !14184 {
  %5 = alloca ptr, align 8
  %6 = alloca ptr, align 8
  %7 = alloca i32, align 4
  %8 = alloca i64, align 8
  store ptr %0, ptr %5, align 8
  call void @llvm.dbg.declare(metadata ptr %5, metadata !14185, metadata !DIExpression()), !dbg !14186
  store ptr %1, ptr %6, align 8
  call void @llvm.dbg.declare(metadata ptr %6, metadata !14187, metadata !DIExpression()), !dbg !14188
  store i32 %2, ptr %7, align 4
  call void @llvm.dbg.declare(metadata ptr %7, metadata !14189, metadata !DIExpression()), !dbg !14190
  store i64 %3, ptr %8, align 8
  call void @llvm.dbg.declare(metadata ptr %8, metadata !14191, metadata !DIExpression()), !dbg !14192
  %9 = load i32, ptr %7, align 4, !dbg !14193
  %10 = load ptr, ptr %5, align 8, !dbg !14194
  %11 = load ptr, ptr %6, align 8, !dbg !14195
  %12 = load i64, ptr %8, align 8, !dbg !14196
  %13 = call noundef ptr addrspace(100) @_ZN3fdf8internalL7GetAddrIjEEPU5AS100VT_PKvRK13mmio_buffer_tm(ptr noundef %10, ptr noundef nonnull align 8 dereferenceable(32) %11, i64 noundef %12), !dbg !14197
  call void @_ZL11MmioWrite32jPU5AS100Vj(i32 noundef %9, ptr addrspace(100) noundef %13), !dbg !14198
  call void asm sideeffect "mfence", "~{memory},~{dirflag},~{fpsr},~{flags}"() #16, !dbg !14199, !srcloc !14200
  ret void, !dbg !14201
}

; Function Attrs: mustprogress noinline optnone sspstrong uwtable
define internal void @_ZN3fdf8internalL7Write64EPKvRK13mmio_buffer_tmm(ptr noundef %0, ptr noundef nonnull align 8 dereferenceable(32) %1, i64 noundef %2, i64 noundef %3) #0 !dbg !14202 {
  %5 = alloca ptr, align 8
  %6 = alloca ptr, align 8
  %7 = alloca i64, align 8
  %8 = alloca i64, align 8
  store ptr %0, ptr %5, align 8
  call void @llvm.dbg.declare(metadata ptr %5, metadata !14203, metadata !DIExpression()), !dbg !14204
  store ptr %1, ptr %6, align 8
  call void @llvm.dbg.declare(metadata ptr %6, metadata !14205, metadata !DIExpression()), !dbg !14206
  store i64 %2, ptr %7, align 8
  call void @llvm.dbg.declare(metadata ptr %7, metadata !14207, metadata !DIExpression()), !dbg !14208
  store i64 %3, ptr %8, align 8
  call void @llvm.dbg.declare(metadata ptr %8, metadata !14209, metadata !DIExpression()), !dbg !14210
  %9 = load i64, ptr %7, align 8, !dbg !14211
  %10 = load ptr, ptr %5, align 8, !dbg !14212
  %11 = load ptr, ptr %6, align 8, !dbg !14213
  %12 = load i64, ptr %8, align 8, !dbg !14214
  %13 = call noundef ptr addrspace(100) @_ZN3fdf8internalL7GetAddrImEEPU5AS100VT_PKvRK13mmio_buffer_tm(ptr noundef %10, ptr noundef nonnull align 8 dereferenceable(32) %11, i64 noundef %12), !dbg !14215
  call void @_ZL11MmioWrite64mPU5AS100Vm(i64 noundef %9, ptr addrspace(100) noundef %13), !dbg !14216
  call void asm sideeffect "mfence", "~{memory},~{dirflag},~{fpsr},~{flags}"() #16, !dbg !14217, !srcloc !14218
  ret void, !dbg !14219
}

; Function Attrs: mustprogress noinline optnone sspstrong uwtable
define internal void @_ZN3fdf8internalL11WriteBufferEPKvRK13mmio_buffer_tmS2_m(ptr noundef %0, ptr noundef nonnull align 8 dereferenceable(32) %1, i64 noundef %2, ptr noundef %3, i64 noundef %4) #0 !dbg !14220 {
  %6 = alloca ptr, align 8
  %7 = alloca ptr, align 8
  %8 = alloca i64, align 8
  %9 = alloca ptr, align 8
  %10 = alloca i64, align 8
  store ptr %0, ptr %6, align 8
  call void @llvm.dbg.declare(metadata ptr %6, metadata !14221, metadata !DIExpression()), !dbg !14222
  store ptr %1, ptr %7, align 8
  call void @llvm.dbg.declare(metadata ptr %7, metadata !14223, metadata !DIExpression()), !dbg !14224
  store i64 %2, ptr %8, align 8
  call void @llvm.dbg.declare(metadata ptr %8, metadata !14225, metadata !DIExpression()), !dbg !14226
  store ptr %3, ptr %9, align 8
  call void @llvm.dbg.declare(metadata ptr %9, metadata !14227, metadata !DIExpression()), !dbg !14228
  store i64 %4, ptr %10, align 8
  call void @llvm.dbg.declare(metadata ptr %10, metadata !14229, metadata !DIExpression()), !dbg !14230
  br label %11, !dbg !14231

11:                                               ; preds = %5
  br label %12, !dbg !14232

12:                                               ; preds = %11
  %13 = load ptr, ptr %6, align 8, !dbg !14234
  %14 = load ptr, ptr %7, align 8, !dbg !14235
  %15 = load i64, ptr %8, align 8, !dbg !14236
  %16 = call noundef ptr addrspace(100) @_ZN3fdf8internalL7GetAddrImEEPU5AS100VT_PKvRK13mmio_buffer_tm(ptr noundef %13, ptr noundef nonnull align 8 dereferenceable(32) %14, i64 noundef %15), !dbg !14237
  %17 = load ptr, ptr %9, align 8, !dbg !14238
  %18 = load i64, ptr %10, align 8, !dbg !14239
  call void @_ZL15MmioWriteBufferPU5AS100VvPKvm(ptr addrspace(100) noundef %16, ptr noundef %17, i64 noundef %18), !dbg !14240
  call void asm sideeffect "mfence", "~{memory},~{dirflag},~{fpsr},~{flags}"() #16, !dbg !14241, !srcloc !14242
  ret void, !dbg !14243
}

; Function Attrs: mustprogress noinline nounwind optnone sspstrong uwtable
define internal noundef zeroext i8 @_ZL9MmioRead8PU5AS100VKh(ptr addrspace(100) noundef nonnull %0) #2 !dbg !14244 {
  %2 = alloca ptr addrspace(100), align 8
  %3 = alloca i8, align 1
  store ptr addrspace(100) %0, ptr %2, align 8
  call void @llvm.dbg.declare(metadata ptr %2, metadata !14248, metadata !DIExpression()), !dbg !14249
  call void @llvm.dbg.declare(metadata ptr %3, metadata !14250, metadata !DIExpression()), !dbg !14251
  %4 = load ptr addrspace(100), ptr %2, align 8, !dbg !14252
  %5 = addrspacecast ptr addrspace(100) %4 to ptr, !dbg !14253
  %6 = call i8 asm sideeffect "movb $1, $0", "=r,*m,~{dirflag},~{fpsr},~{flags}"(ptr elementtype(i8) %5) #16, !dbg !14254, !srcloc !14255
  store i8 %6, ptr %3, align 1, !dbg !14254
  %7 = load i8, ptr %3, align 1, !dbg !14256
  ret i8 %7, !dbg !14257
}

; Function Attrs: mustprogress noinline nounwind optnone sspstrong uwtable
define internal noundef ptr addrspace(100) @_ZN3fdf8internalL7GetAddrIhEEPU5AS100VT_PKvRK13mmio_buffer_tm(ptr noundef %0, ptr noundef nonnull align 8 dereferenceable(32) %1, i64 noundef %2) #2 !dbg !14258 {
  %4 = alloca ptr, align 8
  %5 = alloca ptr, align 8
  %6 = alloca i64, align 8
  %7 = alloca i64, align 8
  store ptr %0, ptr %4, align 8
  call void @llvm.dbg.declare(metadata ptr %4, metadata !14265, metadata !DIExpression()), !dbg !14266
  store ptr %1, ptr %5, align 8
  call void @llvm.dbg.declare(metadata ptr %5, metadata !14267, metadata !DIExpression()), !dbg !14268
  store i64 %2, ptr %6, align 8
  call void @llvm.dbg.declare(metadata ptr %6, metadata !14269, metadata !DIExpression()), !dbg !14270
  br label %8, !dbg !14271

8:                                                ; preds = %3
  br label %9, !dbg !14272

9:                                                ; preds = %8
  call void @llvm.dbg.declare(metadata ptr %7, metadata !14274, metadata !DIExpression()), !dbg !14276
  %10 = load ptr, ptr %5, align 8, !dbg !14277
  %11 = getelementptr inbounds %struct.mmio_buffer_t, ptr %10, i32 0, i32 0, !dbg !14278
  %12 = load ptr addrspace(100), ptr %11, align 8, !dbg !14278
  %13 = ptrtoint ptr addrspace(100) %12 to i64, !dbg !14279
  store i64 %13, ptr %7, align 8, !dbg !14276
  br label %14, !dbg !14280

14:                                               ; preds = %9
  br label %15, !dbg !14281

15:                                               ; preds = %14
  %16 = load i64, ptr %7, align 8, !dbg !14283
  %17 = load i64, ptr %6, align 8, !dbg !14284
  %18 = add i64 %16, %17, !dbg !14285
  %19 = inttoptr i64 %18 to ptr addrspace(100), !dbg !14286
  ret ptr addrspace(100) %19, !dbg !14287
}

; Function Attrs: mustprogress noinline nounwind optnone sspstrong uwtable
define internal noundef zeroext i16 @_ZL10MmioRead16PU5AS100VKt(ptr addrspace(100) noundef nonnull %0) #2 !dbg !14288 {
  %2 = alloca ptr addrspace(100), align 8
  %3 = alloca i16, align 2
  store ptr addrspace(100) %0, ptr %2, align 8
  call void @llvm.dbg.declare(metadata ptr %2, metadata !14293, metadata !DIExpression()), !dbg !14294
  call void @llvm.dbg.declare(metadata ptr %3, metadata !14295, metadata !DIExpression()), !dbg !14296
  %4 = load ptr addrspace(100), ptr %2, align 8, !dbg !14297
  %5 = addrspacecast ptr addrspace(100) %4 to ptr, !dbg !14298
  %6 = call i16 asm sideeffect "movw $1, $0", "=r,*m,~{dirflag},~{fpsr},~{flags}"(ptr elementtype(i16) %5) #16, !dbg !14299, !srcloc !14300
  store i16 %6, ptr %3, align 2, !dbg !14299
  %7 = load i16, ptr %3, align 2, !dbg !14301
  ret i16 %7, !dbg !14302
}

; Function Attrs: mustprogress noinline nounwind optnone sspstrong uwtable
define internal noundef ptr addrspace(100) @_ZN3fdf8internalL7GetAddrItEEPU5AS100VT_PKvRK13mmio_buffer_tm(ptr noundef %0, ptr noundef nonnull align 8 dereferenceable(32) %1, i64 noundef %2) #2 !dbg !14303 {
  %4 = alloca ptr, align 8
  %5 = alloca ptr, align 8
  %6 = alloca i64, align 8
  %7 = alloca i64, align 8
  store ptr %0, ptr %4, align 8
  call void @llvm.dbg.declare(metadata ptr %4, metadata !14310, metadata !DIExpression()), !dbg !14311
  store ptr %1, ptr %5, align 8
  call void @llvm.dbg.declare(metadata ptr %5, metadata !14312, metadata !DIExpression()), !dbg !14313
  store i64 %2, ptr %6, align 8
  call void @llvm.dbg.declare(metadata ptr %6, metadata !14314, metadata !DIExpression()), !dbg !14315
  br label %8, !dbg !14316

8:                                                ; preds = %3
  br label %9, !dbg !14317

9:                                                ; preds = %8
  call void @llvm.dbg.declare(metadata ptr %7, metadata !14319, metadata !DIExpression()), !dbg !14320
  %10 = load ptr, ptr %5, align 8, !dbg !14321
  %11 = getelementptr inbounds %struct.mmio_buffer_t, ptr %10, i32 0, i32 0, !dbg !14322
  %12 = load ptr addrspace(100), ptr %11, align 8, !dbg !14322
  %13 = ptrtoint ptr addrspace(100) %12 to i64, !dbg !14323
  store i64 %13, ptr %7, align 8, !dbg !14320
  br label %14, !dbg !14324

14:                                               ; preds = %9
  br label %15, !dbg !14325

15:                                               ; preds = %14
  %16 = load i64, ptr %7, align 8, !dbg !14327
  %17 = load i64, ptr %6, align 8, !dbg !14328
  %18 = add i64 %16, %17, !dbg !14329
  %19 = inttoptr i64 %18 to ptr addrspace(100), !dbg !14330
  ret ptr addrspace(100) %19, !dbg !14331
}

; Function Attrs: mustprogress noinline nounwind optnone sspstrong uwtable
define internal noundef i32 @_ZL10MmioRead32PU5AS100VKj(ptr addrspace(100) noundef nonnull %0) #2 !dbg !14332 {
  %2 = alloca ptr addrspace(100), align 8
  %3 = alloca i32, align 4
  store ptr addrspace(100) %0, ptr %2, align 8
  call void @llvm.dbg.declare(metadata ptr %2, metadata !14337, metadata !DIExpression()), !dbg !14338
  call void @llvm.dbg.declare(metadata ptr %3, metadata !14339, metadata !DIExpression()), !dbg !14340
  %4 = load ptr addrspace(100), ptr %2, align 8, !dbg !14341
  %5 = addrspacecast ptr addrspace(100) %4 to ptr, !dbg !14342
  %6 = call i32 asm sideeffect "movl $1, $0", "=r,*m,~{dirflag},~{fpsr},~{flags}"(ptr elementtype(i32) %5) #16, !dbg !14343, !srcloc !14344
  store i32 %6, ptr %3, align 4, !dbg !14343
  %7 = load i32, ptr %3, align 4, !dbg !14345
  ret i32 %7, !dbg !14346
}

; Function Attrs: mustprogress noinline nounwind optnone sspstrong uwtable
define internal noundef ptr addrspace(100) @_ZN3fdf8internalL7GetAddrIjEEPU5AS100VT_PKvRK13mmio_buffer_tm(ptr noundef %0, ptr noundef nonnull align 8 dereferenceable(32) %1, i64 noundef %2) #2 !dbg !14347 {
  %4 = alloca ptr, align 8
  %5 = alloca ptr, align 8
  %6 = alloca i64, align 8
  %7 = alloca i64, align 8
  store ptr %0, ptr %4, align 8
  call void @llvm.dbg.declare(metadata ptr %4, metadata !14353, metadata !DIExpression()), !dbg !14354
  store ptr %1, ptr %5, align 8
  call void @llvm.dbg.declare(metadata ptr %5, metadata !14355, metadata !DIExpression()), !dbg !14356
  store i64 %2, ptr %6, align 8
  call void @llvm.dbg.declare(metadata ptr %6, metadata !14357, metadata !DIExpression()), !dbg !14358
  br label %8, !dbg !14359

8:                                                ; preds = %3
  br label %9, !dbg !14360

9:                                                ; preds = %8
  call void @llvm.dbg.declare(metadata ptr %7, metadata !14362, metadata !DIExpression()), !dbg !14363
  %10 = load ptr, ptr %5, align 8, !dbg !14364
  %11 = getelementptr inbounds %struct.mmio_buffer_t, ptr %10, i32 0, i32 0, !dbg !14365
  %12 = load ptr addrspace(100), ptr %11, align 8, !dbg !14365
  %13 = ptrtoint ptr addrspace(100) %12 to i64, !dbg !14366
  store i64 %13, ptr %7, align 8, !dbg !14363
  br label %14, !dbg !14367

14:                                               ; preds = %9
  br label %15, !dbg !14368

15:                                               ; preds = %14
  %16 = load i64, ptr %7, align 8, !dbg !14370
  %17 = load i64, ptr %6, align 8, !dbg !14371
  %18 = add i64 %16, %17, !dbg !14372
  %19 = inttoptr i64 %18 to ptr addrspace(100), !dbg !14373
  ret ptr addrspace(100) %19, !dbg !14374
}

; Function Attrs: mustprogress noinline nounwind optnone sspstrong uwtable
define internal noundef i64 @_ZL10MmioRead64PU5AS100VKm(ptr addrspace(100) noundef nonnull %0) #2 !dbg !14375 {
  %2 = alloca ptr addrspace(100), align 8
  %3 = alloca i64, align 8
  store ptr addrspace(100) %0, ptr %2, align 8
  call void @llvm.dbg.declare(metadata ptr %2, metadata !14378, metadata !DIExpression()), !dbg !14379
  call void @llvm.dbg.declare(metadata ptr %3, metadata !14380, metadata !DIExpression()), !dbg !14381
  %4 = load ptr addrspace(100), ptr %2, align 8, !dbg !14382
  %5 = addrspacecast ptr addrspace(100) %4 to ptr, !dbg !14383
  %6 = call i64 asm sideeffect "movq $1, $0", "=r,*m,~{dirflag},~{fpsr},~{flags}"(ptr elementtype(i64) %5) #16, !dbg !14384, !srcloc !14385
  store i64 %6, ptr %3, align 8, !dbg !14384
  %7 = load i64, ptr %3, align 8, !dbg !14386
  ret i64 %7, !dbg !14387
}

; Function Attrs: mustprogress noinline nounwind optnone sspstrong uwtable
define internal noundef ptr addrspace(100) @_ZN3fdf8internalL7GetAddrImEEPU5AS100VT_PKvRK13mmio_buffer_tm(ptr noundef %0, ptr noundef nonnull align 8 dereferenceable(32) %1, i64 noundef %2) #2 !dbg !14388 {
  %4 = alloca ptr, align 8
  %5 = alloca ptr, align 8
  %6 = alloca i64, align 8
  %7 = alloca i64, align 8
  store ptr %0, ptr %4, align 8
  call void @llvm.dbg.declare(metadata ptr %4, metadata !14395, metadata !DIExpression()), !dbg !14396
  store ptr %1, ptr %5, align 8
  call void @llvm.dbg.declare(metadata ptr %5, metadata !14397, metadata !DIExpression()), !dbg !14398
  store i64 %2, ptr %6, align 8
  call void @llvm.dbg.declare(metadata ptr %6, metadata !14399, metadata !DIExpression()), !dbg !14400
  br label %8, !dbg !14401

8:                                                ; preds = %3
  br label %9, !dbg !14402

9:                                                ; preds = %8
  call void @llvm.dbg.declare(metadata ptr %7, metadata !14404, metadata !DIExpression()), !dbg !14405
  %10 = load ptr, ptr %5, align 8, !dbg !14406
  %11 = getelementptr inbounds %struct.mmio_buffer_t, ptr %10, i32 0, i32 0, !dbg !14407
  %12 = load ptr addrspace(100), ptr %11, align 8, !dbg !14407
  %13 = ptrtoint ptr addrspace(100) %12 to i64, !dbg !14408
  store i64 %13, ptr %7, align 8, !dbg !14405
  br label %14, !dbg !14409

14:                                               ; preds = %9
  br label %15, !dbg !14410

15:                                               ; preds = %14
  %16 = load i64, ptr %7, align 8, !dbg !14412
  %17 = load i64, ptr %6, align 8, !dbg !14413
  %18 = add i64 %16, %17, !dbg !14414
  %19 = inttoptr i64 %18 to ptr addrspace(100), !dbg !14415
  ret ptr addrspace(100) %19, !dbg !14416
}

; Function Attrs: mustprogress noinline nounwind optnone sspstrong uwtable
define internal void @_ZL14MmioReadBufferPvPU5AS100VKvm(ptr noundef nonnull %0, ptr addrspace(100) noundef nonnull %1, i64 noundef %2) #2 !dbg !14417 {
  %4 = alloca ptr, align 8
  %5 = alloca ptr addrspace(100), align 8
  %6 = alloca i64, align 8
  %7 = alloca i64, align 8
  %8 = alloca i64, align 8
  store ptr %0, ptr %4, align 8
  call void @llvm.dbg.declare(metadata ptr %4, metadata !14423, metadata !DIExpression()), !dbg !14424
  store ptr addrspace(100) %1, ptr %5, align 8
  call void @llvm.dbg.declare(metadata ptr %5, metadata !14425, metadata !DIExpression()), !dbg !14426
  store i64 %2, ptr %6, align 8
  call void @llvm.dbg.declare(metadata ptr %6, metadata !14427, metadata !DIExpression()), !dbg !14428
  call void @llvm.dbg.declare(metadata ptr %7, metadata !14429, metadata !DIExpression()), !dbg !14430
  %9 = load ptr, ptr %4, align 8, !dbg !14431
  %10 = ptrtoint ptr %9 to i64, !dbg !14432
  store i64 %10, ptr %7, align 8, !dbg !14430
  call void @llvm.dbg.declare(metadata ptr %8, metadata !14433, metadata !DIExpression()), !dbg !14434
  %11 = load ptr addrspace(100), ptr %5, align 8, !dbg !14435
  %12 = ptrtoint ptr addrspace(100) %11 to i64, !dbg !14436
  store i64 %12, ptr %8, align 8, !dbg !14434
  br label %13, !dbg !14437

13:                                               ; preds = %22, %3
  %14 = load i64, ptr %8, align 8, !dbg !14438
  %15 = and i64 %14, 7, !dbg !14439
  %16 = icmp ne i64 %15, 0, !dbg !14438
  br i1 %16, label %17, label %20, !dbg !14440

17:                                               ; preds = %13
  %18 = load i64, ptr %6, align 8, !dbg !14441
  %19 = icmp ne i64 %18, 0, !dbg !14441
  br label %20

20:                                               ; preds = %17, %13
  %21 = phi i1 [ false, %13 ], [ %19, %17 ], !dbg !14442
  br i1 %21, label %22, label %34, !dbg !14437

22:                                               ; preds = %20
  %23 = load i64, ptr %8, align 8, !dbg !14443
  %24 = inttoptr i64 %23 to ptr addrspace(100), !dbg !14445
  %25 = call noundef zeroext i8 @_ZL9MmioRead8PU5AS100VKh(ptr addrspace(100) noundef %24), !dbg !14446
  %26 = load i64, ptr %7, align 8, !dbg !14447
  %27 = inttoptr i64 %26 to ptr, !dbg !14448
  store i8 %25, ptr %27, align 1, !dbg !14449
  %28 = load i64, ptr %6, align 8, !dbg !14450
  %29 = add i64 %28, -1, !dbg !14450
  store i64 %29, ptr %6, align 8, !dbg !14450
  %30 = load i64, ptr %8, align 8, !dbg !14451
  %31 = add i64 %30, 1, !dbg !14451
  store i64 %31, ptr %8, align 8, !dbg !14451
  %32 = load i64, ptr %7, align 8, !dbg !14452
  %33 = add i64 %32, 1, !dbg !14452
  store i64 %33, ptr %7, align 8, !dbg !14452
  br label %13, !dbg !14437, !llvm.loop !14453

34:                                               ; preds = %20
  br label %35, !dbg !14456

35:                                               ; preds = %38, %34
  %36 = load i64, ptr %6, align 8, !dbg !14457
  %37 = icmp uge i64 %36, 8, !dbg !14458
  br i1 %37, label %38, label %50, !dbg !14456

38:                                               ; preds = %35
  %39 = load i64, ptr %8, align 8, !dbg !14459
  %40 = inttoptr i64 %39 to ptr addrspace(100), !dbg !14461
  %41 = call noundef i64 @_ZL10MmioRead64PU5AS100VKm(ptr addrspace(100) noundef %40), !dbg !14462
  %42 = load i64, ptr %7, align 8, !dbg !14463
  %43 = inttoptr i64 %42 to ptr, !dbg !14464
  store i64 %41, ptr %43, align 8, !dbg !14465
  %44 = load i64, ptr %6, align 8, !dbg !14466
  %45 = sub i64 %44, 8, !dbg !14466
  store i64 %45, ptr %6, align 8, !dbg !14466
  %46 = load i64, ptr %8, align 8, !dbg !14467
  %47 = add i64 %46, 8, !dbg !14467
  store i64 %47, ptr %8, align 8, !dbg !14467
  %48 = load i64, ptr %7, align 8, !dbg !14468
  %49 = add i64 %48, 8, !dbg !14468
  store i64 %49, ptr %7, align 8, !dbg !14468
  br label %35, !dbg !14456, !llvm.loop !14469

50:                                               ; preds = %35
  br label %51, !dbg !14471

51:                                               ; preds = %54, %50
  %52 = load i64, ptr %6, align 8, !dbg !14472
  %53 = icmp ne i64 %52, 0, !dbg !14472
  br i1 %53, label %54, label %66, !dbg !14471

54:                                               ; preds = %51
  %55 = load i64, ptr %8, align 8, !dbg !14473
  %56 = inttoptr i64 %55 to ptr addrspace(100), !dbg !14475
  %57 = call noundef zeroext i8 @_ZL9MmioRead8PU5AS100VKh(ptr addrspace(100) noundef %56), !dbg !14476
  %58 = load i64, ptr %7, align 8, !dbg !14477
  %59 = inttoptr i64 %58 to ptr, !dbg !14478
  store i8 %57, ptr %59, align 1, !dbg !14479
  %60 = load i64, ptr %6, align 8, !dbg !14480
  %61 = add i64 %60, -1, !dbg !14480
  store i64 %61, ptr %6, align 8, !dbg !14480
  %62 = load i64, ptr %8, align 8, !dbg !14481
  %63 = add i64 %62, 1, !dbg !14481
  store i64 %63, ptr %8, align 8, !dbg !14481
  %64 = load i64, ptr %7, align 8, !dbg !14482
  %65 = add i64 %64, 1, !dbg !14482
  store i64 %65, ptr %7, align 8, !dbg !14482
  br label %51, !dbg !14471, !llvm.loop !14483

66:                                               ; preds = %51
  ret void, !dbg !14485
}

; Function Attrs: mustprogress noinline nounwind optnone sspstrong uwtable
define internal void @_ZL10MmioWrite8hPU5AS100Vh(i8 noundef zeroext %0, ptr addrspace(100) noundef nonnull %1) #2 !dbg !14486 {
  %3 = alloca i8, align 1
  %4 = alloca ptr addrspace(100), align 8
  store i8 %0, ptr %3, align 1
  call void @llvm.dbg.declare(metadata ptr %3, metadata !14489, metadata !DIExpression()), !dbg !14490
  store ptr addrspace(100) %1, ptr %4, align 8
  call void @llvm.dbg.declare(metadata ptr %4, metadata !14491, metadata !DIExpression()), !dbg !14492
  %5 = load ptr addrspace(100), ptr %4, align 8, !dbg !14493
  %6 = addrspacecast ptr addrspace(100) %5 to ptr, !dbg !14494
  %7 = load i8, ptr %3, align 1, !dbg !14495
  call void asm sideeffect "movb $1, $0", "=*m,ir,~{dirflag},~{fpsr},~{flags}"(ptr elementtype(i8) %6, i8 %7) #16, !dbg !14496, !srcloc !14497
  ret void, !dbg !14498
}

; Function Attrs: mustprogress noinline nounwind optnone sspstrong uwtable
define internal void @_ZL11MmioWrite16tPU5AS100Vt(i16 noundef zeroext %0, ptr addrspace(100) noundef nonnull %1) #2 !dbg !14499 {
  %3 = alloca i16, align 2
  %4 = alloca ptr addrspace(100), align 8
  store i16 %0, ptr %3, align 2
  call void @llvm.dbg.declare(metadata ptr %3, metadata !14502, metadata !DIExpression()), !dbg !14503
  store ptr addrspace(100) %1, ptr %4, align 8
  call void @llvm.dbg.declare(metadata ptr %4, metadata !14504, metadata !DIExpression()), !dbg !14505
  %5 = load ptr addrspace(100), ptr %4, align 8, !dbg !14506
  %6 = addrspacecast ptr addrspace(100) %5 to ptr, !dbg !14507
  %7 = load i16, ptr %3, align 2, !dbg !14508
  call void asm sideeffect "movw $1, $0", "=*m,ir,~{dirflag},~{fpsr},~{flags}"(ptr elementtype(i16) %6, i16 %7) #16, !dbg !14509, !srcloc !14510
  ret void, !dbg !14511
}

; Function Attrs: mustprogress noinline nounwind optnone sspstrong uwtable
define internal void @_ZL11MmioWrite32jPU5AS100Vj(i32 noundef %0, ptr addrspace(100) noundef nonnull %1) #2 !dbg !14512 {
  %3 = alloca i32, align 4
  %4 = alloca ptr addrspace(100), align 8
  store i32 %0, ptr %3, align 4
  call void @llvm.dbg.declare(metadata ptr %3, metadata !14515, metadata !DIExpression()), !dbg !14516
  store ptr addrspace(100) %1, ptr %4, align 8
  call void @llvm.dbg.declare(metadata ptr %4, metadata !14517, metadata !DIExpression()), !dbg !14518
  %5 = load ptr addrspace(100), ptr %4, align 8, !dbg !14519
  %6 = addrspacecast ptr addrspace(100) %5 to ptr, !dbg !14520
  %7 = load i32, ptr %3, align 4, !dbg !14521
  call void asm sideeffect "movl $1, $0", "=*m,ir,~{dirflag},~{fpsr},~{flags}"(ptr elementtype(i32) %6, i32 %7) #16, !dbg !14522, !srcloc !14523
  ret void, !dbg !14524
}

; Function Attrs: mustprogress noinline nounwind optnone sspstrong uwtable
define internal void @_ZL11MmioWrite64mPU5AS100Vm(i64 noundef %0, ptr addrspace(100) noundef nonnull %1) #2 !dbg !14525 {
  %3 = alloca i64, align 8
  %4 = alloca ptr addrspace(100), align 8
  store i64 %0, ptr %3, align 8
  call void @llvm.dbg.declare(metadata ptr %3, metadata !14528, metadata !DIExpression()), !dbg !14529
  store ptr addrspace(100) %1, ptr %4, align 8
  call void @llvm.dbg.declare(metadata ptr %4, metadata !14530, metadata !DIExpression()), !dbg !14531
  %5 = load ptr addrspace(100), ptr %4, align 8, !dbg !14532
  %6 = addrspacecast ptr addrspace(100) %5 to ptr, !dbg !14533
  %7 = load i64, ptr %3, align 8, !dbg !14534
  call void asm sideeffect "movq $1, $0", "=*m,ir,~{dirflag},~{fpsr},~{flags}"(ptr elementtype(i64) %6, i64 %7) #16, !dbg !14535, !srcloc !14536
  ret void, !dbg !14537
}

; Function Attrs: mustprogress noinline nounwind optnone sspstrong uwtable
define internal void @_ZL15MmioWriteBufferPU5AS100VvPKvm(ptr addrspace(100) noundef nonnull %0, ptr noundef nonnull %1, i64 noundef %2) #2 !dbg !14538 {
  %4 = alloca ptr addrspace(100), align 8
  %5 = alloca ptr, align 8
  %6 = alloca i64, align 8
  %7 = alloca i64, align 8
  %8 = alloca i64, align 8
  store ptr addrspace(100) %0, ptr %4, align 8
  call void @llvm.dbg.declare(metadata ptr %4, metadata !14542, metadata !DIExpression()), !dbg !14543
  store ptr %1, ptr %5, align 8
  call void @llvm.dbg.declare(metadata ptr %5, metadata !14544, metadata !DIExpression()), !dbg !14545
  store i64 %2, ptr %6, align 8
  call void @llvm.dbg.declare(metadata ptr %6, metadata !14546, metadata !DIExpression()), !dbg !14547
  call void @llvm.dbg.declare(metadata ptr %7, metadata !14548, metadata !DIExpression()), !dbg !14549
  %9 = load ptr, ptr %5, align 8, !dbg !14550
  %10 = ptrtoint ptr %9 to i64, !dbg !14551
  store i64 %10, ptr %7, align 8, !dbg !14549
  call void @llvm.dbg.declare(metadata ptr %8, metadata !14552, metadata !DIExpression()), !dbg !14553
  %11 = load ptr addrspace(100), ptr %4, align 8, !dbg !14554
  %12 = ptrtoint ptr addrspace(100) %11 to i64, !dbg !14555
  store i64 %12, ptr %8, align 8, !dbg !14553
  br label %13, !dbg !14556

13:                                               ; preds = %22, %3
  %14 = load i64, ptr %8, align 8, !dbg !14557
  %15 = and i64 %14, 7, !dbg !14558
  %16 = icmp ne i64 %15, 0, !dbg !14557
  br i1 %16, label %17, label %20, !dbg !14559

17:                                               ; preds = %13
  %18 = load i64, ptr %6, align 8, !dbg !14560
  %19 = icmp ne i64 %18, 0, !dbg !14560
  br label %20

20:                                               ; preds = %17, %13
  %21 = phi i1 [ false, %13 ], [ %19, %17 ], !dbg !14561
  br i1 %21, label %22, label %34, !dbg !14556

22:                                               ; preds = %20
  %23 = load i64, ptr %7, align 8, !dbg !14562
  %24 = inttoptr i64 %23 to ptr, !dbg !14564
  %25 = load i8, ptr %24, align 1, !dbg !14565
  %26 = load i64, ptr %8, align 8, !dbg !14566
  %27 = inttoptr i64 %26 to ptr addrspace(100), !dbg !14567
  call void @_ZL10MmioWrite8hPU5AS100Vh(i8 noundef zeroext %25, ptr addrspace(100) noundef %27), !dbg !14568
  %28 = load i64, ptr %6, align 8, !dbg !14569
  %29 = add i64 %28, -1, !dbg !14569
  store i64 %29, ptr %6, align 8, !dbg !14569
  %30 = load i64, ptr %8, align 8, !dbg !14570
  %31 = add i64 %30, 1, !dbg !14570
  store i64 %31, ptr %8, align 8, !dbg !14570
  %32 = load i64, ptr %7, align 8, !dbg !14571
  %33 = add i64 %32, 1, !dbg !14571
  store i64 %33, ptr %7, align 8, !dbg !14571
  br label %13, !dbg !14556, !llvm.loop !14572

34:                                               ; preds = %20
  br label %35, !dbg !14574

35:                                               ; preds = %38, %34
  %36 = load i64, ptr %6, align 8, !dbg !14575
  %37 = icmp uge i64 %36, 8, !dbg !14576
  br i1 %37, label %38, label %50, !dbg !14574

38:                                               ; preds = %35
  %39 = load i64, ptr %7, align 8, !dbg !14577
  %40 = inttoptr i64 %39 to ptr, !dbg !14579
  %41 = load i64, ptr %40, align 8, !dbg !14580
  %42 = load i64, ptr %8, align 8, !dbg !14581
  %43 = inttoptr i64 %42 to ptr addrspace(100), !dbg !14582
  call void @_ZL11MmioWrite64mPU5AS100Vm(i64 noundef %41, ptr addrspace(100) noundef %43), !dbg !14583
  %44 = load i64, ptr %6, align 8, !dbg !14584
  %45 = sub i64 %44, 8, !dbg !14584
  store i64 %45, ptr %6, align 8, !dbg !14584
  %46 = load i64, ptr %8, align 8, !dbg !14585
  %47 = add i64 %46, 8, !dbg !14585
  store i64 %47, ptr %8, align 8, !dbg !14585
  %48 = load i64, ptr %7, align 8, !dbg !14586
  %49 = add i64 %48, 8, !dbg !14586
  store i64 %49, ptr %7, align 8, !dbg !14586
  br label %35, !dbg !14574, !llvm.loop !14587

50:                                               ; preds = %35
  br label %51, !dbg !14589

51:                                               ; preds = %54, %50
  %52 = load i64, ptr %6, align 8, !dbg !14590
  %53 = icmp ne i64 %52, 0, !dbg !14590
  br i1 %53, label %54, label %66, !dbg !14589

54:                                               ; preds = %51
  %55 = load i64, ptr %7, align 8, !dbg !14591
  %56 = inttoptr i64 %55 to ptr, !dbg !14593
  %57 = load i8, ptr %56, align 1, !dbg !14594
  %58 = load i64, ptr %8, align 8, !dbg !14595
  %59 = inttoptr i64 %58 to ptr addrspace(100), !dbg !14596
  call void @_ZL10MmioWrite8hPU5AS100Vh(i8 noundef zeroext %57, ptr addrspace(100) noundef %59), !dbg !14597
  %60 = load i64, ptr %6, align 8, !dbg !14598
  %61 = add i64 %60, -1, !dbg !14598
  store i64 %61, ptr %6, align 8, !dbg !14598
  %62 = load i64, ptr %8, align 8, !dbg !14599
  %63 = add i64 %62, 1, !dbg !14599
  store i64 %63, ptr %8, align 8, !dbg !14599
  %64 = load i64, ptr %7, align 8, !dbg !14600
  %65 = add i64 %64, 1, !dbg !14600
  store i64 %65, ptr %7, align 8, !dbg !14600
  br label %51, !dbg !14589, !llvm.loop !14601

66:                                               ; preds = %51
  ret void, !dbg !14603
}

; Function Attrs: noinline optnone sspstrong uwtable
define linkonce_odr noundef ptr @_ZN3fit6resultIiJN3fdf10MmioBufferEEEC2IS2_Lb1EEENS_7successIJT_EEE(ptr noundef nonnull returned align 8 dereferenceable(64) %0, ptr noundef %1) unnamed_addr #4 comdat align 2 !dbg !14604 {
  %3 = alloca ptr, align 8
  store ptr %0, ptr %3, align 8
  call void @llvm.dbg.declare(metadata ptr %3, metadata !14610, metadata !DIExpression()), !dbg !14611
  call void @llvm.dbg.declare(metadata ptr %1, metadata !14612, metadata !DIExpression()), !dbg !14613
  %4 = load ptr, ptr %3, align 8
  %5 = getelementptr inbounds %"class.fit::result.52", ptr %4, i32 0, i32 0, !dbg !14614
  %6 = getelementptr inbounds %"class.fit::success.107", ptr %1, i32 0, i32 0, !dbg !14615
  %7 = call noundef ptr @_ZN3fit8internal12storage_typeILNS0_15storage_class_eE1EiJN3fdf10MmioBufferEEEC2IS4_EENS0_7value_tEOT_(ptr noundef nonnull align 8 dereferenceable(64) %5, i32 noundef 0, ptr noundef nonnull align 8 dereferenceable(56) %6), !dbg !14614
  ret ptr %4, !dbg !14616
}

; Function Attrs: noinline optnone sspstrong uwtable
define linkonce_odr noundef ptr @_ZN3fit8internal12storage_typeILNS0_15storage_class_eE1EiJN3fdf10MmioBufferEEEC2IS4_EENS0_7value_tEOT_(ptr noundef nonnull returned align 8 dereferenceable(64) %0, i32 noundef %1, ptr noundef nonnull align 8 dereferenceable(56) %2) unnamed_addr #4 comdat align 2 !dbg !14617 {
  %4 = alloca ptr, align 8
  %5 = alloca i32, align 4
  %6 = alloca ptr, align 8
  store ptr %0, ptr %4, align 8
  call void @llvm.dbg.declare(metadata ptr %4, metadata !14622, metadata !DIExpression()), !dbg !14623
  store i32 %1, ptr %5, align 4
  call void @llvm.dbg.declare(metadata ptr %5, metadata !14624, metadata !DIExpression()), !dbg !14625
  store ptr %2, ptr %6, align 8
  call void @llvm.dbg.declare(metadata ptr %6, metadata !14626, metadata !DIExpression()), !dbg !14627
  %7 = load ptr, ptr %4, align 8
  %8 = getelementptr inbounds %"struct.fit::internal::storage_type.53", ptr %7, i32 0, i32 0, !dbg !14628
  store i32 2, ptr %8, align 8, !dbg !14628
  %9 = getelementptr inbounds %"struct.fit::internal::storage_type.53", ptr %7, i32 0, i32 1, !dbg !14629
  %10 = load ptr, ptr %6, align 8, !dbg !14630
  %11 = call noundef ptr @_ZN3fit8internal19error_or_value_typeIiN3fdf10MmioBufferELNS0_15storage_class_eE1EEC2IS3_EENS0_7value_tEOT_(ptr noundef nonnull align 8 dereferenceable(56) %9, i32 noundef 0, ptr noundef nonnull align 8 dereferenceable(56) %10), !dbg !14629
  ret ptr %7, !dbg !14631
}

; Function Attrs: noinline optnone sspstrong uwtable
define linkonce_odr noundef ptr @_ZN3fit8internal19error_or_value_typeIiN3fdf10MmioBufferELNS0_15storage_class_eE1EEC2IS3_EENS0_7value_tEOT_(ptr noundef nonnull returned align 8 dereferenceable(56) %0, i32 noundef %1, ptr noundef nonnull align 8 dereferenceable(56) %2) unnamed_addr #4 comdat align 2 !dbg !14632 {
  %4 = alloca ptr, align 8
  %5 = alloca i32, align 4
  %6 = alloca ptr, align 8
  store ptr %0, ptr %4, align 8
  call void @llvm.dbg.declare(metadata ptr %4, metadata !14634, metadata !DIExpression()), !dbg !14635
  store i32 %1, ptr %5, align 4
  call void @llvm.dbg.declare(metadata ptr %5, metadata !14636, metadata !DIExpression()), !dbg !14637
  store ptr %2, ptr %6, align 8
  call void @llvm.dbg.declare(metadata ptr %6, metadata !14638, metadata !DIExpression()), !dbg !14639
  %7 = load ptr, ptr %4, align 8
  %8 = load ptr, ptr %6, align 8, !dbg !14640
  %9 = call noundef ptr @_ZN3fdf10MmioBufferC2EOS0_(ptr noundef nonnull align 8 dereferenceable(56) %7, ptr noundef nonnull align 8 dereferenceable(56) %8), !dbg !14641
  ret ptr %7, !dbg !14642
}

declare void @mmio_buffer_release(ptr noundef) #6

; Function Attrs: mustprogress noinline nounwind optnone sspstrong uwtable
define linkonce_odr noundef nonnull align 4 dereferenceable(8) ptr @_ZN4fidl15UntypedEnvelope2AsIN2zx3vmoEEERNS_8EnvelopeIT_vEEv(ptr noundef nonnull align 8 dereferenceable(8) %0) #2 comdat align 2 !dbg !14643 {
  %2 = alloca ptr, align 8
  store ptr %0, ptr %2, align 8
  call void @llvm.dbg.declare(metadata ptr %2, metadata !14657, metadata !DIExpression()), !dbg !14659
  %3 = load ptr, ptr %2, align 8
  ret ptr %3, !dbg !14660
}

; Function Attrs: mustprogress noinline optnone sspstrong uwtable
define linkonce_odr noundef nonnull align 4 dereferenceable(4) ptr @_ZN4fidl8EnvelopeIN2zx3vmoEvE8get_dataEv(ptr noundef nonnull align 4 dereferenceable(8) %0) #0 comdat align 2 !dbg !14661 {
  %2 = alloca ptr, align 8
  store ptr %0, ptr %2, align 8
  call void @llvm.dbg.declare(metadata ptr %2, metadata !14662, metadata !DIExpression()), !dbg !14663
  %3 = load ptr, ptr %2, align 8
  br label %4, !dbg !14664

4:                                                ; preds = %1
  %5 = call noundef zeroext i1 @_ZNK4fidl8EnvelopeIN2zx3vmoEvE8has_dataEv(ptr noundef nonnull align 4 dereferenceable(8) %3), !dbg !14665
  %6 = xor i1 %5, true, !dbg !14665
  %7 = xor i1 %6, true, !dbg !14665
  %8 = xor i1 %7, true, !dbg !14665
  br i1 %8, label %9, label %10, !dbg !14668

9:                                                ; preds = %4
  call void (ptr, ...) @__zx_panic(ptr noundef @.str.12, ptr noundef @.str.19, i32 noundef 45, ptr noundef @.str.20) #17, !dbg !14669
  unreachable, !dbg !14669

10:                                               ; preds = %4
  br label %11, !dbg !14668

11:                                               ; preds = %10
  %12 = getelementptr inbounds %"class.fidl::Envelope", ptr %3, i32 0, i32 0, !dbg !14671
  ret ptr %12, !dbg !14672
}

; Function Attrs: mustprogress noinline nounwind optnone sspstrong uwtable
define linkonce_odr noundef zeroext i1 @_ZNK4fidl8EnvelopeIN2zx3vmoEvE8has_dataEv(ptr noundef nonnull align 4 dereferenceable(8) %0) #2 comdat align 2 !dbg !14673 {
  %2 = alloca ptr, align 8
  store ptr %0, ptr %2, align 8
  call void @llvm.dbg.declare(metadata ptr %2, metadata !14674, metadata !DIExpression()), !dbg !14676
  %3 = load ptr, ptr %2, align 8
  %4 = getelementptr inbounds %"class.fidl::Envelope", ptr %3, i32 0, i32 2, !dbg !14677
  %5 = load i16, ptr %4, align 2, !dbg !14677
  %6 = zext i16 %5 to i32, !dbg !14677
  %7 = and i32 %6, 1, !dbg !14678
  %8 = icmp ne i32 %7, 0, !dbg !14679
  ret i1 %8, !dbg !14680
}

; Function Attrs: noinline nounwind optnone sspstrong uwtable
define linkonce_odr noundef ptr @_ZN2zx6objectINS_3vmoEEC2Ej(ptr noundef nonnull returned align 4 dereferenceable(4) %0, i32 noundef %1) unnamed_addr #3 comdat align 2 !dbg !14681 {
  %3 = alloca ptr, align 8
  %4 = alloca i32, align 4
  store ptr %0, ptr %3, align 8
  call void @llvm.dbg.declare(metadata ptr %3, metadata !14682, metadata !DIExpression()), !dbg !14683
  store i32 %1, ptr %4, align 4
  call void @llvm.dbg.declare(metadata ptr %4, metadata !14684, metadata !DIExpression()), !dbg !14685
  %5 = load ptr, ptr %3, align 8
  %6 = load i32, ptr %4, align 4, !dbg !14686
  %7 = call noundef ptr @_ZN2zx11object_baseC2Ej(ptr noundef nonnull align 4 dereferenceable(4) %5, i32 noundef %6), !dbg !14687
  ret ptr %5, !dbg !14688
}

; Function Attrs: noinline nounwind optnone sspstrong uwtable
define linkonce_odr noundef ptr @_ZN2zx6objectINS_3vmoEED2Ev(ptr noundef nonnull returned align 4 dereferenceable(4) %0) unnamed_addr #3 comdat align 2 !dbg !14689 {
  %2 = alloca ptr, align 8
  store ptr %0, ptr %2, align 8
  call void @llvm.dbg.declare(metadata ptr %2, metadata !14691, metadata !DIExpression()), !dbg !14692
  %3 = load ptr, ptr %2, align 8
  %4 = call noundef ptr @_ZN2zx11object_baseD2Ev(ptr noundef nonnull align 4 dereferenceable(4) %3) #16, !dbg !14693
  ret ptr %3, !dbg !14695
}

; Function Attrs: mustprogress noinline nounwind optnone sspstrong uwtable
define linkonce_odr noundef nonnull align 4 dereferenceable(4) ptr @_ZNKR3fit6resultIiJN3fdf10MmioBufferEEE11error_valueEv(ptr noundef nonnull align 8 dereferenceable(64) %0) #2 comdat align 2 !dbg !14696 {
  %2 = alloca ptr, align 8
  store ptr %0, ptr %2, align 8
  call void @llvm.dbg.declare(metadata ptr %2, metadata !14697, metadata !DIExpression()), !dbg !14698
  %3 = load ptr, ptr %2, align 8
  %4 = call noundef zeroext i1 @_ZNK3fit6resultIiJN3fdf10MmioBufferEEE8is_errorEv(ptr noundef nonnull align 8 dereferenceable(64) %3), !dbg !14699
  br i1 %4, label %5, label %8, !dbg !14701

5:                                                ; preds = %1
  %6 = getelementptr inbounds %"class.fit::result.52", ptr %3, i32 0, i32 0, !dbg !14702
  %7 = getelementptr inbounds %"struct.fit::internal::storage_type.53", ptr %6, i32 0, i32 1, !dbg !14704
  ret ptr %7, !dbg !14705

8:                                                ; preds = %1
  call void @abort() #18, !dbg !14706
  unreachable, !dbg !14706
}

; Function Attrs: mustprogress noinline optnone sspstrong uwtable
define linkonce_odr noundef nonnull align 8 dereferenceable(56) ptr @_ZNR3fit6resultIiJN3fdf10MmioBufferEEE5valueEv(ptr noundef nonnull align 8 dereferenceable(64) %0) #0 comdat align 2 !dbg !14707 {
  %2 = alloca ptr, align 8
  store ptr %0, ptr %2, align 8
  call void @llvm.dbg.declare(metadata ptr %2, metadata !14708, metadata !DIExpression()), !dbg !14709
  %3 = load ptr, ptr %2, align 8
  %4 = call noundef zeroext i1 @_ZNK3fit6resultIiJN3fdf10MmioBufferEEE5is_okEv(ptr noundef nonnull align 8 dereferenceable(64) %3), !dbg !14710
  br i1 %4, label %5, label %8, !dbg !14712

5:                                                ; preds = %1
  %6 = getelementptr inbounds %"class.fit::result.52", ptr %3, i32 0, i32 0, !dbg !14713
  %7 = getelementptr inbounds %"struct.fit::internal::storage_type.53", ptr %6, i32 0, i32 1, !dbg !14715
  ret ptr %7, !dbg !14716

8:                                                ; preds = %1
  call void @abort() #18, !dbg !14717
  unreachable, !dbg !14717
}

; Function Attrs: mustprogress noinline nounwind optnone sspstrong uwtable
define linkonce_odr noundef zeroext i1 @_ZNK3fit6resultIiJN3fdf10MmioBufferEEE5is_okEv(ptr noundef nonnull align 8 dereferenceable(64) %0) #2 comdat align 2 !dbg !14718 {
  %2 = alloca ptr, align 8
  store ptr %0, ptr %2, align 8
  call void @llvm.dbg.declare(metadata ptr %2, metadata !14719, metadata !DIExpression()), !dbg !14720
  %3 = load ptr, ptr %2, align 8
  %4 = getelementptr inbounds %"class.fit::result.52", ptr %3, i32 0, i32 0, !dbg !14721
  %5 = getelementptr inbounds %"struct.fit::internal::storage_type.53", ptr %4, i32 0, i32 0, !dbg !14722
  %6 = load i32, ptr %5, align 8, !dbg !14722
  %7 = icmp eq i32 %6, 2, !dbg !14723
  ret i1 %7, !dbg !14724
}

; Function Attrs: noinline optnone sspstrong uwtable
define linkonce_odr noundef ptr @_ZN4fidl8internal20TransactionalRequestIN20fuchsia_hardware_pci6Device16SetInterruptModeEEC2ENS2_13InterruptModeEj(ptr noundef nonnull returned align 8 dereferenceable(24) %0, i8 %1, i32 noundef %2) unnamed_addr #4 comdat align 2 !dbg !14725 {
  %4 = alloca %"class.fuchsia_hardware_pci::InterruptMode", align 1
  %5 = alloca ptr, align 8
  %6 = alloca i32, align 4
  %7 = getelementptr inbounds %"class.fuchsia_hardware_pci::InterruptMode", ptr %4, i32 0, i32 0
  store i8 %1, ptr %7, align 1
  store ptr %0, ptr %5, align 8
  call void @llvm.dbg.declare(metadata ptr %5, metadata !14726, metadata !DIExpression()), !dbg !14728
  call void @llvm.dbg.declare(metadata ptr %4, metadata !14729, metadata !DIExpression()), !dbg !14730
  store i32 %2, ptr %6, align 4
  call void @llvm.dbg.declare(metadata ptr %6, metadata !14731, metadata !DIExpression()), !dbg !14732
  %8 = load ptr, ptr %5, align 8
  %9 = getelementptr inbounds %"struct.fidl::internal::TransactionalRequest.108", ptr %8, i32 0, i32 0, !dbg !14733
  %10 = getelementptr inbounds %"struct.fidl::internal::TransactionalRequest.108", ptr %8, i32 0, i32 1, !dbg !14734
  %11 = getelementptr inbounds %"struct.fuchsia_hardware_pci::wire::DeviceSetInterruptModeRequest", ptr %10, i32 0, i32 0, !dbg !14735
  call void @llvm.memcpy.p0.p0.i64(ptr align 8 %11, ptr align 1 %4, i64 1, i1 false), !dbg !14736
  %12 = getelementptr inbounds %"struct.fuchsia_hardware_pci::wire::DeviceSetInterruptModeRequest", ptr %10, i32 0, i32 1, !dbg !14735
  %13 = load i32, ptr %6, align 4, !dbg !14737
  store i32 %13, ptr %12, align 4, !dbg !14735
  call void @_ZN4fidl8internal20TransactionalRequestIN20fuchsia_hardware_pci6Device16SetInterruptModeEE11_InitHeaderEv(ptr noundef nonnull align 8 dereferenceable(24) %8), !dbg !14738
  ret ptr %8, !dbg !14740
}

declare noundef ptr @_ZN4fidl10WireResultIN20fuchsia_hardware_pci6Device16SetInterruptModeEEC1ENS_16UnownedClientEndIS2_EEPNS_8internal20TransactionalRequestIS3_EE(ptr noundef nonnull returned align 8 dereferenceable(88), i32, ptr noundef) unnamed_addr #6

declare void @_ZN4fidl8internal20TransactionalRequestIN20fuchsia_hardware_pci6Device16SetInterruptModeEE11_InitHeaderEv(ptr noundef nonnull align 8 dereferenceable(24)) #6

; Function Attrs: noinline optnone sspstrong uwtable
define linkonce_odr noundef ptr @_ZN4fidl8internal20TransactionalRequestIN20fuchsia_hardware_pci6Device12MapInterruptEEC2Ej(ptr noundef nonnull returned align 8 dereferenceable(24) %0, i32 noundef %1) unnamed_addr #4 comdat align 2 !dbg !14741 {
  %3 = alloca ptr, align 8
  %4 = alloca i32, align 4
  store ptr %0, ptr %3, align 8
  call void @llvm.dbg.declare(metadata ptr %3, metadata !14742, metadata !DIExpression()), !dbg !14744
  store i32 %1, ptr %4, align 4
  call void @llvm.dbg.declare(metadata ptr %4, metadata !14745, metadata !DIExpression()), !dbg !14746
  %5 = load ptr, ptr %3, align 8
  %6 = getelementptr inbounds %"struct.fidl::internal::TransactionalRequest.109", ptr %5, i32 0, i32 0, !dbg !14747
  %7 = getelementptr inbounds %"struct.fidl::internal::TransactionalRequest.109", ptr %5, i32 0, i32 1, !dbg !14748
  %8 = getelementptr inbounds %"struct.fuchsia_hardware_pci::wire::DeviceMapInterruptRequest", ptr %7, i32 0, i32 0, !dbg !14749
  %9 = load i32, ptr %4, align 4, !dbg !14750
  store i32 %9, ptr %8, align 8, !dbg !14749
  call void @_ZN4fidl8internal20TransactionalRequestIN20fuchsia_hardware_pci6Device12MapInterruptEE11_InitHeaderEv(ptr noundef nonnull align 8 dereferenceable(24) %5), !dbg !14751
  ret ptr %5, !dbg !14753
}

declare noundef ptr @_ZN4fidl10WireResultIN20fuchsia_hardware_pci6Device12MapInterruptEEC1ENS_16UnownedClientEndIS2_EEPNS_8internal20TransactionalRequestIS3_EE(ptr noundef nonnull returned align 8 dereferenceable(96), i32, ptr noundef) unnamed_addr #6

declare void @_ZN4fidl8internal20TransactionalRequestIN20fuchsia_hardware_pci6Device12MapInterruptEE11_InitHeaderEv(ptr noundef nonnull align 8 dereferenceable(24)) #6

; Function Attrs: mustprogress noinline nounwind optnone sspstrong uwtable
define linkonce_odr noundef zeroext i1 @_ZNK3fit6resultIiJPN20fuchsia_hardware_pci4wire26DeviceMapInterruptResponseEEE5is_okEv(ptr noundef nonnull align 8 dereferenceable(16) %0) #2 comdat align 2 !dbg !14754 {
  %2 = alloca ptr, align 8
  store ptr %0, ptr %2, align 8
  call void @llvm.dbg.declare(metadata ptr %2, metadata !14755, metadata !DIExpression()), !dbg !14756
  %3 = load ptr, ptr %2, align 8
  %4 = getelementptr inbounds %"class.fit::result.85", ptr %3, i32 0, i32 0, !dbg !14757
  %5 = getelementptr inbounds %"struct.fit::internal::storage_type.86", ptr %4, i32 0, i32 0, !dbg !14758
  %6 = load i32, ptr %5, align 8, !dbg !14758
  %7 = icmp eq i32 %6, 2, !dbg !14759
  ret i1 %7, !dbg !14760
}

; Function Attrs: mustprogress noinline optnone sspstrong uwtable
define linkonce_odr void @_ZN2zx11object_base5resetEj(ptr noundef nonnull align 4 dereferenceable(4) %0, i32 noundef %1) #0 comdat align 2 !dbg !14761 {
  %3 = alloca ptr, align 8
  %4 = alloca i32, align 4
  store ptr %0, ptr %3, align 8
  call void @llvm.dbg.declare(metadata ptr %3, metadata !14762, metadata !DIExpression()), !dbg !14763
  store i32 %1, ptr %4, align 4
  call void @llvm.dbg.declare(metadata ptr %4, metadata !14764, metadata !DIExpression()), !dbg !14765
  %5 = load ptr, ptr %3, align 8
  call void @_ZN2zx11object_base5closeEv(ptr noundef nonnull align 4 dereferenceable(4) %5), !dbg !14766
  %6 = load i32, ptr %4, align 4, !dbg !14767
  %7 = getelementptr inbounds %"class.zx::object_base", ptr %5, i32 0, i32 0, !dbg !14768
  store i32 %6, ptr %7, align 4, !dbg !14769
  ret void, !dbg !14770
}

; Function Attrs: noinline optnone sspstrong uwtable
define linkonce_odr noundef ptr @_ZN3fit6resultIiJEEC2ENS_7successIJEEE(ptr noundef nonnull returned align 4 dereferenceable(8) %0) unnamed_addr #4 comdat align 2 !dbg !14771 {
  %2 = alloca %"class.fit::success", align 1
  %3 = alloca ptr, align 8
  store ptr %0, ptr %3, align 8
  call void @llvm.dbg.declare(metadata ptr %3, metadata !14772, metadata !DIExpression()), !dbg !14773
  call void @llvm.dbg.declare(metadata ptr %2, metadata !14774, metadata !DIExpression()), !dbg !14775
  %4 = load ptr, ptr %3, align 8
  %5 = getelementptr inbounds %"class.fit::result", ptr %4, i32 0, i32 0, !dbg !14776
  %6 = call noundef ptr @_ZN3fit8internal12storage_typeILNS0_15storage_class_eE0EiJEEC2ENS0_7value_tE(ptr noundef nonnull align 4 dereferenceable(8) %5, i32 noundef 0), !dbg !14776
  ret ptr %4, !dbg !14777
}

; Function Attrs: noinline optnone sspstrong uwtable
define linkonce_odr noundef ptr @_ZN3fit8internal12storage_typeILNS0_15storage_class_eE0EiJEEC2ENS0_7value_tE(ptr noundef nonnull returned align 4 dereferenceable(8) %0, i32 noundef %1) unnamed_addr #4 comdat align 2 !dbg !14778 {
  %3 = alloca ptr, align 8
  %4 = alloca i32, align 4
  %5 = alloca %"struct.fit::internal::empty_type", align 1
  store ptr %0, ptr %3, align 8
  call void @llvm.dbg.declare(metadata ptr %3, metadata !14779, metadata !DIExpression()), !dbg !14780
  store i32 %1, ptr %4, align 4
  call void @llvm.dbg.declare(metadata ptr %4, metadata !14781, metadata !DIExpression()), !dbg !14782
  %6 = load ptr, ptr %3, align 8
  %7 = getelementptr inbounds %"struct.fit::internal::storage_type", ptr %6, i32 0, i32 0, !dbg !14783
  store i32 2, ptr %7, align 4, !dbg !14783
  %8 = getelementptr inbounds %"struct.fit::internal::storage_type", ptr %6, i32 0, i32 1, !dbg !14784
  %9 = call noundef ptr @_ZN3fit8internal19error_or_value_typeIiNS0_10empty_typeELNS0_15storage_class_eE0EEC2IS2_EENS0_7value_tEOT_(ptr noundef nonnull align 4 dereferenceable(4) %8, i32 noundef 0, ptr noundef nonnull align 1 dereferenceable(1) %5), !dbg !14784
  ret ptr %6, !dbg !14785
}

; Function Attrs: noinline nounwind optnone sspstrong uwtable
define linkonce_odr noundef ptr @_ZN3fit8internal19error_or_value_typeIiNS0_10empty_typeELNS0_15storage_class_eE0EEC2IS2_EENS0_7value_tEOT_(ptr noundef nonnull returned align 4 dereferenceable(4) %0, i32 noundef %1, ptr noundef nonnull align 1 dereferenceable(1) %2) unnamed_addr #3 comdat align 2 !dbg !14786 {
  %4 = alloca ptr, align 8
  %5 = alloca i32, align 4
  %6 = alloca ptr, align 8
  store ptr %0, ptr %4, align 8
  call void @llvm.dbg.declare(metadata ptr %4, metadata !14793, metadata !DIExpression()), !dbg !14794
  store i32 %1, ptr %5, align 4
  call void @llvm.dbg.declare(metadata ptr %5, metadata !14795, metadata !DIExpression()), !dbg !14796
  store ptr %2, ptr %6, align 8
  call void @llvm.dbg.declare(metadata ptr %6, metadata !14797, metadata !DIExpression()), !dbg !14798
  %7 = load ptr, ptr %4, align 8
  %8 = load ptr, ptr %6, align 8, !dbg !14799
  ret ptr %7, !dbg !14800
}

; Function Attrs: noinline nounwind optnone sspstrong uwtable
define linkonce_odr noundef ptr @_ZN4fidl12DecodedValueINS_12WireResponseIN20fuchsia_hardware_pci6Device12MapInterruptEEEED2Ev(ptr noundef nonnull returned align 8 dereferenceable(8) %0) unnamed_addr #3 comdat align 2 personality ptr @__gxx_personality_v0 !dbg !14801 {
  %2 = alloca ptr, align 8
  %3 = alloca ptr, align 8
  store ptr %0, ptr %3, align 8
  call void @llvm.dbg.declare(metadata ptr %3, metadata !14802, metadata !DIExpression()), !dbg !14804
  %4 = load ptr, ptr %3, align 8
  store ptr %4, ptr %2, align 8
  %5 = getelementptr inbounds %"class.fidl::DecodedValue.95", ptr %4, i32 0, i32 0, !dbg !14805
  %6 = load ptr, ptr %5, align 8, !dbg !14805
  %7 = icmp ne ptr %6, null, !dbg !14810
  br i1 %7, label %8, label %12, !dbg !14811

8:                                                ; preds = %1
  %9 = getelementptr inbounds %"class.fidl::DecodedValue.95", ptr %4, i32 0, i32 0, !dbg !14812
  %10 = load ptr, ptr %9, align 8, !dbg !14812
  invoke void @_ZN20fuchsia_hardware_pci4wire29DeviceMapInterruptTopResponse13_CloseHandlesEv(ptr noundef nonnull align 8 dereferenceable(16) %10)
          to label %11 unwind label %14, !dbg !14814

11:                                               ; preds = %8
  br label %12, !dbg !14815

12:                                               ; preds = %11, %1
  %13 = load ptr, ptr %2, align 8, !dbg !14816
  ret ptr %13, !dbg !14816

14:                                               ; preds = %8
  %15 = landingpad { ptr, i32 }
          catch ptr null, !dbg !14814
  %16 = extractvalue { ptr, i32 } %15, 0, !dbg !14814
  call void @__clang_call_terminate(ptr %16) #18, !dbg !14814
  unreachable, !dbg !14814
}

declare void @_ZN20fuchsia_hardware_pci4wire29DeviceMapInterruptTopResponse13_CloseHandlesEv(ptr noundef nonnull align 8 dereferenceable(16)) #6

; Function Attrs: noinline nounwind optnone sspstrong uwtable
define linkonce_odr noundef ptr @_ZN4fidl12DecodedValueINS_12WireResponseIN20fuchsia_hardware_pci6Device16SetInterruptModeEEEED2Ev(ptr noundef nonnull returned align 8 dereferenceable(8) %0) unnamed_addr #3 comdat align 2 !dbg !14817 {
  %2 = alloca ptr, align 8
  store ptr %0, ptr %2, align 8
  call void @llvm.dbg.declare(metadata ptr %2, metadata !14818, metadata !DIExpression()), !dbg !14820
  %3 = load ptr, ptr %2, align 8
  ret ptr %3, !dbg !14821
}

; Function Attrs: noinline nounwind optnone sspstrong uwtable
define linkonce_odr noundef ptr @_ZN4fidl12DecodedValueINS_12WireResponseIN20fuchsia_hardware_pci6Device6GetBarEEEED2Ev(ptr noundef nonnull returned align 8 dereferenceable(8) %0) unnamed_addr #3 comdat align 2 personality ptr @__gxx_personality_v0 !dbg !14822 {
  %2 = alloca ptr, align 8
  %3 = alloca ptr, align 8
  store ptr %0, ptr %3, align 8
  call void @llvm.dbg.declare(metadata ptr %3, metadata !14823, metadata !DIExpression()), !dbg !14825
  %4 = load ptr, ptr %3, align 8
  store ptr %4, ptr %2, align 8
  %5 = getelementptr inbounds %"class.fidl::DecodedValue", ptr %4, i32 0, i32 0, !dbg !14826
  %6 = load ptr, ptr %5, align 8, !dbg !14826
  %7 = icmp ne ptr %6, null, !dbg !14831
  br i1 %7, label %8, label %12, !dbg !14832

8:                                                ; preds = %1
  %9 = getelementptr inbounds %"class.fidl::DecodedValue", ptr %4, i32 0, i32 0, !dbg !14833
  %10 = load ptr, ptr %9, align 8, !dbg !14833
  invoke void @_ZN20fuchsia_hardware_pci4wire23DeviceGetBarTopResponse13_CloseHandlesEv(ptr noundef nonnull align 8 dereferenceable(16) %10)
          to label %11 unwind label %14, !dbg !14835

11:                                               ; preds = %8
  br label %12, !dbg !14836

12:                                               ; preds = %11, %1
  %13 = load ptr, ptr %2, align 8, !dbg !14837
  ret ptr %13, !dbg !14837

14:                                               ; preds = %8
  %15 = landingpad { ptr, i32 }
          catch ptr null, !dbg !14835
  %16 = extractvalue { ptr, i32 } %15, 0, !dbg !14835
  call void @__clang_call_terminate(ptr %16) #18, !dbg !14835
  unreachable, !dbg !14835
}

; Function Attrs: noinline nounwind optnone sspstrong uwtable
define linkonce_odr noundef ptr @_ZN4fidl8internal18BoxedMessageBufferILm65536EED2Ev(ptr noundef nonnull returned align 8 dereferenceable(8) %0) unnamed_addr #3 comdat align 2 !dbg !14838 {
  %2 = alloca ptr, align 8
  %3 = alloca ptr, align 8
  store ptr %0, ptr %3, align 8
  call void @llvm.dbg.declare(metadata ptr %3, metadata !14845, metadata !DIExpression()), !dbg !14847
  %4 = load ptr, ptr %3, align 8
  store ptr %4, ptr %2, align 8
  %5 = getelementptr inbounds %"struct.fidl::internal::BoxedMessageBuffer", ptr %4, i32 0, i32 0, !dbg !14848
  %6 = load ptr, ptr %5, align 8, !dbg !14848
  %7 = icmp eq ptr %6, null, !dbg !14850
  br i1 %7, label %9, label %8, !dbg !14850

8:                                                ; preds = %1
  call void @_ZdaPv(ptr noundef %6) #20, !dbg !14850
  br label %9, !dbg !14850

9:                                                ; preds = %8, %1
  %10 = load ptr, ptr %2, align 8, !dbg !14851
  ret ptr %10, !dbg !14851
}

declare void @_ZN20fuchsia_hardware_pci4wire23DeviceGetBarTopResponse13_CloseHandlesEv(ptr noundef nonnull align 8 dereferenceable(16)) #6

; Function Attrs: nobuiltin nounwind
declare void @_ZdaPv(ptr noundef) #12

; Function Attrs: noinline optnone sspstrong uwtable
define linkonce_odr noundef ptr @_ZN3fit6resultIiJjEEC2IiLb1EEENS_5errorIT_EE(ptr noundef nonnull returned align 4 dereferenceable(8) %0, i32 %1) unnamed_addr #4 comdat align 2 !dbg !14852 {
  %3 = alloca %"class.fit::error", align 4
  %4 = alloca ptr, align 8
  %5 = getelementptr inbounds %"class.fit::error", ptr %3, i32 0, i32 0
  store i32 %1, ptr %5, align 4
  store ptr %0, ptr %4, align 8
  call void @llvm.dbg.declare(metadata ptr %4, metadata !14856, metadata !DIExpression()), !dbg !14858
  call void @llvm.dbg.declare(metadata ptr %3, metadata !14859, metadata !DIExpression()), !dbg !14860
  %6 = load ptr, ptr %4, align 8
  %7 = getelementptr inbounds %"class.fit::result.98", ptr %6, i32 0, i32 0, !dbg !14861
  %8 = getelementptr inbounds %"class.fit::error", ptr %3, i32 0, i32 0, !dbg !14862
  %9 = call noundef ptr @_ZN3fit8internal12storage_typeILNS0_15storage_class_eE0EiJjEEC2IiEENS0_7error_tEOT_(ptr noundef nonnull align 4 dereferenceable(8) %7, i32 noundef 0, ptr noundef nonnull align 4 dereferenceable(4) %8), !dbg !14861
  ret ptr %6, !dbg !14863
}

; Function Attrs: mustprogress noinline optnone sspstrong uwtable
define linkonce_odr noundef nonnull align 4 dereferenceable(4) ptr @_ZNR3fit6resultIiJjEE11error_valueEv(ptr noundef nonnull align 4 dereferenceable(8) %0) #0 comdat align 2 !dbg !14864 {
  %2 = alloca ptr, align 8
  store ptr %0, ptr %2, align 8
  call void @llvm.dbg.declare(metadata ptr %2, metadata !14865, metadata !DIExpression()), !dbg !14866
  %3 = load ptr, ptr %2, align 8
  %4 = call noundef zeroext i1 @_ZNK3fit6resultIiJjEE8is_errorEv(ptr noundef nonnull align 4 dereferenceable(8) %3), !dbg !14867
  br i1 %4, label %5, label %8, !dbg !14869

5:                                                ; preds = %1
  %6 = getelementptr inbounds %"class.fit::result.98", ptr %3, i32 0, i32 0, !dbg !14870
  %7 = getelementptr inbounds %"struct.fit::internal::storage_type.99", ptr %6, i32 0, i32 1, !dbg !14872
  ret ptr %7, !dbg !14873

8:                                                ; preds = %1
  call void @abort() #18, !dbg !14874
  unreachable, !dbg !14874
}

; Function Attrs: noinline optnone sspstrong uwtable
define linkonce_odr noundef ptr @_ZN3fit8internal12storage_typeILNS0_15storage_class_eE0EiJjEEC2IiEENS0_7error_tEOT_(ptr noundef nonnull returned align 4 dereferenceable(8) %0, i32 noundef %1, ptr noundef nonnull align 4 dereferenceable(4) %2) unnamed_addr #4 comdat align 2 !dbg !14875 {
  %4 = alloca ptr, align 8
  %5 = alloca i32, align 4
  %6 = alloca ptr, align 8
  store ptr %0, ptr %4, align 8
  call void @llvm.dbg.declare(metadata ptr %4, metadata !14879, metadata !DIExpression()), !dbg !14881
  store i32 %1, ptr %5, align 4
  call void @llvm.dbg.declare(metadata ptr %5, metadata !14882, metadata !DIExpression()), !dbg !14883
  store ptr %2, ptr %6, align 8
  call void @llvm.dbg.declare(metadata ptr %6, metadata !14884, metadata !DIExpression()), !dbg !14885
  %7 = load ptr, ptr %4, align 8
  %8 = getelementptr inbounds %"struct.fit::internal::storage_type.99", ptr %7, i32 0, i32 0, !dbg !14886
  store i32 1, ptr %8, align 4, !dbg !14886
  %9 = getelementptr inbounds %"struct.fit::internal::storage_type.99", ptr %7, i32 0, i32 1, !dbg !14887
  %10 = load ptr, ptr %6, align 8, !dbg !14888
  %11 = call noundef ptr @_ZN3fit8internal19error_or_value_typeIijLNS0_15storage_class_eE0EEC2IiEENS0_7error_tEOT_(ptr noundef nonnull align 4 dereferenceable(4) %9, i32 noundef 0, ptr noundef nonnull align 4 dereferenceable(4) %10), !dbg !14887
  ret ptr %7, !dbg !14889
}

; Function Attrs: noinline nounwind optnone sspstrong uwtable
define linkonce_odr noundef ptr @_ZN3fit8internal19error_or_value_typeIijLNS0_15storage_class_eE0EEC2IiEENS0_7error_tEOT_(ptr noundef nonnull returned align 4 dereferenceable(4) %0, i32 noundef %1, ptr noundef nonnull align 4 dereferenceable(4) %2) unnamed_addr #3 comdat align 2 !dbg !14890 {
  %4 = alloca ptr, align 8
  %5 = alloca i32, align 4
  %6 = alloca ptr, align 8
  store ptr %0, ptr %4, align 8
  call void @llvm.dbg.declare(metadata ptr %4, metadata !14894, metadata !DIExpression()), !dbg !14896
  store i32 %1, ptr %5, align 4
  call void @llvm.dbg.declare(metadata ptr %5, metadata !14897, metadata !DIExpression()), !dbg !14898
  store ptr %2, ptr %6, align 8
  call void @llvm.dbg.declare(metadata ptr %6, metadata !14899, metadata !DIExpression()), !dbg !14900
  %7 = load ptr, ptr %4, align 8
  %8 = load ptr, ptr %6, align 8, !dbg !14901
  %9 = load i32, ptr %8, align 4, !dbg !14902
  store i32 %9, ptr %7, align 4, !dbg !14903
  ret ptr %7, !dbg !14904
}

; Function Attrs: mustprogress noinline nounwind optnone sspstrong uwtable
define linkonce_odr noundef zeroext i1 @_ZNK3fit6resultIiJjEE8is_errorEv(ptr noundef nonnull align 4 dereferenceable(8) %0) #2 comdat align 2 !dbg !14905 {
  %2 = alloca ptr, align 8
  store ptr %0, ptr %2, align 8
  call void @llvm.dbg.declare(metadata ptr %2, metadata !14906, metadata !DIExpression()), !dbg !14908
  %3 = load ptr, ptr %2, align 8
  %4 = getelementptr inbounds %"class.fit::result.98", ptr %3, i32 0, i32 0, !dbg !14909
  %5 = getelementptr inbounds %"struct.fit::internal::storage_type.99", ptr %4, i32 0, i32 0, !dbg !14910
  %6 = load i32, ptr %5, align 4, !dbg !14910
  %7 = icmp eq i32 %6, 1, !dbg !14911
  ret i1 %7, !dbg !14912
}

; Function Attrs: mustprogress noinline optnone sspstrong uwtable
define linkonce_odr i32 @_ZN10edu_device6Status3GetEv() #0 comdat align 2 !dbg !14913 {
  %1 = alloca %"class.hwreg::RegisterAddr", align 4
  %2 = call noundef ptr @_ZN5hwreg12RegisterAddrIN10edu_device6StatusEEC2Ej(ptr noundef nonnull align 4 dereferenceable(4) %1, i32 noundef 32), !dbg !14917
  %3 = getelementptr inbounds %"class.hwreg::RegisterAddr", ptr %1, i32 0, i32 0, !dbg !14918
  %4 = load i32, ptr %3, align 4, !dbg !14918
  ret i32 %4, !dbg !14918
}

; Function Attrs: mustprogress noinline optnone sspstrong uwtable
define linkonce_odr { i64, i64 } @_ZN5hwreg12RegisterAddrIN10edu_device6StatusEE8ReadFromIN3fdf10MmioBufferEEES2_PT_(ptr noundef nonnull align 4 dereferenceable(4) %0, ptr noundef %1) #0 comdat align 2 !dbg !14919 {
  %3 = alloca %"class.edu_device::Status", align 4
  %4 = alloca ptr, align 8
  %5 = alloca ptr, align 8
  store ptr %0, ptr %4, align 8
  call void @llvm.dbg.declare(metadata ptr %4, metadata !14923, metadata !DIExpression()), !dbg !14925
  store ptr %1, ptr %5, align 8
  call void @llvm.dbg.declare(metadata ptr %5, metadata !14926, metadata !DIExpression()), !dbg !14927
  %6 = load ptr, ptr %4, align 8
  call void @llvm.dbg.declare(metadata ptr %3, metadata !14928, metadata !DIExpression()), !dbg !14929
  %7 = call noundef ptr @_ZN10edu_device6StatusC2Ev(ptr noundef nonnull align 4 dereferenceable(16) %3), !dbg !14929
  %8 = getelementptr inbounds %"class.hwreg::RegisterAddr", ptr %6, i32 0, i32 0, !dbg !14930
  %9 = load i32, ptr %8, align 4, !dbg !14930
  call void @_ZN5hwreg12RegisterBaseIN10edu_device6StatusEjvE12set_reg_addrEj(ptr noundef nonnull align 4 dereferenceable(16) %3, i32 noundef %9), !dbg !14931
  %10 = load ptr, ptr %5, align 8, !dbg !14932
  %11 = call noundef nonnull align 4 dereferenceable(16) ptr @_ZN5hwreg12RegisterBaseIN10edu_device6StatusEjvE8ReadFromIN3fdf10MmioBufferEEERS2_PT_(ptr noundef nonnull align 4 dereferenceable(16) %3, ptr noundef %10), !dbg !14933
  %12 = getelementptr inbounds %"class.edu_device::Status", ptr %3, i32 0, i32 0, !dbg !14934
  %13 = load { i64, i64 }, ptr %12, align 4, !dbg !14934
  ret { i64, i64 } %13, !dbg !14934
}

; Function Attrs: noinline nounwind optnone sspstrong uwtable
define linkonce_odr noundef ptr @_ZN5hwreg12RegisterAddrIN10edu_device6StatusEEC2Ej(ptr noundef nonnull returned align 4 dereferenceable(4) %0, i32 noundef %1) unnamed_addr #3 comdat align 2 !dbg !14935 {
  %3 = alloca ptr, align 8
  %4 = alloca i32, align 4
  store ptr %0, ptr %3, align 8
  call void @llvm.dbg.declare(metadata ptr %3, metadata !14936, metadata !DIExpression()), !dbg !14937
  store i32 %1, ptr %4, align 4
  call void @llvm.dbg.declare(metadata ptr %4, metadata !14938, metadata !DIExpression()), !dbg !14939
  %5 = load ptr, ptr %3, align 8
  %6 = getelementptr inbounds %"class.hwreg::RegisterAddr", ptr %5, i32 0, i32 0, !dbg !14940
  %7 = load i32, ptr %4, align 4, !dbg !14941
  store i32 %7, ptr %6, align 4, !dbg !14940
  ret ptr %5, !dbg !14942
}

; Function Attrs: noinline optnone sspstrong uwtable
define linkonce_odr noundef ptr @_ZN10edu_device6StatusC2Ev(ptr noundef nonnull returned align 4 dereferenceable(16) %0) unnamed_addr #4 comdat align 2 !dbg !14943 {
  %2 = alloca ptr, align 8
  store ptr %0, ptr %2, align 8
  call void @llvm.dbg.declare(metadata ptr %2, metadata !14947, metadata !DIExpression()), !dbg !14948
  %3 = load ptr, ptr %2, align 8
  %4 = call noundef ptr @_ZN5hwreg12RegisterBaseIN10edu_device6StatusEjvEC2Ev(ptr noundef nonnull align 4 dereferenceable(16) %3) #16, !dbg !14949
  %5 = getelementptr inbounds %"class.hwreg::RegisterBase", ptr %3, i32 0, i32 0, !dbg !14950
  %6 = call noundef ptr @_ZN5hwreg8internal5FieldIN10edu_device6StatusENS3_10busyMarkerEEC2EPNS0_15FieldParametersILb0EjEEPKcjj(ptr noundef nonnull align 1 dereferenceable(1) %3, ptr noundef %5, ptr noundef @.str.21, i32 noundef 0, i32 noundef 0), !dbg !14950
  %7 = getelementptr inbounds %"class.hwreg::RegisterBase", ptr %3, i32 0, i32 0, !dbg !14951
  %8 = call noundef ptr @_ZN5hwreg8internal5FieldIN10edu_device6StatusENS3_16irq_enableMarkerEEC2EPNS0_15FieldParametersILb0EjEEPKcjj(ptr noundef nonnull align 1 dereferenceable(1) %3, ptr noundef %7, ptr noundef @.str.22, i32 noundef 7, i32 noundef 7), !dbg !14951
  ret ptr %3, !dbg !14949
}

; Function Attrs: mustprogress noinline nounwind optnone sspstrong uwtable
define linkonce_odr void @_ZN5hwreg12RegisterBaseIN10edu_device6StatusEjvE12set_reg_addrEj(ptr noundef nonnull align 4 dereferenceable(16) %0, i32 noundef %1) #2 comdat align 2 !dbg !14952 {
  %3 = alloca ptr, align 8
  %4 = alloca i32, align 4
  store ptr %0, ptr %3, align 8
  call void @llvm.dbg.declare(metadata ptr %3, metadata !14953, metadata !DIExpression()), !dbg !14954
  store i32 %1, ptr %4, align 4
  call void @llvm.dbg.declare(metadata ptr %4, metadata !14955, metadata !DIExpression()), !dbg !14956
  %5 = load ptr, ptr %3, align 8
  %6 = load i32, ptr %4, align 4, !dbg !14957
  %7 = getelementptr inbounds %"class.hwreg::RegisterBase", ptr %5, i32 0, i32 2, !dbg !14958
  store i32 %6, ptr %7, align 4, !dbg !14959
  ret void, !dbg !14960
}

; Function Attrs: mustprogress noinline optnone sspstrong uwtable
define linkonce_odr noundef nonnull align 4 dereferenceable(16) ptr @_ZN5hwreg12RegisterBaseIN10edu_device6StatusEjvE8ReadFromIN3fdf10MmioBufferEEERS2_PT_(ptr noundef nonnull align 4 dereferenceable(16) %0, ptr noundef %1) #0 comdat align 2 !dbg !14961 {
  %3 = alloca ptr, align 8
  %4 = alloca ptr, align 8
  %5 = alloca %class.anon, align 8
  store ptr %0, ptr %3, align 8
  call void @llvm.dbg.declare(metadata ptr %3, metadata !14963, metadata !DIExpression()), !dbg !14964
  store ptr %1, ptr %4, align 8
  call void @llvm.dbg.declare(metadata ptr %4, metadata !14965, metadata !DIExpression()), !dbg !14966
  %6 = load ptr, ptr %3, align 8
  %7 = getelementptr inbounds %class.anon, ptr %5, i32 0, i32 0, !dbg !14967
  store ptr %6, ptr %7, align 8, !dbg !14967
  %8 = load ptr, ptr %4, align 8, !dbg !14968
  call void @_ZN5hwreg8internal5VisitIZNS_12RegisterBaseIN10edu_device6StatusEjvE8ReadFromIN3fdf10MmioBufferEEERS4_PT_EUlOSA_E_RS8_JEEEvSC_OT0_DpOT1_(ptr noundef nonnull align 8 dereferenceable(8) %5, ptr noundef nonnull align 8 dereferenceable(56) %8), !dbg !14969
  ret ptr %6, !dbg !14970
}

; Function Attrs: noinline nounwind optnone sspstrong uwtable
define linkonce_odr noundef ptr @_ZN5hwreg12RegisterBaseIN10edu_device6StatusEjvEC2Ev(ptr noundef nonnull returned align 4 dereferenceable(16) %0) unnamed_addr #3 comdat align 2 !dbg !14971 {
  %2 = alloca ptr, align 8
  store ptr %0, ptr %2, align 8
  call void @llvm.dbg.declare(metadata ptr %2, metadata !14973, metadata !DIExpression()), !dbg !14974
  %3 = load ptr, ptr %2, align 8
  %4 = getelementptr inbounds %"class.hwreg::RegisterBase", ptr %3, i32 0, i32 0, !dbg !14975
  %5 = call noundef ptr @_ZN5hwreg8internal15FieldParametersILb0EjEC2Ev(ptr noundef nonnull align 4 dereferenceable(8) %4) #16, !dbg !14975
  %6 = getelementptr inbounds %"class.hwreg::RegisterBase", ptr %3, i32 0, i32 1, !dbg !14976
  store i32 0, ptr %6, align 4, !dbg !14976
  %7 = getelementptr inbounds %"class.hwreg::RegisterBase", ptr %3, i32 0, i32 2, !dbg !14977
  store i32 0, ptr %7, align 4, !dbg !14977
  ret ptr %3, !dbg !14975
}

; Function Attrs: noinline optnone sspstrong uwtable
define linkonce_odr noundef ptr @_ZN5hwreg8internal5FieldIN10edu_device6StatusENS3_10busyMarkerEEC2EPNS0_15FieldParametersILb0EjEEPKcjj(ptr noundef nonnull returned align 1 dereferenceable(1) %0, ptr noundef %1, ptr noundef %2, i32 noundef %3, i32 noundef %4) unnamed_addr #4 comdat align 2 !dbg !14978 {
  %6 = alloca ptr, align 8
  %7 = alloca ptr, align 8
  %8 = alloca ptr, align 8
  %9 = alloca i32, align 4
  %10 = alloca i32, align 4
  %11 = alloca i32, align 4
  store ptr %0, ptr %6, align 8
  call void @llvm.dbg.declare(metadata ptr %6, metadata !14979, metadata !DIExpression()), !dbg !14981
  store ptr %1, ptr %7, align 8
  call void @llvm.dbg.declare(metadata ptr %7, metadata !14982, metadata !DIExpression()), !dbg !14983
  store ptr %2, ptr %8, align 8
  call void @llvm.dbg.declare(metadata ptr %8, metadata !14984, metadata !DIExpression()), !dbg !14985
  store i32 %3, ptr %9, align 4
  call void @llvm.dbg.declare(metadata ptr %9, metadata !14986, metadata !DIExpression()), !dbg !14987
  store i32 %4, ptr %10, align 4
  call void @llvm.dbg.declare(metadata ptr %10, metadata !14988, metadata !DIExpression()), !dbg !14989
  %12 = load ptr, ptr %6, align 8
  call void @llvm.dbg.declare(metadata ptr %11, metadata !14990, metadata !DIExpression()), !dbg !14992
  %13 = load i32, ptr %9, align 4, !dbg !14993
  %14 = load i32, ptr %10, align 4, !dbg !14994
  %15 = sub i32 %13, %14, !dbg !14995
  %16 = add i32 %15, 1, !dbg !14996
  %17 = call noundef i32 @_ZN5hwreg8internal11ComputeMaskIjEET_j(i32 noundef %16), !dbg !14997
  %18 = load i32, ptr %10, align 4, !dbg !14998
  %19 = shl i32 %17, %18, !dbg !14999
  store i32 %19, ptr %11, align 4, !dbg !14992
  br label %20, !dbg !15000

20:                                               ; preds = %5
  br label %21, !dbg !15001

21:                                               ; preds = %20
  %22 = load ptr, ptr %7, align 8, !dbg !15003
  %23 = getelementptr inbounds %"struct.hwreg::internal::FieldParameters", ptr %22, i32 0, i32 1, !dbg !15004
  %24 = load i32, ptr %23, align 4, !dbg !15004
  %25 = load i32, ptr %11, align 4, !dbg !15005
  %26 = or i32 %24, %25, !dbg !15006
  %27 = load ptr, ptr %7, align 8, !dbg !15007
  %28 = getelementptr inbounds %"struct.hwreg::internal::FieldParameters", ptr %27, i32 0, i32 1, !dbg !15008
  store i32 %26, ptr %28, align 4, !dbg !15009
  %29 = load ptr, ptr %7, align 8, !dbg !15010
  %30 = load ptr, ptr %8, align 8, !dbg !15011
  %31 = load i32, ptr %9, align 4, !dbg !15012
  %32 = load i32, ptr %10, align 4, !dbg !15013
  call void @_ZN5hwreg8internal16FieldPrinterListILb0EjE11AppendFieldEPKcjj(ptr noundef nonnull align 1 dereferenceable(1) %29, ptr noundef %30, i32 noundef %31, i32 noundef %32), !dbg !15014
  ret ptr %12, !dbg !15015
}

; Function Attrs: noinline nounwind optnone sspstrong uwtable
define linkonce_odr noundef ptr @_ZN5hwreg8internal5FieldIN10edu_device6StatusENS3_16irq_enableMarkerEEC2EPNS0_15FieldParametersILb0EjEEPKcjj(ptr noundef nonnull returned align 1 dereferenceable(1) %0, ptr noundef %1, ptr noundef %2, i32 noundef %3, i32 noundef %4) unnamed_addr #3 comdat align 2 !dbg !15016 {
  %6 = alloca ptr, align 8
  %7 = alloca ptr, align 8
  %8 = alloca ptr, align 8
  %9 = alloca i32, align 4
  %10 = alloca i32, align 4
  %11 = alloca i32, align 4
  store ptr %0, ptr %6, align 8
  call void @llvm.dbg.declare(metadata ptr %6, metadata !15017, metadata !DIExpression()), !dbg !15019
  store ptr %1, ptr %7, align 8
  call void @llvm.dbg.declare(metadata ptr %7, metadata !15020, metadata !DIExpression()), !dbg !15021
  store ptr %2, ptr %8, align 8
  call void @llvm.dbg.declare(metadata ptr %8, metadata !15022, metadata !DIExpression()), !dbg !15023
  store i32 %3, ptr %9, align 4
  call void @llvm.dbg.declare(metadata ptr %9, metadata !15024, metadata !DIExpression()), !dbg !15025
  store i32 %4, ptr %10, align 4
  call void @llvm.dbg.declare(metadata ptr %10, metadata !15026, metadata !DIExpression()), !dbg !15027
  %12 = load ptr, ptr %6, align 8
  call void @llvm.dbg.declare(metadata ptr %11, metadata !15028, metadata !DIExpression()), !dbg !15030
  %13 = load i32, ptr %9, align 4, !dbg !15031
  %14 = load i32, ptr %10, align 4, !dbg !15032
  %15 = sub i32 %13, %14, !dbg !15033
  %16 = add i32 %15, 1, !dbg !15034
  %17 = call noundef i32 @_ZN5hwreg8internal11ComputeMaskIjEET_j(i32 noundef %16), !dbg !15035
  %18 = load i32, ptr %10, align 4, !dbg !15036
  %19 = shl i32 %17, %18, !dbg !15037
  store i32 %19, ptr %11, align 4, !dbg !15030
  br label %20, !dbg !15038

20:                                               ; preds = %5
  br label %21, !dbg !15039

21:                                               ; preds = %20
  %22 = load ptr, ptr %7, align 8, !dbg !15041
  %23 = getelementptr inbounds %"struct.hwreg::internal::FieldParameters", ptr %22, i32 0, i32 1, !dbg !15042
  %24 = load i32, ptr %23, align 4, !dbg !15042
  %25 = load i32, ptr %11, align 4, !dbg !15043
  %26 = or i32 %24, %25, !dbg !15044
  %27 = load ptr, ptr %7, align 8, !dbg !15045
  %28 = getelementptr inbounds %"struct.hwreg::internal::FieldParameters", ptr %27, i32 0, i32 1, !dbg !15046
  store i32 %26, ptr %28, align 4, !dbg !15047
  %29 = load ptr, ptr %7, align 8, !dbg !15048
  %30 = load ptr, ptr %8, align 8, !dbg !15049
  %31 = load i32, ptr %9, align 4, !dbg !15050
  %32 = load i32, ptr %10, align 4, !dbg !15051
  call void @_ZN5hwreg8internal16FieldPrinterListILb0EjE11AppendFieldEPKcjj(ptr noundef nonnull align 1 dereferenceable(1) %29, ptr noundef %30, i32 noundef %31, i32 noundef %32), !dbg !15052
  ret ptr %12, !dbg !15053
}

; Function Attrs: noinline nounwind optnone sspstrong uwtable
define linkonce_odr noundef ptr @_ZN5hwreg8internal15FieldParametersILb0EjEC2Ev(ptr noundef nonnull returned align 4 dereferenceable(8) %0) unnamed_addr #3 comdat align 2 !dbg !15054 {
  %2 = alloca ptr, align 8
  store ptr %0, ptr %2, align 8
  call void @llvm.dbg.declare(metadata ptr %2, metadata !15059, metadata !DIExpression()), !dbg !15060
  %3 = load ptr, ptr %2, align 8
  %4 = getelementptr inbounds %"struct.hwreg::internal::FieldParameters", ptr %3, i32 0, i32 0, !dbg !15061
  store i32 0, ptr %4, align 4, !dbg !15061
  %5 = getelementptr inbounds %"struct.hwreg::internal::FieldParameters", ptr %3, i32 0, i32 1, !dbg !15062
  store i32 0, ptr %5, align 4, !dbg !15062
  ret ptr %3, !dbg !15063
}

; Function Attrs: mustprogress noinline nounwind optnone sspstrong uwtable
define linkonce_odr noundef i32 @_ZN5hwreg8internal11ComputeMaskIjEET_j(i32 noundef %0) #2 comdat !dbg !15064 {
  %2 = alloca i32, align 4
  %3 = alloca i32, align 4
  store i32 %0, ptr %3, align 4
  call void @llvm.dbg.declare(metadata ptr %3, metadata !15067, metadata !DIExpression()), !dbg !15068
  %4 = load i32, ptr %3, align 4, !dbg !15069
  %5 = zext i32 %4 to i64, !dbg !15069
  %6 = icmp eq i64 %5, 32, !dbg !15071
  br i1 %6, label %7, label %8, !dbg !15072

7:                                                ; preds = %1
  store i32 -1, ptr %2, align 4, !dbg !15073
  br label %12, !dbg !15073

8:                                                ; preds = %1
  %9 = load i32, ptr %3, align 4, !dbg !15075
  %10 = shl i32 1, %9, !dbg !15076
  %11 = sub i32 %10, 1, !dbg !15077
  store i32 %11, ptr %2, align 4, !dbg !15078
  br label %12, !dbg !15078

12:                                               ; preds = %8, %7
  %13 = load i32, ptr %2, align 4, !dbg !15079
  ret i32 %13, !dbg !15079
}

; Function Attrs: mustprogress noinline nounwind optnone sspstrong uwtable
define linkonce_odr void @_ZN5hwreg8internal16FieldPrinterListILb0EjE11AppendFieldEPKcjj(ptr noundef nonnull align 1 dereferenceable(1) %0, ptr noundef %1, i32 noundef %2, i32 noundef %3) #2 comdat align 2 !dbg !15080 {
  %5 = alloca ptr, align 8
  %6 = alloca ptr, align 8
  %7 = alloca i32, align 4
  %8 = alloca i32, align 4
  store ptr %0, ptr %5, align 8
  call void @llvm.dbg.declare(metadata ptr %5, metadata !15081, metadata !DIExpression()), !dbg !15083
  store ptr %1, ptr %6, align 8
  call void @llvm.dbg.declare(metadata ptr %6, metadata !15084, metadata !DIExpression()), !dbg !15085
  store i32 %2, ptr %7, align 4
  call void @llvm.dbg.declare(metadata ptr %7, metadata !15086, metadata !DIExpression()), !dbg !15087
  store i32 %3, ptr %8, align 4
  call void @llvm.dbg.declare(metadata ptr %8, metadata !15088, metadata !DIExpression()), !dbg !15089
  %9 = load ptr, ptr %5, align 8
  ret void, !dbg !15090
}

; Function Attrs: mustprogress noinline optnone sspstrong uwtable
define linkonce_odr void @_ZN5hwreg8internal5VisitIZNS_12RegisterBaseIN10edu_device6StatusEjvE8ReadFromIN3fdf10MmioBufferEEERS4_PT_EUlOSA_E_RS8_JEEEvSC_OT0_DpOT1_(ptr noundef nonnull align 8 dereferenceable(8) %0, ptr noundef nonnull align 8 dereferenceable(56) %1) #0 comdat !dbg !15091 {
  %3 = alloca ptr, align 8
  %4 = alloca ptr, align 8
  store ptr %0, ptr %3, align 8
  call void @llvm.dbg.declare(metadata ptr %3, metadata !15102, metadata !DIExpression()), !dbg !15103
  store ptr %1, ptr %4, align 8
  call void @llvm.dbg.declare(metadata ptr %4, metadata !15104, metadata !DIExpression()), !dbg !15105
  %5 = load ptr, ptr %3, align 8, !dbg !15106
  %6 = load ptr, ptr %4, align 8, !dbg !15109
  call void @_ZZN5hwreg12RegisterBaseIN10edu_device6StatusEjvE8ReadFromIN3fdf10MmioBufferEEERS2_PT_ENKUlOS8_E_clIRS6_EEDaSA_(ptr noundef nonnull align 8 dereferenceable(8) %5, ptr noundef nonnull align 8 dereferenceable(56) %6), !dbg !15106
  ret void, !dbg !15110
}

; Function Attrs: mustprogress noinline optnone sspstrong uwtable
define linkonce_odr void @_ZZN5hwreg12RegisterBaseIN10edu_device6StatusEjvE8ReadFromIN3fdf10MmioBufferEEERS2_PT_ENKUlOS8_E_clIRS6_EEDaSA_(ptr noundef nonnull align 8 dereferenceable(8) %0, ptr noundef nonnull align 8 dereferenceable(56) %1) #0 comdat align 2 !dbg !15111 {
  %3 = alloca ptr, align 8
  %4 = alloca ptr, align 8
  store ptr %0, ptr %3, align 8
  call void @llvm.dbg.declare(metadata ptr %3, metadata !15119, metadata !DIExpression()), !dbg !15121
  store ptr %1, ptr %4, align 8
  call void @llvm.dbg.declare(metadata ptr %4, metadata !15122, metadata !DIExpression()), !dbg !15123
  %5 = load ptr, ptr %3, align 8
  %6 = getelementptr inbounds %class.anon, ptr %5, i32 0, i32 0
  %7 = load ptr, ptr %6, align 8
  %8 = load ptr, ptr %4, align 8, !dbg !15124
  %9 = getelementptr inbounds %"class.hwreg::RegisterBase", ptr %7, i32 0, i32 2, !dbg !15125
  %10 = load i32, ptr %9, align 4, !dbg !15125
  %11 = zext i32 %10 to i64, !dbg !15125
  %12 = call noundef i32 @_ZNK3fdf10MmioBuffer4ReadIjEET_m(ptr noundef nonnull align 8 dereferenceable(56) %8, i64 noundef %11), !dbg !15126
  %13 = getelementptr inbounds %"class.hwreg::RegisterBase", ptr %7, i32 0, i32 1, !dbg !15127
  store i32 %12, ptr %13, align 4, !dbg !15128
  ret void, !dbg !15129
}

; Function Attrs: mustprogress noinline optnone sspstrong uwtable
define linkonce_odr noundef i32 @_ZNK3fdf10MmioBuffer4ReadIjEET_m(ptr noundef nonnull align 8 dereferenceable(56) %0, i64 noundef %1) #0 comdat align 2 !dbg !15130 {
  %3 = alloca ptr, align 8
  %4 = alloca i64, align 8
  store ptr %0, ptr %3, align 8
  call void @llvm.dbg.declare(metadata ptr %3, metadata !15134, metadata !DIExpression()), !dbg !15135
  store i64 %1, ptr %4, align 8
  call void @llvm.dbg.declare(metadata ptr %4, metadata !15136, metadata !DIExpression()), !dbg !15137
  %5 = load ptr, ptr %3, align 8
  %6 = load i64, ptr %4, align 8, !dbg !15138
  %7 = call noundef i32 @_ZNK3fdf10MmioBuffer6Read32Em(ptr noundef nonnull align 8 dereferenceable(56) %5, i64 noundef %6), !dbg !15143
  ret i32 %7, !dbg !15144
}

; Function Attrs: mustprogress noinline nounwind optnone sspstrong uwtable
define linkonce_odr noundef ptr @_ZN5hwreg12RegisterBaseIN10edu_device6StatusEjvE13reg_value_ptrEv(ptr noundef nonnull align 4 dereferenceable(16) %0) #2 comdat align 2 !dbg !15145 {
  %2 = alloca ptr, align 8
  store ptr %0, ptr %2, align 8
  call void @llvm.dbg.declare(metadata ptr %2, metadata !15146, metadata !DIExpression()), !dbg !15147
  %3 = load ptr, ptr %2, align 8
  %4 = getelementptr inbounds %"class.hwreg::RegisterBase", ptr %3, i32 0, i32 1, !dbg !15148
  ret ptr %4, !dbg !15149
}

; Function Attrs: noinline nounwind optnone sspstrong uwtable
define linkonce_odr noundef ptr @_ZN5hwreg11BitfieldRefIjEC2EPjjj(ptr noundef nonnull returned align 8 dereferenceable(16) %0, ptr noundef %1, i32 noundef %2, i32 noundef %3) unnamed_addr #3 comdat align 2 !dbg !15150 {
  %5 = alloca ptr, align 8
  %6 = alloca ptr, align 8
  %7 = alloca i32, align 4
  %8 = alloca i32, align 4
  store ptr %0, ptr %5, align 8
  call void @llvm.dbg.declare(metadata ptr %5, metadata !15151, metadata !DIExpression()), !dbg !15153
  store ptr %1, ptr %6, align 8
  call void @llvm.dbg.declare(metadata ptr %6, metadata !15154, metadata !DIExpression()), !dbg !15155
  store i32 %2, ptr %7, align 4
  call void @llvm.dbg.declare(metadata ptr %7, metadata !15156, metadata !DIExpression()), !dbg !15157
  store i32 %3, ptr %8, align 4
  call void @llvm.dbg.declare(metadata ptr %8, metadata !15158, metadata !DIExpression()), !dbg !15159
  %9 = load ptr, ptr %5, align 8
  %10 = getelementptr inbounds %"class.hwreg::BitfieldRef", ptr %9, i32 0, i32 0, !dbg !15160
  %11 = load ptr, ptr %6, align 8, !dbg !15161
  store ptr %11, ptr %10, align 8, !dbg !15160
  %12 = getelementptr inbounds %"class.hwreg::BitfieldRef", ptr %9, i32 0, i32 1, !dbg !15162
  %13 = load i32, ptr %8, align 4, !dbg !15163
  store i32 %13, ptr %12, align 8, !dbg !15162
  %14 = getelementptr inbounds %"class.hwreg::BitfieldRef", ptr %9, i32 0, i32 2, !dbg !15164
  %15 = load i32, ptr %7, align 4, !dbg !15165
  %16 = load i32, ptr %8, align 4, !dbg !15166
  %17 = sub i32 %15, %16, !dbg !15167
  %18 = add i32 %17, 1, !dbg !15168
  %19 = call noundef i32 @_ZN5hwreg8internal11ComputeMaskIjEET_j(i32 noundef %18), !dbg !15169
  store i32 %19, ptr %14, align 4, !dbg !15164
  ret ptr %9, !dbg !15170
}

; Function Attrs: mustprogress noinline nounwind optnone sspstrong uwtable
define linkonce_odr void @_ZN5hwreg11BitfieldRefIjE3setEj(ptr noundef nonnull align 8 dereferenceable(16) %0, i32 noundef %1) #2 comdat align 2 !dbg !15171 {
  %3 = alloca ptr, align 8
  %4 = alloca i32, align 4
  store ptr %0, ptr %3, align 8
  call void @llvm.dbg.declare(metadata ptr %3, metadata !15172, metadata !DIExpression()), !dbg !15173
  store i32 %1, ptr %4, align 4
  call void @llvm.dbg.declare(metadata ptr %4, metadata !15174, metadata !DIExpression()), !dbg !15175
  %5 = load ptr, ptr %3, align 8
  br label %6, !dbg !15176

6:                                                ; preds = %2
  br label %7, !dbg !15177

7:                                                ; preds = %6
  %8 = getelementptr inbounds %"class.hwreg::BitfieldRef", ptr %5, i32 0, i32 0, !dbg !15179
  %9 = load ptr, ptr %8, align 8, !dbg !15179
  %10 = load i32, ptr %9, align 4, !dbg !15180
  %11 = getelementptr inbounds %"class.hwreg::BitfieldRef", ptr %5, i32 0, i32 2, !dbg !15181
  %12 = load i32, ptr %11, align 4, !dbg !15181
  %13 = getelementptr inbounds %"class.hwreg::BitfieldRef", ptr %5, i32 0, i32 1, !dbg !15182
  %14 = load i32, ptr %13, align 8, !dbg !15182
  %15 = shl i32 %12, %14, !dbg !15183
  %16 = xor i32 %15, -1, !dbg !15184
  %17 = and i32 %10, %16, !dbg !15185
  %18 = getelementptr inbounds %"class.hwreg::BitfieldRef", ptr %5, i32 0, i32 0, !dbg !15186
  %19 = load ptr, ptr %18, align 8, !dbg !15186
  store i32 %17, ptr %19, align 4, !dbg !15187
  %20 = getelementptr inbounds %"class.hwreg::BitfieldRef", ptr %5, i32 0, i32 0, !dbg !15188
  %21 = load ptr, ptr %20, align 8, !dbg !15188
  %22 = load i32, ptr %21, align 4, !dbg !15189
  %23 = load i32, ptr %4, align 4, !dbg !15190
  %24 = getelementptr inbounds %"class.hwreg::BitfieldRef", ptr %5, i32 0, i32 1, !dbg !15191
  %25 = load i32, ptr %24, align 8, !dbg !15191
  %26 = shl i32 %23, %25, !dbg !15192
  %27 = or i32 %22, %26, !dbg !15193
  %28 = getelementptr inbounds %"class.hwreg::BitfieldRef", ptr %5, i32 0, i32 0, !dbg !15194
  %29 = load ptr, ptr %28, align 8, !dbg !15194
  store i32 %27, ptr %29, align 4, !dbg !15195
  ret void, !dbg !15196
}

; Function Attrs: mustprogress noinline nounwind optnone sspstrong uwtable
define linkonce_odr hidden noundef nonnull align 8 dereferenceable(56) ptr @_ZNRSt3__223__optional_storage_baseIN3fdf10MmioBufferELb0EE5__getB7v160000Ev(ptr noundef nonnull align 8 dereferenceable(57) %0) #2 comdat align 2 !dbg !15197 {
  %2 = alloca ptr, align 8
  store ptr %0, ptr %2, align 8
  call void @llvm.dbg.declare(metadata ptr %2, metadata !15198, metadata !DIExpression()), !dbg !15200
  %3 = load ptr, ptr %2, align 8
  %4 = getelementptr inbounds %"struct.std::__2::__optional_destruct_base", ptr %3, i32 0, i32 0, !dbg !15201
  ret ptr %4, !dbg !15202
}

; Function Attrs: nocallback
declare i32 @zx_interrupt_ack(i32 noundef) #9

; Function Attrs: mustprogress noinline nounwind optnone sspstrong uwtable
define linkonce_odr hidden noundef nonnull align 16 dereferenceable(32) ptr @_ZNRSt3__223__optional_storage_baseIN3fit13callback_implILm16ELb0EFvN2zx6statusIJjEEEEEELb0EE5__getB7v160000Ev(ptr noundef nonnull align 16 dereferenceable(33) %0) #2 comdat align 2 !dbg !15203 {
  %2 = alloca ptr, align 8
  store ptr %0, ptr %2, align 8
  call void @llvm.dbg.declare(metadata ptr %2, metadata !15204, metadata !DIExpression()), !dbg !15206
  %3 = load ptr, ptr %2, align 8
  %4 = getelementptr inbounds %"struct.std::__2::__optional_destruct_base.16", ptr %3, i32 0, i32 0, !dbg !15207
  ret ptr %4, !dbg !15208
}

; Function Attrs: noinline optnone sspstrong uwtable
define linkonce_odr noundef ptr @_ZN4fidl8internal20TransactionalRequestIN20fuchsia_hardware_pci6Device12AckInterruptEEC2Ev(ptr noundef nonnull returned align 8 dereferenceable(16) %0) unnamed_addr #4 comdat align 2 !dbg !15209 {
  %2 = alloca ptr, align 8
  store ptr %0, ptr %2, align 8
  call void @llvm.dbg.declare(metadata ptr %2, metadata !15210, metadata !DIExpression()), !dbg !15212
  %3 = load ptr, ptr %2, align 8
  %4 = getelementptr inbounds %"struct.fidl::internal::TransactionalRequest.112", ptr %3, i32 0, i32 0, !dbg !15213
  call void @_ZN4fidl8internal20TransactionalRequestIN20fuchsia_hardware_pci6Device12AckInterruptEE11_InitHeaderEv(ptr noundef nonnull align 8 dereferenceable(16) %3), !dbg !15214
  ret ptr %3, !dbg !15216
}

declare noundef ptr @_ZN4fidl10WireResultIN20fuchsia_hardware_pci6Device12AckInterruptEEC1ENS_16UnownedClientEndIS2_EEPNS_8internal20TransactionalRequestIS3_EE(ptr noundef nonnull returned align 8 dereferenceable(88), i32, ptr noundef) unnamed_addr #6

declare void @_ZN4fidl8internal20TransactionalRequestIN20fuchsia_hardware_pci6Device12AckInterruptEE11_InitHeaderEv(ptr noundef nonnull align 8 dereferenceable(16)) #6

; Function Attrs: noinline nounwind optnone sspstrong uwtable
define linkonce_odr noundef ptr @_ZN3fit7successIJjEEC2IJRjELb1EEEDpOT_(ptr noundef nonnull returned align 4 dereferenceable(4) %0, ptr noundef nonnull align 4 dereferenceable(4) %1) unnamed_addr #3 comdat align 2 !dbg !15217 {
  %3 = alloca ptr, align 8
  %4 = alloca ptr, align 8
  store ptr %0, ptr %3, align 8
  call void @llvm.dbg.declare(metadata ptr %3, metadata !15225, metadata !DIExpression()), !dbg !15227
  store ptr %1, ptr %4, align 8
  call void @llvm.dbg.declare(metadata ptr %4, metadata !15228, metadata !DIExpression()), !dbg !15229
  %5 = load ptr, ptr %3, align 8
  %6 = getelementptr inbounds %"class.fit::success.106", ptr %5, i32 0, i32 0, !dbg !15230
  %7 = load ptr, ptr %4, align 8, !dbg !15231
  %8 = load i32, ptr %7, align 4, !dbg !15232
  store i32 %8, ptr %6, align 4, !dbg !15230
  ret ptr %5, !dbg !15233
}

; Function Attrs: noinline optnone sspstrong uwtable
define linkonce_odr noundef ptr @_ZN3fit6resultIiJjEEC2IjLb1EEENS_7successIJT_EEE(ptr noundef nonnull returned align 4 dereferenceable(8) %0, i32 %1) unnamed_addr #4 comdat align 2 !dbg !15234 {
  %3 = alloca %"class.fit::success.106", align 4
  %4 = alloca ptr, align 8
  %5 = getelementptr inbounds %"class.fit::success.106", ptr %3, i32 0, i32 0
  store i32 %1, ptr %5, align 4
  store ptr %0, ptr %4, align 8
  call void @llvm.dbg.declare(metadata ptr %4, metadata !15240, metadata !DIExpression()), !dbg !15241
  call void @llvm.dbg.declare(metadata ptr %3, metadata !15242, metadata !DIExpression()), !dbg !15243
  %6 = load ptr, ptr %4, align 8
  %7 = getelementptr inbounds %"class.fit::result.98", ptr %6, i32 0, i32 0, !dbg !15244
  %8 = getelementptr inbounds %"class.fit::success.106", ptr %3, i32 0, i32 0, !dbg !15245
  %9 = call noundef ptr @_ZN3fit8internal12storage_typeILNS0_15storage_class_eE0EiJjEEC2IjEENS0_7value_tEOT_(ptr noundef nonnull align 4 dereferenceable(8) %7, i32 noundef 0, ptr noundef nonnull align 4 dereferenceable(4) %8), !dbg !15244
  ret ptr %6, !dbg !15246
}

; Function Attrs: noinline optnone sspstrong uwtable
define linkonce_odr noundef ptr @_ZN3fit8internal12storage_typeILNS0_15storage_class_eE0EiJjEEC2IjEENS0_7value_tEOT_(ptr noundef nonnull returned align 4 dereferenceable(8) %0, i32 noundef %1, ptr noundef nonnull align 4 dereferenceable(4) %2) unnamed_addr #4 comdat align 2 !dbg !15247 {
  %4 = alloca ptr, align 8
  %5 = alloca i32, align 4
  %6 = alloca ptr, align 8
  store ptr %0, ptr %4, align 8
  call void @llvm.dbg.declare(metadata ptr %4, metadata !15252, metadata !DIExpression()), !dbg !15253
  store i32 %1, ptr %5, align 4
  call void @llvm.dbg.declare(metadata ptr %5, metadata !15254, metadata !DIExpression()), !dbg !15255
  store ptr %2, ptr %6, align 8
  call void @llvm.dbg.declare(metadata ptr %6, metadata !15256, metadata !DIExpression()), !dbg !15257
  %7 = load ptr, ptr %4, align 8
  %8 = getelementptr inbounds %"struct.fit::internal::storage_type.99", ptr %7, i32 0, i32 0, !dbg !15258
  store i32 2, ptr %8, align 4, !dbg !15258
  %9 = getelementptr inbounds %"struct.fit::internal::storage_type.99", ptr %7, i32 0, i32 1, !dbg !15259
  %10 = load ptr, ptr %6, align 8, !dbg !15260
  %11 = call noundef ptr @_ZN3fit8internal19error_or_value_typeIijLNS0_15storage_class_eE0EEC2IjEENS0_7value_tEOT_(ptr noundef nonnull align 4 dereferenceable(4) %9, i32 noundef 0, ptr noundef nonnull align 4 dereferenceable(4) %10), !dbg !15259
  ret ptr %7, !dbg !15261
}

; Function Attrs: noinline nounwind optnone sspstrong uwtable
define linkonce_odr noundef ptr @_ZN3fit8internal19error_or_value_typeIijLNS0_15storage_class_eE0EEC2IjEENS0_7value_tEOT_(ptr noundef nonnull returned align 4 dereferenceable(4) %0, i32 noundef %1, ptr noundef nonnull align 4 dereferenceable(4) %2) unnamed_addr #3 comdat align 2 !dbg !15262 {
  %4 = alloca ptr, align 8
  %5 = alloca i32, align 4
  %6 = alloca ptr, align 8
  store ptr %0, ptr %4, align 8
  call void @llvm.dbg.declare(metadata ptr %4, metadata !15266, metadata !DIExpression()), !dbg !15267
  store i32 %1, ptr %5, align 4
  call void @llvm.dbg.declare(metadata ptr %5, metadata !15268, metadata !DIExpression()), !dbg !15269
  store ptr %2, ptr %6, align 8
  call void @llvm.dbg.declare(metadata ptr %6, metadata !15270, metadata !DIExpression()), !dbg !15271
  %7 = load ptr, ptr %4, align 8
  %8 = load ptr, ptr %6, align 8, !dbg !15272
  %9 = load i32, ptr %8, align 4, !dbg !15273
  store i32 %9, ptr %7, align 4, !dbg !15274
  ret ptr %7, !dbg !15275
}

; Function Attrs: noinline nounwind optnone sspstrong uwtable
define linkonce_odr noundef ptr @_ZN4fidl12DecodedValueINS_12WireResponseIN20fuchsia_hardware_pci6Device12AckInterruptEEEED2Ev(ptr noundef nonnull returned align 8 dereferenceable(8) %0) unnamed_addr #3 comdat align 2 !dbg !15276 {
  %2 = alloca ptr, align 8
  store ptr %0, ptr %2, align 8
  call void @llvm.dbg.declare(metadata ptr %2, metadata !15277, metadata !DIExpression()), !dbg !15279
  %3 = load ptr, ptr %2, align 8
  ret ptr %3, !dbg !15280
}

; Function Attrs: noinline nounwind optnone sspstrong uwtable
define linkonce_odr noundef ptr @_ZN3fit8internal13function_baseILm16ELb0EFvN2zx6statusIJjEEEEED2Ev(ptr noundef nonnull returned align 16 dereferenceable(24) %0) unnamed_addr #3 comdat align 2 !dbg !15281 {
  %2 = alloca ptr, align 8
  store ptr %0, ptr %2, align 8
  call void @llvm.dbg.declare(metadata ptr %2, metadata !15283, metadata !DIExpression()), !dbg !15285
  %3 = load ptr, ptr %2, align 8
  %4 = call noundef ptr @_ZN3fit8internal21generic_function_baseILm16EED2Ev(ptr noundef nonnull align 16 dereferenceable(24) %3) #16, !dbg !15286
  ret ptr %3, !dbg !15288
}

; Function Attrs: noinline nounwind optnone sspstrong uwtable
define linkonce_odr noundef ptr @_ZN3fit8internal21generic_function_baseILm16EED2Ev(ptr noundef nonnull returned align 16 dereferenceable(24) %0) unnamed_addr #3 comdat align 2 personality ptr @__gxx_personality_v0 !dbg !15289 {
  %2 = alloca ptr, align 8
  store ptr %0, ptr %2, align 8
  call void @llvm.dbg.declare(metadata ptr %2, metadata !15290, metadata !DIExpression()), !dbg !15292
  %3 = load ptr, ptr %2, align 8
  invoke void @_ZN3fit8internal21generic_function_baseILm16EE14destroy_targetEv(ptr noundef nonnull align 16 dereferenceable(24) %3)
          to label %4 unwind label %5, !dbg !15293

4:                                                ; preds = %1
  ret ptr %3, !dbg !15295

5:                                                ; preds = %1
  %6 = landingpad { ptr, i32 }
          catch ptr null, !dbg !15293
  %7 = extractvalue { ptr, i32 } %6, 0, !dbg !15293
  call void @__clang_call_terminate(ptr %7) #18, !dbg !15293
  unreachable, !dbg !15293
}

; Function Attrs: mustprogress noinline optnone sspstrong uwtable
define linkonce_odr void @_ZN3fit8internal21generic_function_baseILm16EE14destroy_targetEv(ptr noundef nonnull align 16 dereferenceable(24) %0) #0 comdat align 2 !dbg !15296 {
  %2 = alloca ptr, align 8
  store ptr %0, ptr %2, align 8
  call void @llvm.dbg.declare(metadata ptr %2, metadata !15297, metadata !DIExpression()), !dbg !15298
  %3 = load ptr, ptr %2, align 8
  %4 = getelementptr inbounds %"class.fit::internal::generic_function_base", ptr %3, i32 0, i32 1, !dbg !15299
  %5 = load ptr, ptr %4, align 16, !dbg !15299
  %6 = getelementptr inbounds %"struct.fit::internal::base_target_ops", ptr %5, i32 0, i32 3, !dbg !15300
  %7 = load ptr, ptr %6, align 8, !dbg !15300
  %8 = getelementptr inbounds %"class.fit::internal::generic_function_base", ptr %3, i32 0, i32 0, !dbg !15301
  %9 = getelementptr inbounds [16 x i8], ptr %8, i64 0, i64 0, !dbg !15301
  call void %7(ptr noundef %9), !dbg !15299
  ret void, !dbg !15302
}

; Function Attrs: mustprogress noinline nounwind optnone sspstrong uwtable
define linkonce_odr hidden noundef zeroext i1 @_ZNKSt3__223__optional_storage_baseIN3fdf10MmioBufferELb0EE9has_valueB7v160000Ev(ptr noundef nonnull align 8 dereferenceable(57) %0) #2 comdat align 2 !dbg !15303 {
  %2 = alloca ptr, align 8
  store ptr %0, ptr %2, align 8
  call void @llvm.dbg.declare(metadata ptr %2, metadata !15304, metadata !DIExpression()), !dbg !15306
  %3 = load ptr, ptr %2, align 8
  %4 = getelementptr inbounds %"struct.std::__2::__optional_destruct_base", ptr %3, i32 0, i32 1, !dbg !15307
  %5 = load i8, ptr %4, align 8, !dbg !15307
  %6 = trunc i8 %5 to i1, !dbg !15307
  ret i1 %6, !dbg !15308
}

; Function Attrs: mustprogress noinline nounwind optnone sspstrong uwtable
define linkonce_odr noundef nonnull align 8 dereferenceable(56) ptr @_ZN3fdf10MmioBufferaSEOS0_(ptr noundef nonnull align 8 dereferenceable(56) %0, ptr noundef nonnull align 8 dereferenceable(56) %1) #2 comdat align 2 !dbg !15309 {
  %3 = alloca ptr, align 8
  %4 = alloca ptr, align 8
  store ptr %0, ptr %3, align 8
  call void @llvm.dbg.declare(metadata ptr %3, metadata !15310, metadata !DIExpression()), !dbg !15311
  store ptr %1, ptr %4, align 8
  call void @llvm.dbg.declare(metadata ptr %4, metadata !15312, metadata !DIExpression()), !dbg !15313
  %5 = load ptr, ptr %3, align 8
  %6 = load ptr, ptr %4, align 8, !dbg !15314
  call void @_ZN3fdf10MmioBuffer8transferEOS0_(ptr noundef nonnull align 8 dereferenceable(56) %5, ptr noundef nonnull align 8 dereferenceable(56) %6), !dbg !15315
  ret ptr %5, !dbg !15316
}

; Function Attrs: mustprogress noinline optnone sspstrong uwtable
define linkonce_odr void @_ZNSt3__223__optional_storage_baseIN3fdf10MmioBufferELb0EE11__constructB7v160000IJS2_EEEvDpOT_(ptr noundef nonnull align 8 dereferenceable(57) %0, ptr noundef nonnull align 8 dereferenceable(56) %1) #0 comdat align 2 !dbg !15317 {
  %3 = alloca ptr, align 8
  %4 = alloca ptr, align 8
  store ptr %0, ptr %3, align 8
  call void @llvm.dbg.declare(metadata ptr %3, metadata !15323, metadata !DIExpression()), !dbg !15324
  store ptr %1, ptr %4, align 8
  call void @llvm.dbg.declare(metadata ptr %4, metadata !15325, metadata !DIExpression()), !dbg !15326
  %5 = load ptr, ptr %3, align 8
  %6 = getelementptr inbounds %"struct.std::__2::__optional_destruct_base", ptr %5, i32 0, i32 0, !dbg !15327
  %7 = load ptr, ptr %4, align 8, !dbg !15328
  %8 = call noundef ptr @_ZN3fdf10MmioBufferC2EOS0_(ptr noundef nonnull align 8 dereferenceable(56) %6, ptr noundef nonnull align 8 dereferenceable(56) %7), !dbg !15329
  %9 = getelementptr inbounds %"struct.std::__2::__optional_destruct_base", ptr %5, i32 0, i32 1, !dbg !15330
  store i8 1, ptr %9, align 8, !dbg !15331
  ret void, !dbg !15332
}

; Function Attrs: mustprogress noinline optnone sspstrong uwtable
define linkonce_odr noundef zeroext i1 @_ZNK4fidl14WireSyncClientIN20fuchsia_hardware_pci6DeviceEE8is_validEv(ptr noundef nonnull align 4 dereferenceable(4) %0) #0 comdat align 2 !dbg !15333 {
  %2 = alloca ptr, align 8
  store ptr %0, ptr %2, align 8
  call void @llvm.dbg.declare(metadata ptr %2, metadata !15334, metadata !DIExpression()), !dbg !15335
  %3 = load ptr, ptr %2, align 8
  %4 = getelementptr inbounds %"class.fidl::WireSyncClient", ptr %3, i32 0, i32 0, !dbg !15336
  %5 = call noundef zeroext i1 @_ZNK4fidl8internal12TransportEndIN20fuchsia_hardware_pci6DeviceENS0_16ChannelTransportEE8is_validEv(ptr noundef nonnull align 4 dereferenceable(4) %4), !dbg !15337
  ret i1 %5, !dbg !15338
}

; Function Attrs: mustprogress noinline nounwind optnone sspstrong uwtable
define linkonce_odr { ptr, i32 } @_ZN4fidl8internal23MakeAnyUnownedTransportIN2zx7unownedINS2_7channelEEEEENS0_19AnyUnownedTransportERKT_(ptr noundef nonnull align 4 dereferenceable(4) %0) #2 comdat !dbg !15339 {
  %2 = alloca %"class.fidl::internal::AnyUnownedTransport", align 8
  %3 = alloca ptr, align 8
  store ptr %0, ptr %3, align 8
  call void @llvm.dbg.declare(metadata ptr %3, metadata !15344, metadata !DIExpression()), !dbg !15345
  %4 = load ptr, ptr %3, align 8, !dbg !15346
  %5 = call noundef ptr @_ZNK2zx7unownedINS_7channelEEptEv(ptr noundef nonnull align 4 dereferenceable(4) %4), !dbg !15346
  %6 = call noundef i32 @_ZNK2zx11object_base3getEv(ptr noundef nonnull align 4 dereferenceable(4) %5), !dbg !15350
  %7 = call { ptr, i32 } @_ZN4fidl8internal19AnyUnownedTransport4MakeINS0_16ChannelTransportEEES1_j(i32 noundef %6) #16, !dbg !15351
  %8 = getelementptr inbounds { ptr, i32 }, ptr %2, i32 0, i32 0, !dbg !15351
  %9 = extractvalue { ptr, i32 } %7, 0, !dbg !15351
  store ptr %9, ptr %8, align 8, !dbg !15351
  %10 = getelementptr inbounds { ptr, i32 }, ptr %2, i32 0, i32 1, !dbg !15351
  %11 = extractvalue { ptr, i32 } %7, 1, !dbg !15351
  store i32 %11, ptr %10, align 8, !dbg !15351
  %12 = load { ptr, i32 }, ptr %2, align 8, !dbg !15352
  ret { ptr, i32 } %12, !dbg !15352
}

; Function Attrs: mustprogress noinline optnone sspstrong uwtable
define linkonce_odr void @_ZNK4fidl8internal12TransportEndIN20fuchsia_hardware_pci6DeviceENS0_16ChannelTransportEE6handleEv(ptr noalias sret(%"class.zx::unowned") align 4 %0, ptr noundef nonnull align 4 dereferenceable(4) %1) #0 comdat align 2 !dbg !15353 {
  %3 = alloca ptr, align 8
  %4 = alloca ptr, align 8
  store ptr %0, ptr %3, align 8
  store ptr %1, ptr %4, align 8
  call void @llvm.dbg.declare(metadata ptr %4, metadata !15354, metadata !DIExpression()), !dbg !15356
  %5 = load ptr, ptr %4, align 8
  %6 = getelementptr inbounds %"class.fidl::internal::TransportEnd", ptr %5, i32 0, i32 0, !dbg !15357
  %7 = call noundef i32 @_ZNK2zx11object_base3getEv(ptr noundef nonnull align 4 dereferenceable(4) %6), !dbg !15358
  %8 = call noundef ptr @_ZN2zx7unownedINS_7channelEEC2Ej(ptr noundef nonnull align 4 dereferenceable(4) %0, i32 noundef %7), !dbg !15359
  ret void, !dbg !15360
}

; Function Attrs: noinline nounwind optnone sspstrong uwtable
define linkonce_odr noundef ptr @_ZN4fidl8internal25SyncEndpointManagedVeneerINS0_18WireSyncClientImplIN20fuchsia_hardware_pci6DeviceEEEEC2ENS0_19AnyUnownedTransportE(ptr noundef nonnull returned align 8 dereferenceable(16) %0, ptr %1, i32 %2) unnamed_addr #3 comdat align 2 !dbg !15361 {
  %4 = alloca %"class.fidl::internal::AnyUnownedTransport", align 8
  %5 = alloca ptr, align 8
  %6 = getelementptr inbounds { ptr, i32 }, ptr %4, i32 0, i32 0
  store ptr %1, ptr %6, align 8
  %7 = getelementptr inbounds { ptr, i32 }, ptr %4, i32 0, i32 1
  store i32 %2, ptr %7, align 8
  store ptr %0, ptr %5, align 8
  call void @llvm.dbg.declare(metadata ptr %5, metadata !15362, metadata !DIExpression()), !dbg !15363
  call void @llvm.dbg.declare(metadata ptr %4, metadata !15364, metadata !DIExpression()), !dbg !15365
  %8 = load ptr, ptr %5, align 8
  %9 = getelementptr inbounds %"struct.fidl::internal::SyncEndpointManagedVeneer", ptr %8, i32 0, i32 0, !dbg !15366
  call void @llvm.memcpy.p0.p0.i64(ptr align 8 %9, ptr align 8 %4, i64 16, i1 false), !dbg !15366
  ret ptr %8, !dbg !15367
}

; Function Attrs: mustprogress noinline optnone sspstrong uwtable
define linkonce_odr noundef zeroext i1 @_ZNK4fidl8internal12TransportEndIN20fuchsia_hardware_pci6DeviceENS0_16ChannelTransportEE8is_validEv(ptr noundef nonnull align 4 dereferenceable(4) %0) #0 comdat align 2 !dbg !15368 {
  %2 = alloca ptr, align 8
  store ptr %0, ptr %2, align 8
  call void @llvm.dbg.declare(metadata ptr %2, metadata !15369, metadata !DIExpression()), !dbg !15370
  %3 = load ptr, ptr %2, align 8
  %4 = getelementptr inbounds %"class.fidl::internal::TransportEnd", ptr %3, i32 0, i32 0, !dbg !15371
  %5 = call noundef zeroext i1 @_ZNK2zx11object_base8is_validEv(ptr noundef nonnull align 4 dereferenceable(4) %4), !dbg !15372
  ret i1 %5, !dbg !15373
}

; Function Attrs: mustprogress noinline nounwind optnone sspstrong uwtable
define linkonce_odr noundef zeroext i1 @_ZNK2zx11object_base8is_validEv(ptr noundef nonnull align 4 dereferenceable(4) %0) #2 comdat align 2 !dbg !15374 {
  %2 = alloca ptr, align 8
  store ptr %0, ptr %2, align 8
  call void @llvm.dbg.declare(metadata ptr %2, metadata !15375, metadata !DIExpression()), !dbg !15376
  %3 = load ptr, ptr %2, align 8
  %4 = getelementptr inbounds %"class.zx::object_base", ptr %3, i32 0, i32 0, !dbg !15377
  %5 = load i32, ptr %4, align 4, !dbg !15377
  %6 = icmp ne i32 %5, 0, !dbg !15378
  ret i1 %6, !dbg !15379
}

; Function Attrs: mustprogress noinline nounwind optnone sspstrong uwtable
define linkonce_odr { ptr, i32 } @_ZN4fidl8internal19AnyUnownedTransport4MakeINS0_16ChannelTransportEEES1_j(i32 noundef %0) #2 comdat align 2 personality ptr @__gxx_personality_v0 !dbg !15380 {
  %2 = alloca %"class.fidl::internal::AnyUnownedTransport", align 8
  %3 = alloca i32, align 4
  store i32 %0, ptr %3, align 4
  call void @llvm.dbg.declare(metadata ptr %3, metadata !15384, metadata !DIExpression()), !dbg !15385
  %4 = load i32, ptr %3, align 4, !dbg !15386
  %5 = invoke noundef ptr @_ZN4fidl8internal19AnyUnownedTransportC2EPKNS0_15TransportVTableEj(ptr noundef nonnull align 8 dereferenceable(12) %2, ptr noundef @_ZN4fidl8internal16ChannelTransport6VTableE, i32 noundef %4)
          to label %6 unwind label %8, !dbg !15387

6:                                                ; preds = %1
  %7 = load { ptr, i32 }, ptr %2, align 8, !dbg !15388
  ret { ptr, i32 } %7, !dbg !15388

8:                                                ; preds = %1
  %9 = landingpad { ptr, i32 }
          catch ptr null, !dbg !15387
  %10 = extractvalue { ptr, i32 } %9, 0, !dbg !15387
  call void @__clang_call_terminate(ptr %10) #18, !dbg !15387
  unreachable, !dbg !15387
}

; Function Attrs: noinline nounwind optnone sspstrong uwtable
define linkonce_odr noundef ptr @_ZN4fidl8internal19AnyUnownedTransportC2EPKNS0_15TransportVTableEj(ptr noundef nonnull returned align 8 dereferenceable(12) %0, ptr noundef %1, i32 noundef %2) unnamed_addr #3 comdat align 2 !dbg !15389 {
  %4 = alloca ptr, align 8
  %5 = alloca ptr, align 8
  %6 = alloca i32, align 4
  store ptr %0, ptr %4, align 8
  call void @llvm.dbg.declare(metadata ptr %4, metadata !15390, metadata !DIExpression()), !dbg !15392
  store ptr %1, ptr %5, align 8
  call void @llvm.dbg.declare(metadata ptr %5, metadata !15393, metadata !DIExpression()), !dbg !15394
  store i32 %2, ptr %6, align 4
  call void @llvm.dbg.declare(metadata ptr %6, metadata !15395, metadata !DIExpression()), !dbg !15396
  %7 = load ptr, ptr %4, align 8
  %8 = getelementptr inbounds %"class.fidl::internal::AnyUnownedTransport", ptr %7, i32 0, i32 0, !dbg !15397
  %9 = load ptr, ptr %5, align 8, !dbg !15398
  store ptr %9, ptr %8, align 8, !dbg !15397
  %10 = getelementptr inbounds %"class.fidl::internal::AnyUnownedTransport", ptr %7, i32 0, i32 1, !dbg !15399
  %11 = load i32, ptr %6, align 4, !dbg !15400
  store i32 %11, ptr %10, align 8, !dbg !15399
  ret ptr %7, !dbg !15401
}

declare noundef signext i8 @_ZN6driver6Logger11GetSeverityEv(ptr noundef nonnull align 8 dereferenceable(36)) #6

; Function Attrs: mustprogress noinline optnone sspstrong uwtable
define internal void @_ZN15driver_internalL9MakeValueIPKcJNS_8KeyValueIS2_iEEEEEDaT_NS_6TupletIJDpT0_EEE(ptr noalias sret(%"struct.driver_internal::LogValue") align 8 %0, ptr noundef %1, ptr noundef byval(%"struct.driver_internal::Tuplet") align 8 %2) #0 !dbg !15402 {
  %4 = alloca ptr, align 8
  %5 = alloca %"struct.driver_internal::Tuplet", align 8
  store ptr %1, ptr %4, align 8
  call void @llvm.dbg.declare(metadata ptr %4, metadata !15406, metadata !DIExpression()), !dbg !15407
  call void @llvm.dbg.declare(metadata ptr %2, metadata !15408, metadata !DIExpression()), !dbg !15409
  %6 = load ptr, ptr %4, align 8, !dbg !15410
  call void @llvm.memcpy.p0.p0.i64(ptr align 8 %5, ptr align 8 %2, i64 24, i1 false), !dbg !15411
  %7 = call noundef ptr @_ZN15driver_internal8LogValueIPKcJNS_8KeyValueIS2_iEEEEC2ES2_NS_6TupletIJS4_EEE(ptr noundef nonnull align 8 dereferenceable(32) %0, ptr noundef %6, ptr noundef byval(%"struct.driver_internal::Tuplet") align 8 %5), !dbg !15412
  ret void, !dbg !15413
}

; Function Attrs: mustprogress noinline optnone sspstrong uwtable
define internal void @_ZN15driver_internalL6MakeKVIJPKciEEEDaNSt3__25tupleIJDpT_EEE(ptr noalias sret(%"struct.driver_internal::Tuplet") align 8 %0, ptr %1, i32 %2) #0 !dbg !15414 {
  %4 = alloca %"class.std::__2::tuple.113", align 8
  %5 = alloca %"class.std::__2::tuple.113", align 8
  %6 = alloca %"class.std::__2::tuple.117", align 1
  %7 = alloca %"class.std::__2::tuple.117", align 1
  %8 = getelementptr inbounds { ptr, i32 }, ptr %4, i32 0, i32 0
  store ptr %1, ptr %8, align 8
  %9 = getelementptr inbounds { ptr, i32 }, ptr %4, i32 0, i32 1
  store i32 %2, ptr %9, align 8
  call void @llvm.dbg.declare(metadata ptr %4, metadata !15418, metadata !DIExpression()), !dbg !15419
  call void @llvm.memcpy.p0.p0.i64(ptr align 8 %5, ptr align 8 %4, i64 16, i1 false), !dbg !15420
  call void @_ZNSt3__210make_tupleB7v160000IJEEENS_5tupleIJDpNS_18__unwrap_ref_decayIT_E4typeEEEEDpOS3_(), !dbg !15421
  %10 = getelementptr inbounds { ptr, i32 }, ptr %5, i32 0, i32 0, !dbg !15422
  %11 = load ptr, ptr %10, align 8, !dbg !15422
  %12 = getelementptr inbounds { ptr, i32 }, ptr %5, i32 0, i32 1, !dbg !15422
  %13 = load i32, ptr %12, align 8, !dbg !15422
  call void @_ZN15driver_internalL6MakeKVIJPKciEJEEEDaNSt3__25tupleIJDpT_EEENS4_IJDpT0_EEE(ptr sret(%"struct.driver_internal::Tuplet") align 8 %0, ptr %11, i32 %13), !dbg !15422
  ret void, !dbg !15423
}

; Function Attrs: mustprogress noinline nounwind optnone sspstrong uwtable
define linkonce_odr hidden { ptr, i32 } @_ZNSt3__210make_tupleB7v160000IJRPKcRiEEENS_5tupleIJDpNS_18__unwrap_ref_decayIT_E4typeEEEEDpOS7_(ptr noundef nonnull align 8 dereferenceable(8) %0, ptr noundef nonnull align 4 dereferenceable(4) %1) #2 comdat !dbg !15424 {
  %3 = alloca %"class.std::__2::tuple.113", align 8
  %4 = alloca ptr, align 8
  %5 = alloca ptr, align 8
  store ptr %0, ptr %4, align 8
  call void @llvm.dbg.declare(metadata ptr %4, metadata !15431, metadata !DIExpression()), !dbg !15432
  store ptr %1, ptr %5, align 8
  call void @llvm.dbg.declare(metadata ptr %5, metadata !15433, metadata !DIExpression()), !dbg !15432
  %6 = load ptr, ptr %4, align 8, !dbg !15434
  %7 = load ptr, ptr %5, align 8, !dbg !15434
  %8 = call noundef ptr @_ZNSt3__25tupleIJPKciEEC2B7v160000IJRS2_RiELi0EEEDpOT_(ptr noundef nonnull align 8 dereferenceable(16) %3, ptr noundef nonnull align 8 dereferenceable(8) %6, ptr noundef nonnull align 4 dereferenceable(4) %7) #16, !dbg !15435
  %9 = getelementptr inbounds %"class.std::__2::tuple.113", ptr %3, i32 0, i32 0, !dbg !15436
  %10 = load { ptr, i32 }, ptr %9, align 8, !dbg !15436
  ret { ptr, i32 } %10, !dbg !15436
}

; Function Attrs: mustprogress noinline optnone sspstrong uwtable
define linkonce_odr void @_ZNK15driver_internal8LogValueIPKcJNS_8KeyValueIS2_iEEEE6LogNewERN6driver6LoggerEaS2_jS2_(ptr noundef nonnull align 8 dereferenceable(32) %0, ptr noundef nonnull align 8 dereferenceable(36) %1, i8 noundef signext %2, ptr noundef %3, i32 noundef %4, ptr noundef %5) #0 comdat align 2 !dbg !15437 {
  %7 = alloca ptr, align 8
  %8 = alloca ptr, align 8
  %9 = alloca i8, align 1
  %10 = alloca ptr, align 8
  %11 = alloca i32, align 4
  %12 = alloca ptr, align 8
  %13 = alloca %"struct.driver_internal::EncoderState", align 8
  %14 = alloca i32, align 4
  %15 = alloca %"class.std::__2::optional.127", align 8
  %16 = alloca %"class.std::__2::optional.127", align 8
  %17 = alloca %"class.std::__2::optional.127", align 8
  %18 = alloca %"struct.driver_internal::Tuplet", align 8
  store ptr %0, ptr %7, align 8
  call void @llvm.dbg.declare(metadata ptr %7, metadata !15438, metadata !DIExpression()), !dbg !15440
  store ptr %1, ptr %8, align 8
  call void @llvm.dbg.declare(metadata ptr %8, metadata !15441, metadata !DIExpression()), !dbg !15442
  store i8 %2, ptr %9, align 1
  call void @llvm.dbg.declare(metadata ptr %9, metadata !15443, metadata !DIExpression()), !dbg !15444
  store ptr %3, ptr %10, align 8
  call void @llvm.dbg.declare(metadata ptr %10, metadata !15445, metadata !DIExpression()), !dbg !15446
  store i32 %4, ptr %11, align 4
  call void @llvm.dbg.declare(metadata ptr %11, metadata !15447, metadata !DIExpression()), !dbg !15448
  store ptr %5, ptr %12, align 8
  call void @llvm.dbg.declare(metadata ptr %12, metadata !15449, metadata !DIExpression()), !dbg !15450
  %19 = load ptr, ptr %7, align 8
  call void @llvm.dbg.declare(metadata ptr %13, metadata !15451, metadata !DIExpression()), !dbg !15529
  call void @llvm.dbg.declare(metadata ptr %14, metadata !15530, metadata !DIExpression()), !dbg !15531
  %20 = load ptr, ptr %8, align 8, !dbg !15532
  %21 = call noundef i32 @_ZN6driver6Logger18GetAndResetDroppedEv(ptr noundef nonnull align 8 dereferenceable(36) %20), !dbg !15533
  store i32 %21, ptr %14, align 4, !dbg !15531
  %22 = load ptr, ptr %8, align 8, !dbg !15534
  %23 = getelementptr inbounds %"struct.driver_internal::EncoderState", ptr %13, i32 0, i32 0, !dbg !15535
  %24 = load i8, ptr %9, align 1, !dbg !15536
  %25 = load ptr, ptr %10, align 8, !dbg !15537
  call void @_ZN15driver_internalL11FromCStringEPKc(ptr sret(%"class.std::__2::optional.127") align 8 %15, ptr noundef %25), !dbg !15538
  %26 = load i32, ptr %11, align 4, !dbg !15539
  %27 = getelementptr inbounds %"struct.driver_internal::LogValue", ptr %19, i32 0, i32 0, !dbg !15540
  %28 = load ptr, ptr %27, align 8, !dbg !15540
  call void @_ZN15driver_internalL11FromCStringEPKc(ptr sret(%"class.std::__2::optional.127") align 8 %16, ptr noundef %28), !dbg !15541
  %29 = load ptr, ptr %12, align 8, !dbg !15542
  call void @_ZN15driver_internalL11FromCStringEPKc(ptr sret(%"class.std::__2::optional.127") align 8 %17, ptr noundef %29), !dbg !15543
  %30 = load i32, ptr %14, align 4, !dbg !15544
  call void @_ZN6driver6Logger11BeginRecordERN14fuchsia_syslog9LogBufferEaNSt3__28optionalINS4_17basic_string_viewIcNS4_11char_traitsIcEEEEEEjSA_SA_bj(ptr noundef nonnull align 8 dereferenceable(36) %22, ptr noundef nonnull align 8 dereferenceable(32888) %23, i8 noundef signext %24, ptr noundef byval(%"class.std::__2::optional.127") align 8 %15, i32 noundef %26, ptr noundef byval(%"class.std::__2::optional.127") align 8 %16, ptr noundef byval(%"class.std::__2::optional.127") align 8 %17, i1 noundef zeroext false, i32 noundef %30), !dbg !15545
  %31 = getelementptr inbounds %"struct.driver_internal::LogValue", ptr %19, i32 0, i32 1, !dbg !15546
  call void @llvm.memcpy.p0.p0.i64(ptr align 8 %18, ptr align 8 %31, i64 24, i1 false), !dbg !15546
  call void @_ZN15driver_internal12EncoderState6EncodeILm0ELm1EJNS_8KeyValueIPKciEEELi0EEEvNS_6TupletIJDpT1_EEE(ptr noundef nonnull align 8 dereferenceable(32888) %13, ptr noundef byval(%"struct.driver_internal::Tuplet") align 8 %18), !dbg !15547
  %32 = load ptr, ptr %8, align 8, !dbg !15548
  %33 = getelementptr inbounds %"struct.driver_internal::EncoderState", ptr %13, i32 0, i32 0, !dbg !15549
  %34 = load i32, ptr %14, align 4, !dbg !15550
  %35 = call noundef zeroext i1 @_ZN6driver6Logger11FlushRecordERN14fuchsia_syslog9LogBufferEj(ptr noundef nonnull align 8 dereferenceable(36) %32, ptr noundef nonnull align 8 dereferenceable(32888) %33, i32 noundef %34), !dbg !15551
  ret void, !dbg !15552
}

; Function Attrs: noinline nounwind optnone sspstrong uwtable
define linkonce_odr noundef ptr @_ZN15driver_internal8LogValueIPKcJNS_8KeyValueIS2_iEEEEC2ES2_NS_6TupletIJS4_EEE(ptr noundef nonnull returned align 8 dereferenceable(32) %0, ptr noundef %1, ptr noundef byval(%"struct.driver_internal::Tuplet") align 8 %2) unnamed_addr #3 comdat align 2 !dbg !15553 {
  %4 = alloca ptr, align 8
  %5 = alloca ptr, align 8
  store ptr %0, ptr %4, align 8
  call void @llvm.dbg.declare(metadata ptr %4, metadata !15554, metadata !DIExpression()), !dbg !15556
  store ptr %1, ptr %5, align 8
  call void @llvm.dbg.declare(metadata ptr %5, metadata !15557, metadata !DIExpression()), !dbg !15558
  call void @llvm.dbg.declare(metadata ptr %2, metadata !15559, metadata !DIExpression()), !dbg !15560
  %6 = load ptr, ptr %4, align 8
  %7 = getelementptr inbounds %"struct.driver_internal::LogValue", ptr %6, i32 0, i32 0, !dbg !15561
  %8 = load ptr, ptr %5, align 8, !dbg !15562
  store ptr %8, ptr %7, align 8, !dbg !15561
  %9 = getelementptr inbounds %"struct.driver_internal::LogValue", ptr %6, i32 0, i32 1, !dbg !15563
  call void @llvm.memcpy.p0.p0.i64(ptr align 8 %9, ptr align 8 %2, i64 24, i1 false), !dbg !15563
  ret ptr %6, !dbg !15564
}

; Function Attrs: mustprogress noinline optnone sspstrong uwtable
define internal void @_ZN15driver_internalL6MakeKVIJPKciEJEEEDaNSt3__25tupleIJDpT_EEENS4_IJDpT0_EEE(ptr noalias sret(%"struct.driver_internal::Tuplet") align 8 %0, ptr %1, i32 %2) #0 !dbg !15565 {
  %4 = alloca %"class.std::__2::tuple.113", align 8
  %5 = alloca %"class.std::__2::tuple.117", align 1
  %6 = alloca %"class.std::__2::tuple.113", align 8
  %7 = alloca %"class.std::__2::tuple.117", align 1
  %8 = getelementptr inbounds { ptr, i32 }, ptr %4, i32 0, i32 0
  store ptr %1, ptr %8, align 8
  %9 = getelementptr inbounds { ptr, i32 }, ptr %4, i32 0, i32 1
  store i32 %2, ptr %9, align 8
  call void @llvm.dbg.declare(metadata ptr %4, metadata !15570, metadata !DIExpression()), !dbg !15571
  call void @llvm.dbg.declare(metadata ptr %5, metadata !15572, metadata !DIExpression()), !dbg !15573
  call void @llvm.memcpy.p0.p0.i64(ptr align 8 %6, ptr align 8 %4, i64 16, i1 false), !dbg !15574
  %10 = getelementptr inbounds { ptr, i32 }, ptr %6, i32 0, i32 0, !dbg !15575
  %11 = load ptr, ptr %10, align 8, !dbg !15575
  %12 = getelementptr inbounds { ptr, i32 }, ptr %6, i32 0, i32 1, !dbg !15575
  %13 = load i32, ptr %12, align 8, !dbg !15575
  call void @_ZN15driver_internalL6MakeKVILm0ELm2EJPKciEJELi0EEEDaNSt3__25tupleIJDpT1_EEENS4_IJDpT2_EEE(ptr sret(%"struct.driver_internal::Tuplet") align 8 %0, ptr %11, i32 %13), !dbg !15575
  ret void, !dbg !15576
}

; Function Attrs: mustprogress noinline nounwind optnone sspstrong uwtable
define linkonce_odr hidden void @_ZNSt3__210make_tupleB7v160000IJEEENS_5tupleIJDpNS_18__unwrap_ref_decayIT_E4typeEEEEDpOS3_() #2 comdat !dbg !15577 {
  ret void, !dbg !15580
}

; Function Attrs: mustprogress noinline optnone sspstrong uwtable
define internal void @_ZN15driver_internalL6MakeKVILm0ELm2EJPKciEJELi0EEEDaNSt3__25tupleIJDpT1_EEENS4_IJDpT2_EEE(ptr noalias sret(%"struct.driver_internal::Tuplet") align 8 %0, ptr %1, i32 %2) #0 !dbg !15581 {
  %4 = alloca %"class.std::__2::tuple.113", align 8
  %5 = alloca %"class.std::__2::tuple.117", align 1
  %6 = alloca ptr, align 8
  %7 = alloca i32, align 4
  %8 = alloca %"class.std::__2::tuple", align 8
  %9 = alloca %"class.std::__2::tuple", align 8
  %10 = alloca %"struct.driver_internal::KeyValue", align 8
  %11 = alloca %"class.std::__2::tuple.113", align 8
  %12 = alloca %"class.std::__2::tuple", align 8
  %13 = getelementptr inbounds { ptr, i32 }, ptr %4, i32 0, i32 0
  store ptr %1, ptr %13, align 8
  %14 = getelementptr inbounds { ptr, i32 }, ptr %4, i32 0, i32 1
  store i32 %2, ptr %14, align 8
  call void @llvm.dbg.declare(metadata ptr %4, metadata !15588, metadata !DIExpression()), !dbg !15589
  call void @llvm.dbg.declare(metadata ptr %5, metadata !15590, metadata !DIExpression()), !dbg !15591
  call void @llvm.dbg.declare(metadata ptr %6, metadata !15592, metadata !DIExpression()), !dbg !15593
  %15 = call noundef nonnull align 8 dereferenceable(8) ptr @_ZNSt3__23getB7v160000ILm0EJPKciEEERNS_13tuple_elementIXT_ENS_5tupleIJDpT0_EEEE4typeERS7_(ptr noundef nonnull align 8 dereferenceable(16) %4) #16, !dbg !15594
  %16 = load ptr, ptr %15, align 8, !dbg !15594
  store ptr %16, ptr %6, align 8, !dbg !15593
  call void @llvm.dbg.declare(metadata ptr %7, metadata !15595, metadata !DIExpression()), !dbg !15596
  %17 = call noundef nonnull align 4 dereferenceable(4) ptr @_ZNSt3__23getB7v160000ILm1EJPKciEEERNS_13tuple_elementIXT_ENS_5tupleIJDpT0_EEEE4typeERS7_(ptr noundef nonnull align 8 dereferenceable(16) %4) #16, !dbg !15597
  %18 = load i32, ptr %17, align 4, !dbg !15597
  store i32 %18, ptr %7, align 4, !dbg !15596
  call void @llvm.dbg.declare(metadata ptr %8, metadata !15598, metadata !DIExpression()), !dbg !15599
  %19 = load ptr, ptr %6, align 8, !dbg !15600
  %20 = load i32, ptr %7, align 4, !dbg !15601
  %21 = call { ptr, i32 } @_ZN15driver_internal16KeyValueInternalIPKciEENS_8KeyValueIT_T0_EES4_S5_(ptr noundef %19, i32 noundef %20), !dbg !15602
  %22 = getelementptr inbounds { ptr, i32 }, ptr %10, i32 0, i32 0, !dbg !15602
  %23 = extractvalue { ptr, i32 } %21, 0, !dbg !15602
  store ptr %23, ptr %22, align 8, !dbg !15602
  %24 = getelementptr inbounds { ptr, i32 }, ptr %10, i32 0, i32 1, !dbg !15602
  %25 = extractvalue { ptr, i32 } %21, 1, !dbg !15602
  store i32 %25, ptr %24, align 8, !dbg !15602
  %26 = call { ptr, i32 } @_ZNSt3__210make_tupleB7v160000IJN15driver_internal8KeyValueIPKciEEEEENS_5tupleIJDpNS_18__unwrap_ref_decayIT_E4typeEEEEDpOS8_(ptr noundef nonnull align 8 dereferenceable(12) %10), !dbg !15603
  %27 = getelementptr inbounds %"class.std::__2::tuple", ptr %9, i32 0, i32 0, !dbg !15603
  %28 = getelementptr inbounds %"struct.std::__2::__tuple_impl", ptr %27, i32 0, i32 0, !dbg !15603
  %29 = getelementptr inbounds %"class.std::__2::__tuple_leaf", ptr %28, i32 0, i32 0, !dbg !15603
  %30 = getelementptr inbounds { ptr, i32 }, ptr %29, i32 0, i32 0, !dbg !15603
  %31 = extractvalue { ptr, i32 } %26, 0, !dbg !15603
  store ptr %31, ptr %30, align 8, !dbg !15603
  %32 = getelementptr inbounds { ptr, i32 }, ptr %29, i32 0, i32 1, !dbg !15603
  %33 = extractvalue { ptr, i32 } %26, 1, !dbg !15603
  store i32 %33, ptr %32, align 8, !dbg !15603
  %34 = call { ptr, i32 } @_ZNSt3__29tuple_catB7v160000IRNS_5tupleIJEEEJNS1_IJN15driver_internal8KeyValueIPKciEEEEEEEENS_18__tuple_cat_returnIJT_DpT0_EE4typeEOSB_DpOSC_(ptr noundef nonnull align 1 dereferenceable(1) %5, ptr noundef nonnull align 8 dereferenceable(16) %9), !dbg !15604
  %35 = getelementptr inbounds %"class.std::__2::tuple", ptr %8, i32 0, i32 0, !dbg !15604
  %36 = getelementptr inbounds %"struct.std::__2::__tuple_impl", ptr %35, i32 0, i32 0, !dbg !15604
  %37 = getelementptr inbounds %"class.std::__2::__tuple_leaf", ptr %36, i32 0, i32 0, !dbg !15604
  %38 = getelementptr inbounds { ptr, i32 }, ptr %37, i32 0, i32 0, !dbg !15604
  %39 = extractvalue { ptr, i32 } %34, 0, !dbg !15604
  store ptr %39, ptr %38, align 8, !dbg !15604
  %40 = getelementptr inbounds { ptr, i32 }, ptr %37, i32 0, i32 1, !dbg !15604
  %41 = extractvalue { ptr, i32 } %34, 1, !dbg !15604
  store i32 %41, ptr %40, align 8, !dbg !15604
  call void @llvm.memcpy.p0.p0.i64(ptr align 8 %11, ptr align 8 %4, i64 16, i1 false), !dbg !15605
  call void @llvm.memcpy.p0.p0.i64(ptr align 8 %12, ptr align 8 %8, i64 16, i1 false), !dbg !15606
  %42 = getelementptr inbounds { ptr, i32 }, ptr %11, i32 0, i32 0, !dbg !15607
  %43 = load ptr, ptr %42, align 8, !dbg !15607
  %44 = getelementptr inbounds { ptr, i32 }, ptr %11, i32 0, i32 1, !dbg !15607
  %45 = load i32, ptr %44, align 8, !dbg !15607
  %46 = getelementptr inbounds { ptr, i32 }, ptr %12, i32 0, i32 0, !dbg !15607
  %47 = load ptr, ptr %46, align 8, !dbg !15607
  %48 = getelementptr inbounds { ptr, i32 }, ptr %12, i32 0, i32 1, !dbg !15607
  %49 = load i32, ptr %48, align 8, !dbg !15607
  call void @_ZN15driver_internalL6MakeKVILm2ELm2EJPKciEJNS_8KeyValueIS2_iEEELi0EEEDaNSt3__25tupleIJDpT1_EEENS6_IJDpT2_EEE(ptr sret(%"struct.driver_internal::Tuplet") align 8 %0, ptr %43, i32 %45, ptr %47, i32 %49), !dbg !15607
  ret void, !dbg !15608
}

; Function Attrs: mustprogress noinline nounwind optnone sspstrong uwtable
define linkonce_odr hidden noundef nonnull align 8 dereferenceable(8) ptr @_ZNSt3__23getB7v160000ILm0EJPKciEEERNS_13tuple_elementIXT_ENS_5tupleIJDpT0_EEEE4typeERS7_(ptr noundef nonnull align 8 dereferenceable(16) %0) #2 comdat !dbg !15609 {
  %2 = alloca ptr, align 8
  store ptr %0, ptr %2, align 8
  call void @llvm.dbg.declare(metadata ptr %2, metadata !15613, metadata !DIExpression()), !dbg !15614
  %3 = load ptr, ptr %2, align 8, !dbg !15615
  %4 = getelementptr inbounds %"class.std::__2::tuple.113", ptr %3, i32 0, i32 0, !dbg !15616
  %5 = call noundef nonnull align 8 dereferenceable(8) ptr @_ZNSt3__212__tuple_leafILm0EPKcLb0EE3getB7v160000Ev(ptr noundef nonnull align 8 dereferenceable(8) %4) #16, !dbg !15617
  ret ptr %5, !dbg !15618
}

; Function Attrs: mustprogress noinline nounwind optnone sspstrong uwtable
define linkonce_odr hidden noundef nonnull align 4 dereferenceable(4) ptr @_ZNSt3__23getB7v160000ILm1EJPKciEEERNS_13tuple_elementIXT_ENS_5tupleIJDpT0_EEEE4typeERS7_(ptr noundef nonnull align 8 dereferenceable(16) %0) #2 comdat !dbg !15619 {
  %2 = alloca ptr, align 8
  store ptr %0, ptr %2, align 8
  call void @llvm.dbg.declare(metadata ptr %2, metadata !15623, metadata !DIExpression()), !dbg !15624
  %3 = load ptr, ptr %2, align 8, !dbg !15625
  %4 = getelementptr inbounds %"class.std::__2::tuple.113", ptr %3, i32 0, i32 0, !dbg !15626
  %5 = getelementptr inbounds i8, ptr %4, i32 8, !dbg !15625
  %6 = call noundef nonnull align 4 dereferenceable(4) ptr @_ZNSt3__212__tuple_leafILm1EiLb0EE3getB7v160000Ev(ptr noundef nonnull align 4 dereferenceable(4) %5) #16, !dbg !15627
  ret ptr %6, !dbg !15628
}

; Function Attrs: mustprogress noinline optnone sspstrong uwtable
define linkonce_odr hidden { ptr, i32 } @_ZNSt3__29tuple_catB7v160000IRNS_5tupleIJEEEJNS1_IJN15driver_internal8KeyValueIPKciEEEEEEEENS_18__tuple_cat_returnIJT_DpT0_EE4typeEOSB_DpOSC_(ptr noundef nonnull align 1 dereferenceable(1) %0, ptr noundef nonnull align 8 dereferenceable(16) %1) #0 comdat !dbg !15629 {
  %3 = alloca %"class.std::__2::tuple", align 8
  %4 = alloca ptr, align 8
  %5 = alloca ptr, align 8
  %6 = alloca %"class.std::__2::tuple.118", align 8
  %7 = alloca %"struct.std::__2::__tuple_cat", align 1
  %8 = alloca %"class.std::__2::tuple.117", align 1
  store ptr %0, ptr %4, align 8
  call void @llvm.dbg.declare(metadata ptr %4, metadata !15637, metadata !DIExpression()), !dbg !15638
  store ptr %1, ptr %5, align 8
  call void @llvm.dbg.declare(metadata ptr %5, metadata !15639, metadata !DIExpression()), !dbg !15640
  %9 = load ptr, ptr %4, align 8, !dbg !15641
  %10 = load ptr, ptr %5, align 8, !dbg !15642
  %11 = call ptr @_ZNSt3__211__tuple_catINS_5tupleIJEEENS_15__tuple_indicesIJEEES4_EclB7v160000IRS2_NS1_IJN15driver_internal8KeyValueIPKciEEEEEJEEENS_22__tuple_cat_return_refIOS2_JOT_OT0_DpOT1_EE4typeES2_SH_SJ_SM_(ptr noundef nonnull align 1 dereferenceable(1) %7, ptr noundef nonnull align 1 dereferenceable(1) %9, ptr noundef nonnull align 8 dereferenceable(16) %10), !dbg !15643
  %12 = getelementptr inbounds %"class.std::__2::tuple.118", ptr %6, i32 0, i32 0, !dbg !15643
  %13 = getelementptr inbounds %"struct.std::__2::__tuple_impl.119", ptr %12, i32 0, i32 0, !dbg !15643
  %14 = getelementptr inbounds %"class.std::__2::__tuple_leaf.120", ptr %13, i32 0, i32 0, !dbg !15643
  store ptr %11, ptr %14, align 8, !dbg !15643
  %15 = call noundef ptr @_ZNSt3__25tupleIJN15driver_internal8KeyValueIPKciEEEEC2B7v160000IJOS5_ELi0EEEONS0_IJDpT_EEE(ptr noundef nonnull align 8 dereferenceable(16) %3, ptr noundef nonnull align 8 dereferenceable(8) %6) #16, !dbg !15643
  %16 = getelementptr inbounds %"class.std::__2::tuple", ptr %3, i32 0, i32 0, !dbg !15644
  %17 = getelementptr inbounds %"struct.std::__2::__tuple_impl", ptr %16, i32 0, i32 0, !dbg !15644
  %18 = getelementptr inbounds %"class.std::__2::__tuple_leaf", ptr %17, i32 0, i32 0, !dbg !15644
  %19 = load { ptr, i32 }, ptr %18, align 8, !dbg !15644
  ret { ptr, i32 } %19, !dbg !15644
}

; Function Attrs: mustprogress noinline nounwind optnone sspstrong uwtable
define linkonce_odr hidden { ptr, i32 } @_ZNSt3__210make_tupleB7v160000IJN15driver_internal8KeyValueIPKciEEEEENS_5tupleIJDpNS_18__unwrap_ref_decayIT_E4typeEEEEDpOS8_(ptr noundef nonnull align 8 dereferenceable(12) %0) #2 comdat !dbg !15645 {
  %2 = alloca %"class.std::__2::tuple", align 8
  %3 = alloca ptr, align 8
  store ptr %0, ptr %3, align 8
  call void @llvm.dbg.declare(metadata ptr %3, metadata !15648, metadata !DIExpression()), !dbg !15649
  %4 = load ptr, ptr %3, align 8, !dbg !15650
  %5 = call noundef ptr @_ZNSt3__25tupleIJN15driver_internal8KeyValueIPKciEEEEC2B7v160000IJS5_ELi0EEEDpOT_(ptr noundef nonnull align 8 dereferenceable(16) %2, ptr noundef nonnull align 8 dereferenceable(12) %4) #16, !dbg !15651
  %6 = getelementptr inbounds %"class.std::__2::tuple", ptr %2, i32 0, i32 0, !dbg !15652
  %7 = getelementptr inbounds %"struct.std::__2::__tuple_impl", ptr %6, i32 0, i32 0, !dbg !15652
  %8 = getelementptr inbounds %"class.std::__2::__tuple_leaf", ptr %7, i32 0, i32 0, !dbg !15652
  %9 = load { ptr, i32 }, ptr %8, align 8, !dbg !15652
  ret { ptr, i32 } %9, !dbg !15652
}

; Function Attrs: mustprogress noinline optnone sspstrong uwtable
define linkonce_odr { ptr, i32 } @_ZN15driver_internal16KeyValueInternalIPKciEENS_8KeyValueIT_T0_EES4_S5_(ptr noundef %0, i32 noundef %1) #0 comdat !dbg !15653 {
  %3 = alloca %"struct.driver_internal::KeyValue", align 8
  %4 = alloca ptr, align 8
  %5 = alloca i32, align 4
  store ptr %0, ptr %4, align 8
  call void @llvm.dbg.declare(metadata ptr %4, metadata !15656, metadata !DIExpression()), !dbg !15657
  store i32 %1, ptr %5, align 4
  call void @llvm.dbg.declare(metadata ptr %5, metadata !15658, metadata !DIExpression()), !dbg !15659
  %6 = load ptr, ptr %4, align 8, !dbg !15660
  %7 = load i32, ptr %5, align 4, !dbg !15661
  %8 = call noundef ptr @_ZN15driver_internal8KeyValueIPKciEC2ES2_i(ptr noundef nonnull align 8 dereferenceable(12) %3, ptr noundef %6, i32 noundef %7), !dbg !15662
  %9 = load { ptr, i32 }, ptr %3, align 8, !dbg !15663
  ret { ptr, i32 } %9, !dbg !15663
}

; Function Attrs: mustprogress noinline optnone sspstrong uwtable
define internal void @_ZN15driver_internalL6MakeKVILm2ELm2EJPKciEJNS_8KeyValueIS2_iEEELi0EEEDaNSt3__25tupleIJDpT1_EEENS6_IJDpT2_EEE(ptr noalias sret(%"struct.driver_internal::Tuplet") align 8 %0, ptr %1, i32 %2, ptr %3, i32 %4) #0 !dbg !15664 {
  %6 = alloca %"class.std::__2::tuple.113", align 8
  %7 = alloca %"class.std::__2::tuple", align 8
  %8 = alloca %"class.std::__2::tuple", align 8
  %9 = getelementptr inbounds { ptr, i32 }, ptr %6, i32 0, i32 0
  store ptr %1, ptr %9, align 8
  %10 = getelementptr inbounds { ptr, i32 }, ptr %6, i32 0, i32 1
  store i32 %2, ptr %10, align 8
  %11 = getelementptr inbounds { ptr, i32 }, ptr %7, i32 0, i32 0
  store ptr %3, ptr %11, align 8
  %12 = getelementptr inbounds { ptr, i32 }, ptr %7, i32 0, i32 1
  store i32 %4, ptr %12, align 8
  call void @llvm.dbg.declare(metadata ptr %6, metadata !15670, metadata !DIExpression()), !dbg !15671
  call void @llvm.dbg.declare(metadata ptr %7, metadata !15672, metadata !DIExpression()), !dbg !15673
  call void @llvm.memcpy.p0.p0.i64(ptr align 8 %8, ptr align 8 %7, i64 16, i1 false), !dbg !15674
  %13 = getelementptr inbounds { ptr, i32 }, ptr %8, i32 0, i32 0, !dbg !15675
  %14 = load ptr, ptr %13, align 8, !dbg !15675
  %15 = getelementptr inbounds { ptr, i32 }, ptr %8, i32 0, i32 1, !dbg !15675
  %16 = load i32, ptr %15, align 8, !dbg !15675
  %17 = call noundef ptr @_ZN15driver_internal6TupletIJNS_8KeyValueIPKciEEEEC2ENSt3__25tupleIJS4_EEEm(ptr noundef nonnull align 8 dereferenceable(24) %0, ptr %14, i32 %16, i64 noundef 2), !dbg !15675
  ret void, !dbg !15676
}

; Function Attrs: mustprogress noinline nounwind optnone sspstrong uwtable
define linkonce_odr hidden noundef nonnull align 8 dereferenceable(8) ptr @_ZNSt3__212__tuple_leafILm0EPKcLb0EE3getB7v160000Ev(ptr noundef nonnull align 8 dereferenceable(8) %0) #2 comdat align 2 !dbg !15677 {
  %2 = alloca ptr, align 8
  store ptr %0, ptr %2, align 8
  call void @llvm.dbg.declare(metadata ptr %2, metadata !15678, metadata !DIExpression()), !dbg !15680
  %3 = load ptr, ptr %2, align 8
  %4 = getelementptr inbounds %"class.std::__2::__tuple_leaf.115", ptr %3, i32 0, i32 0, !dbg !15681
  ret ptr %4, !dbg !15682
}

; Function Attrs: mustprogress noinline nounwind optnone sspstrong uwtable
define linkonce_odr hidden noundef nonnull align 4 dereferenceable(4) ptr @_ZNSt3__212__tuple_leafILm1EiLb0EE3getB7v160000Ev(ptr noundef nonnull align 4 dereferenceable(4) %0) #2 comdat align 2 !dbg !15683 {
  %2 = alloca ptr, align 8
  store ptr %0, ptr %2, align 8
  call void @llvm.dbg.declare(metadata ptr %2, metadata !15684, metadata !DIExpression()), !dbg !15686
  %3 = load ptr, ptr %2, align 8
  %4 = getelementptr inbounds %"class.std::__2::__tuple_leaf.116", ptr %3, i32 0, i32 0, !dbg !15687
  ret ptr %4, !dbg !15688
}

; Function Attrs: mustprogress noinline optnone sspstrong uwtable
define linkonce_odr ptr @_ZNSt3__211__tuple_catINS_5tupleIJEEENS_15__tuple_indicesIJEEES4_EclB7v160000IRS2_NS1_IJN15driver_internal8KeyValueIPKciEEEEEJEEENS_22__tuple_cat_return_refIOS2_JOT_OT0_DpOT1_EE4typeES2_SH_SJ_SM_(ptr noundef nonnull align 1 dereferenceable(1) %0, ptr noundef nonnull align 1 dereferenceable(1) %1, ptr noundef nonnull align 8 dereferenceable(16) %2) #0 comdat align 2 !dbg !15689 {
  %4 = alloca %"class.std::__2::tuple.118", align 8
  %5 = alloca %"class.std::__2::tuple.117", align 1
  %6 = alloca ptr, align 8
  %7 = alloca ptr, align 8
  %8 = alloca ptr, align 8
  %9 = alloca %"struct.std::__2::__tuple_cat.121", align 1
  %10 = alloca %"class.std::__2::tuple.117", align 1
  %11 = alloca %"class.std::__2::tuple.117", align 1
  store ptr %0, ptr %6, align 8
  call void @llvm.dbg.declare(metadata ptr %6, metadata !15711, metadata !DIExpression()), !dbg !15713
  call void @llvm.dbg.declare(metadata ptr %5, metadata !15714, metadata !DIExpression()), !dbg !15715
  store ptr %1, ptr %7, align 8
  call void @llvm.dbg.declare(metadata ptr %7, metadata !15716, metadata !DIExpression()), !dbg !15717
  store ptr %2, ptr %8, align 8
  call void @llvm.dbg.declare(metadata ptr %8, metadata !15718, metadata !DIExpression()), !dbg !15719
  %12 = load ptr, ptr %6, align 8
  call void @_ZNSt3__216forward_as_tupleB7v160000IJEEENS_5tupleIJDpOT_EEES4_() #16, !dbg !15720
  %13 = load ptr, ptr %8, align 8, !dbg !15721
  %14 = call ptr @_ZNSt3__211__tuple_catINS_5tupleIJEEENS_15__tuple_indicesIJEEENS3_IJLm0EEEEEclB7v160000INS1_IJN15driver_internal8KeyValueIPKciEEEEEEENS_22__tuple_cat_return_refIOS2_JOT_EE4typeES2_SH_(ptr noundef nonnull align 1 dereferenceable(1) %9, ptr noundef nonnull align 8 dereferenceable(16) %13), !dbg !15722
  %15 = getelementptr inbounds %"class.std::__2::tuple.118", ptr %4, i32 0, i32 0, !dbg !15722
  %16 = getelementptr inbounds %"struct.std::__2::__tuple_impl.119", ptr %15, i32 0, i32 0, !dbg !15722
  %17 = getelementptr inbounds %"class.std::__2::__tuple_leaf.120", ptr %16, i32 0, i32 0, !dbg !15722
  store ptr %14, ptr %17, align 8, !dbg !15722
  %18 = getelementptr inbounds %"class.std::__2::tuple.118", ptr %4, i32 0, i32 0, !dbg !15723
  %19 = getelementptr inbounds %"struct.std::__2::__tuple_impl.119", ptr %18, i32 0, i32 0, !dbg !15723
  %20 = getelementptr inbounds %"class.std::__2::__tuple_leaf.120", ptr %19, i32 0, i32 0, !dbg !15723
  %21 = load ptr, ptr %20, align 8, !dbg !15723
  ret ptr %21, !dbg !15723
}

; Function Attrs: noinline nounwind optnone sspstrong uwtable
define linkonce_odr noundef ptr @_ZNSt3__25tupleIJN15driver_internal8KeyValueIPKciEEEEC2B7v160000IJOS5_ELi0EEEONS0_IJDpT_EEE(ptr noundef nonnull returned align 8 dereferenceable(16) %0, ptr noundef nonnull align 8 dereferenceable(8) %1) unnamed_addr #3 comdat align 2 !dbg !15724 {
  %3 = alloca ptr, align 8
  %4 = alloca ptr, align 8
  store ptr %0, ptr %3, align 8
  call void @llvm.dbg.declare(metadata ptr %3, metadata !15731, metadata !DIExpression()), !dbg !15733
  store ptr %1, ptr %4, align 8
  call void @llvm.dbg.declare(metadata ptr %4, metadata !15734, metadata !DIExpression()), !dbg !15735
  %5 = load ptr, ptr %3, align 8
  %6 = getelementptr inbounds %"class.std::__2::tuple", ptr %5, i32 0, i32 0, !dbg !15736
  %7 = load ptr, ptr %4, align 8, !dbg !15737
  %8 = call noundef ptr @_ZNSt3__212__tuple_implINS_15__tuple_indicesIJLm0EEEEJN15driver_internal8KeyValueIPKciEEEEC2B7v160000INS_5tupleIJOS7_EEEvEEOT_(ptr noundef nonnull align 8 dereferenceable(16) %6, ptr noundef nonnull align 8 dereferenceable(8) %7) #16, !dbg !15736
  ret ptr %5, !dbg !15738
}

; Function Attrs: mustprogress noinline nounwind optnone sspstrong uwtable
define linkonce_odr ptr @_ZNSt3__211__tuple_catINS_5tupleIJEEENS_15__tuple_indicesIJEEENS3_IJLm0EEEEEclB7v160000INS1_IJN15driver_internal8KeyValueIPKciEEEEEEENS_22__tuple_cat_return_refIOS2_JOT_EE4typeES2_SH_(ptr noundef nonnull align 1 dereferenceable(1) %0, ptr noundef nonnull align 8 dereferenceable(16) %1) #2 comdat align 2 !dbg !15739 {
  %3 = alloca %"class.std::__2::tuple.118", align 8
  %4 = alloca %"class.std::__2::tuple.117", align 1
  %5 = alloca ptr, align 8
  %6 = alloca ptr, align 8
  store ptr %0, ptr %5, align 8
  call void @llvm.dbg.declare(metadata ptr %5, metadata !15749, metadata !DIExpression()), !dbg !15751
  call void @llvm.dbg.declare(metadata ptr %4, metadata !15752, metadata !DIExpression()), !dbg !15753
  store ptr %1, ptr %6, align 8
  call void @llvm.dbg.declare(metadata ptr %6, metadata !15754, metadata !DIExpression()), !dbg !15755
  %7 = load ptr, ptr %5, align 8
  %8 = load ptr, ptr %6, align 8, !dbg !15756
  %9 = call noundef nonnull align 8 dereferenceable(12) ptr @_ZNSt3__23getB7v160000ILm0EJN15driver_internal8KeyValueIPKciEEEEEONS_13tuple_elementIXT_ENS_5tupleIJDpT0_EEEE4typeEOSA_(ptr noundef nonnull align 8 dereferenceable(16) %8) #16, !dbg !15757
  %10 = call ptr @_ZNSt3__216forward_as_tupleB7v160000IJN15driver_internal8KeyValueIPKciEEEEENS_5tupleIJDpOT_EEES9_(ptr noundef nonnull align 8 dereferenceable(12) %9) #16, !dbg !15758
  %11 = getelementptr inbounds %"class.std::__2::tuple.118", ptr %3, i32 0, i32 0, !dbg !15758
  %12 = getelementptr inbounds %"struct.std::__2::__tuple_impl.119", ptr %11, i32 0, i32 0, !dbg !15758
  %13 = getelementptr inbounds %"class.std::__2::__tuple_leaf.120", ptr %12, i32 0, i32 0, !dbg !15758
  store ptr %10, ptr %13, align 8, !dbg !15758
  %14 = getelementptr inbounds %"class.std::__2::tuple.118", ptr %3, i32 0, i32 0, !dbg !15759
  %15 = getelementptr inbounds %"struct.std::__2::__tuple_impl.119", ptr %14, i32 0, i32 0, !dbg !15759
  %16 = getelementptr inbounds %"class.std::__2::__tuple_leaf.120", ptr %15, i32 0, i32 0, !dbg !15759
  %17 = load ptr, ptr %16, align 8, !dbg !15759
  ret ptr %17, !dbg !15759
}

; Function Attrs: mustprogress noinline nounwind optnone sspstrong uwtable
define linkonce_odr hidden void @_ZNSt3__216forward_as_tupleB7v160000IJEEENS_5tupleIJDpOT_EEES4_() #2 comdat !dbg !15760 {
  ret void, !dbg !15761
}

; Function Attrs: mustprogress noinline nounwind optnone sspstrong uwtable
define linkonce_odr hidden ptr @_ZNSt3__216forward_as_tupleB7v160000IJN15driver_internal8KeyValueIPKciEEEEENS_5tupleIJDpOT_EEES9_(ptr noundef nonnull align 8 dereferenceable(12) %0) #2 comdat !dbg !15762 {
  %2 = alloca %"class.std::__2::tuple.118", align 8
  %3 = alloca ptr, align 8
  store ptr %0, ptr %3, align 8
  call void @llvm.dbg.declare(metadata ptr %3, metadata !15765, metadata !DIExpression()), !dbg !15766
  %4 = load ptr, ptr %3, align 8, !dbg !15767
  %5 = call noundef ptr @_ZNSt3__25tupleIJON15driver_internal8KeyValueIPKciEEEEC2B7v160000IJS5_ELi0EEEDpOT_(ptr noundef nonnull align 8 dereferenceable(8) %2, ptr noundef nonnull align 8 dereferenceable(12) %4) #16, !dbg !15768
  %6 = getelementptr inbounds %"class.std::__2::tuple.118", ptr %2, i32 0, i32 0, !dbg !15769
  %7 = getelementptr inbounds %"struct.std::__2::__tuple_impl.119", ptr %6, i32 0, i32 0, !dbg !15769
  %8 = getelementptr inbounds %"class.std::__2::__tuple_leaf.120", ptr %7, i32 0, i32 0, !dbg !15769
  %9 = load ptr, ptr %8, align 8, !dbg !15769
  ret ptr %9, !dbg !15769
}

; Function Attrs: mustprogress noinline nounwind optnone sspstrong uwtable
define linkonce_odr hidden noundef nonnull align 8 dereferenceable(12) ptr @_ZNSt3__23getB7v160000ILm0EJN15driver_internal8KeyValueIPKciEEEEEONS_13tuple_elementIXT_ENS_5tupleIJDpT0_EEEE4typeEOSA_(ptr noundef nonnull align 8 dereferenceable(16) %0) #2 comdat !dbg !15770 {
  %2 = alloca ptr, align 8
  store ptr %0, ptr %2, align 8
  call void @llvm.dbg.declare(metadata ptr %2, metadata !15774, metadata !DIExpression()), !dbg !15775
  %3 = load ptr, ptr %2, align 8, !dbg !15776
  %4 = getelementptr inbounds %"class.std::__2::tuple", ptr %3, i32 0, i32 0, !dbg !15777
  %5 = call noundef nonnull align 8 dereferenceable(12) ptr @_ZNSt3__212__tuple_leafILm0EN15driver_internal8KeyValueIPKciEELb0EE3getB7v160000Ev(ptr noundef nonnull align 8 dereferenceable(16) %4) #16, !dbg !15778
  ret ptr %5, !dbg !15779
}

; Function Attrs: noinline nounwind optnone sspstrong uwtable
define linkonce_odr noundef ptr @_ZNSt3__25tupleIJON15driver_internal8KeyValueIPKciEEEEC2B7v160000IJS5_ELi0EEEDpOT_(ptr noundef nonnull returned align 8 dereferenceable(8) %0, ptr noundef nonnull align 8 dereferenceable(12) %1) unnamed_addr #3 comdat align 2 !dbg !15780 {
  %3 = alloca ptr, align 8
  %4 = alloca ptr, align 8
  %5 = alloca %"struct.std::__2::__tuple_indices", align 1
  %6 = alloca %"struct.std::__2::__tuple_types", align 1
  %7 = alloca %"struct.std::__2::__tuple_indices.122", align 1
  %8 = alloca %"struct.std::__2::__tuple_types.123", align 1
  store ptr %0, ptr %3, align 8
  call void @llvm.dbg.declare(metadata ptr %3, metadata !15786, metadata !DIExpression()), !dbg !15788
  store ptr %1, ptr %4, align 8
  call void @llvm.dbg.declare(metadata ptr %4, metadata !15789, metadata !DIExpression()), !dbg !15790
  %9 = load ptr, ptr %3, align 8
  %10 = getelementptr inbounds %"class.std::__2::tuple.118", ptr %9, i32 0, i32 0, !dbg !15791
  %11 = load ptr, ptr %4, align 8, !dbg !15792
  %12 = call noundef ptr @_ZNSt3__212__tuple_implINS_15__tuple_indicesIJLm0EEEEJON15driver_internal8KeyValueIPKciEEEEC2B7v160000IJLm0EEJS8_EJEJEJS7_EEENS1_IJXspT_EEEENS_13__tuple_typesIJDpT0_EEENS1_IJXspT1_EEEENSC_IJDpT2_EEEDpOT3_(ptr noundef nonnull align 8 dereferenceable(8) %10, ptr noundef nonnull align 8 dereferenceable(12) %11) #16, !dbg !15791
  ret ptr %9, !dbg !15793
}

; Function Attrs: noinline nounwind optnone sspstrong uwtable
define linkonce_odr noundef ptr @_ZNSt3__212__tuple_implINS_15__tuple_indicesIJLm0EEEEJON15driver_internal8KeyValueIPKciEEEEC2B7v160000IJLm0EEJS8_EJEJEJS7_EEENS1_IJXspT_EEEENS_13__tuple_typesIJDpT0_EEENS1_IJXspT1_EEEENSC_IJDpT2_EEEDpOT3_(ptr noundef nonnull returned align 8 dereferenceable(8) %0, ptr noundef nonnull align 8 dereferenceable(12) %1) unnamed_addr #3 comdat align 2 !dbg !15794 {
  %3 = alloca %"struct.std::__2::__tuple_indices", align 1
  %4 = alloca %"struct.std::__2::__tuple_types", align 1
  %5 = alloca %"struct.std::__2::__tuple_indices.122", align 1
  %6 = alloca %"struct.std::__2::__tuple_types.123", align 1
  %7 = alloca ptr, align 8
  %8 = alloca ptr, align 8
  store ptr %0, ptr %7, align 8
  call void @llvm.dbg.declare(metadata ptr %7, metadata !15806, metadata !DIExpression()), !dbg !15808
  call void @llvm.dbg.declare(metadata ptr %3, metadata !15809, metadata !DIExpression()), !dbg !15810
  call void @llvm.dbg.declare(metadata ptr %4, metadata !15811, metadata !DIExpression()), !dbg !15812
  call void @llvm.dbg.declare(metadata ptr %5, metadata !15813, metadata !DIExpression()), !dbg !15814
  call void @llvm.dbg.declare(metadata ptr %6, metadata !15815, metadata !DIExpression()), !dbg !15816
  store ptr %1, ptr %8, align 8
  call void @llvm.dbg.declare(metadata ptr %8, metadata !15817, metadata !DIExpression()), !dbg !15818
  %9 = load ptr, ptr %7, align 8
  %10 = load ptr, ptr %8, align 8, !dbg !15819
  %11 = call noundef ptr @_ZNSt3__212__tuple_leafILm0EON15driver_internal8KeyValueIPKciEELb0EEC2B7v160000IS5_vEEOT_(ptr noundef nonnull align 8 dereferenceable(8) %9, ptr noundef nonnull align 8 dereferenceable(12) %10) #16, !dbg !15820
  ret ptr %9, !dbg !15821
}

; Function Attrs: noinline nounwind optnone sspstrong uwtable
define linkonce_odr noundef ptr @_ZNSt3__212__tuple_leafILm0EON15driver_internal8KeyValueIPKciEELb0EEC2B7v160000IS5_vEEOT_(ptr noundef nonnull returned align 8 dereferenceable(8) %0, ptr noundef nonnull align 8 dereferenceable(12) %1) unnamed_addr #3 comdat align 2 !dbg !15822 {
  %3 = alloca ptr, align 8
  %4 = alloca ptr, align 8
  store ptr %0, ptr %3, align 8
  call void @llvm.dbg.declare(metadata ptr %3, metadata !15828, metadata !DIExpression()), !dbg !15830
  store ptr %1, ptr %4, align 8
  call void @llvm.dbg.declare(metadata ptr %4, metadata !15831, metadata !DIExpression()), !dbg !15832
  %5 = load ptr, ptr %3, align 8
  %6 = getelementptr inbounds %"class.std::__2::__tuple_leaf.120", ptr %5, i32 0, i32 0, !dbg !15833
  %7 = load ptr, ptr %4, align 8, !dbg !15834
  store ptr %7, ptr %6, align 8, !dbg !15833
  ret ptr %5, !dbg !15835
}

; Function Attrs: mustprogress noinline nounwind optnone sspstrong uwtable
define linkonce_odr hidden noundef nonnull align 8 dereferenceable(12) ptr @_ZNSt3__212__tuple_leafILm0EN15driver_internal8KeyValueIPKciEELb0EE3getB7v160000Ev(ptr noundef nonnull align 8 dereferenceable(16) %0) #2 comdat align 2 !dbg !15836 {
  %2 = alloca ptr, align 8
  store ptr %0, ptr %2, align 8
  call void @llvm.dbg.declare(metadata ptr %2, metadata !15837, metadata !DIExpression()), !dbg !15839
  %3 = load ptr, ptr %2, align 8
  %4 = getelementptr inbounds %"class.std::__2::__tuple_leaf", ptr %3, i32 0, i32 0, !dbg !15840
  ret ptr %4, !dbg !15841
}

; Function Attrs: noinline nounwind optnone sspstrong uwtable
define linkonce_odr noundef ptr @_ZNSt3__212__tuple_implINS_15__tuple_indicesIJLm0EEEEJN15driver_internal8KeyValueIPKciEEEEC2B7v160000INS_5tupleIJOS7_EEEvEEOT_(ptr noundef nonnull returned align 8 dereferenceable(16) %0, ptr noundef nonnull align 8 dereferenceable(8) %1) unnamed_addr #3 comdat align 2 !dbg !15842 {
  %3 = alloca ptr, align 8
  %4 = alloca ptr, align 8
  store ptr %0, ptr %3, align 8
  call void @llvm.dbg.declare(metadata ptr %3, metadata !15848, metadata !DIExpression()), !dbg !15850
  store ptr %1, ptr %4, align 8
  call void @llvm.dbg.declare(metadata ptr %4, metadata !15851, metadata !DIExpression()), !dbg !15852
  %5 = load ptr, ptr %3, align 8
  %6 = load ptr, ptr %4, align 8, !dbg !15853
  %7 = call noundef nonnull align 8 dereferenceable(12) ptr @_ZNSt3__23getB7v160000ILm0EJON15driver_internal8KeyValueIPKciEEEEERNS_13tuple_elementIXT_ENS_5tupleIJDpT0_EEEE4typeERSB_(ptr noundef nonnull align 8 dereferenceable(8) %6) #16, !dbg !15854
  %8 = call noundef ptr @_ZNSt3__212__tuple_leafILm0EN15driver_internal8KeyValueIPKciEELb0EEC2B7v160000IS5_vEEOT_(ptr noundef nonnull align 8 dereferenceable(16) %5, ptr noundef nonnull align 8 dereferenceable(12) %7) #16, !dbg !15855
  ret ptr %5, !dbg !15856
}

; Function Attrs: mustprogress noinline nounwind optnone sspstrong uwtable
define linkonce_odr hidden noundef nonnull align 8 dereferenceable(12) ptr @_ZNSt3__23getB7v160000ILm0EJON15driver_internal8KeyValueIPKciEEEEERNS_13tuple_elementIXT_ENS_5tupleIJDpT0_EEEE4typeERSB_(ptr noundef nonnull align 8 dereferenceable(8) %0) #2 comdat !dbg !15857 {
  %2 = alloca ptr, align 8
  store ptr %0, ptr %2, align 8
  call void @llvm.dbg.declare(metadata ptr %2, metadata !15861, metadata !DIExpression()), !dbg !15863
  %3 = load ptr, ptr %2, align 8, !dbg !15864
  %4 = getelementptr inbounds %"class.std::__2::tuple.118", ptr %3, i32 0, i32 0, !dbg !15865
  %5 = call noundef nonnull align 8 dereferenceable(12) ptr @_ZNSt3__212__tuple_leafILm0EON15driver_internal8KeyValueIPKciEELb0EE3getB7v160000Ev(ptr noundef nonnull align 8 dereferenceable(8) %4) #16, !dbg !15866
  ret ptr %5, !dbg !15867
}

; Function Attrs: noinline nounwind optnone sspstrong uwtable
define linkonce_odr noundef ptr @_ZNSt3__212__tuple_leafILm0EN15driver_internal8KeyValueIPKciEELb0EEC2B7v160000IS5_vEEOT_(ptr noundef nonnull returned align 8 dereferenceable(16) %0, ptr noundef nonnull align 8 dereferenceable(12) %1) unnamed_addr #3 comdat align 2 !dbg !15868 {
  %3 = alloca ptr, align 8
  %4 = alloca ptr, align 8
  store ptr %0, ptr %3, align 8
  call void @llvm.dbg.declare(metadata ptr %3, metadata !15872, metadata !DIExpression()), !dbg !15873
  store ptr %1, ptr %4, align 8
  call void @llvm.dbg.declare(metadata ptr %4, metadata !15874, metadata !DIExpression()), !dbg !15875
  %5 = load ptr, ptr %3, align 8
  %6 = getelementptr inbounds %"class.std::__2::__tuple_leaf", ptr %5, i32 0, i32 0, !dbg !15876
  %7 = load ptr, ptr %4, align 8, !dbg !15877
  call void @llvm.memcpy.p0.p0.i64(ptr align 8 %6, ptr align 8 %7, i64 16, i1 false), !dbg !15876
  ret ptr %5, !dbg !15878
}

; Function Attrs: mustprogress noinline nounwind optnone sspstrong uwtable
define linkonce_odr hidden noundef nonnull align 8 dereferenceable(12) ptr @_ZNSt3__212__tuple_leafILm0EON15driver_internal8KeyValueIPKciEELb0EE3getB7v160000Ev(ptr noundef nonnull align 8 dereferenceable(8) %0) #2 comdat align 2 !dbg !15879 {
  %2 = alloca ptr, align 8
  store ptr %0, ptr %2, align 8
  call void @llvm.dbg.declare(metadata ptr %2, metadata !15880, metadata !DIExpression()), !dbg !15881
  %3 = load ptr, ptr %2, align 8
  %4 = getelementptr inbounds %"class.std::__2::__tuple_leaf.120", ptr %3, i32 0, i32 0, !dbg !15882
  %5 = load ptr, ptr %4, align 8, !dbg !15882
  ret ptr %5, !dbg !15883
}

; Function Attrs: noinline nounwind optnone sspstrong uwtable
define linkonce_odr noundef ptr @_ZNSt3__25tupleIJN15driver_internal8KeyValueIPKciEEEEC2B7v160000IJS5_ELi0EEEDpOT_(ptr noundef nonnull returned align 8 dereferenceable(16) %0, ptr noundef nonnull align 8 dereferenceable(12) %1) unnamed_addr #3 comdat align 2 !dbg !15884 {
  %3 = alloca ptr, align 8
  %4 = alloca ptr, align 8
  %5 = alloca %"struct.std::__2::__tuple_indices", align 1
  %6 = alloca %"struct.std::__2::__tuple_types.124", align 1
  %7 = alloca %"struct.std::__2::__tuple_indices.122", align 1
  %8 = alloca %"struct.std::__2::__tuple_types.123", align 1
  store ptr %0, ptr %3, align 8
  call void @llvm.dbg.declare(metadata ptr %3, metadata !15888, metadata !DIExpression()), !dbg !15889
  store ptr %1, ptr %4, align 8
  call void @llvm.dbg.declare(metadata ptr %4, metadata !15890, metadata !DIExpression()), !dbg !15891
  %9 = load ptr, ptr %3, align 8
  %10 = getelementptr inbounds %"class.std::__2::tuple", ptr %9, i32 0, i32 0, !dbg !15892
  %11 = load ptr, ptr %4, align 8, !dbg !15893
  %12 = call noundef ptr @_ZNSt3__212__tuple_implINS_15__tuple_indicesIJLm0EEEEJN15driver_internal8KeyValueIPKciEEEEC2B7v160000IJLm0EEJS7_EJEJEJS7_EEENS1_IJXspT_EEEENS_13__tuple_typesIJDpT0_EEENS1_IJXspT1_EEEENSB_IJDpT2_EEEDpOT3_(ptr noundef nonnull align 8 dereferenceable(16) %10, ptr noundef nonnull align 8 dereferenceable(12) %11) #16, !dbg !15892
  ret ptr %9, !dbg !15894
}

; Function Attrs: noinline nounwind optnone sspstrong uwtable
define linkonce_odr noundef ptr @_ZNSt3__212__tuple_implINS_15__tuple_indicesIJLm0EEEEJN15driver_internal8KeyValueIPKciEEEEC2B7v160000IJLm0EEJS7_EJEJEJS7_EEENS1_IJXspT_EEEENS_13__tuple_typesIJDpT0_EEENS1_IJXspT1_EEEENSB_IJDpT2_EEEDpOT3_(ptr noundef nonnull returned align 8 dereferenceable(16) %0, ptr noundef nonnull align 8 dereferenceable(12) %1) unnamed_addr #3 comdat align 2 !dbg !15895 {
  %3 = alloca %"struct.std::__2::__tuple_indices", align 1
  %4 = alloca %"struct.std::__2::__tuple_types.124", align 1
  %5 = alloca %"struct.std::__2::__tuple_indices.122", align 1
  %6 = alloca %"struct.std::__2::__tuple_types.123", align 1
  %7 = alloca ptr, align 8
  %8 = alloca ptr, align 8
  store ptr %0, ptr %7, align 8
  call void @llvm.dbg.declare(metadata ptr %7, metadata !15902, metadata !DIExpression()), !dbg !15903
  call void @llvm.dbg.declare(metadata ptr %3, metadata !15904, metadata !DIExpression()), !dbg !15905
  call void @llvm.dbg.declare(metadata ptr %4, metadata !15906, metadata !DIExpression()), !dbg !15907
  call void @llvm.dbg.declare(metadata ptr %5, metadata !15908, metadata !DIExpression()), !dbg !15909
  call void @llvm.dbg.declare(metadata ptr %6, metadata !15910, metadata !DIExpression()), !dbg !15911
  store ptr %1, ptr %8, align 8
  call void @llvm.dbg.declare(metadata ptr %8, metadata !15912, metadata !DIExpression()), !dbg !15913
  %9 = load ptr, ptr %7, align 8
  %10 = load ptr, ptr %8, align 8, !dbg !15914
  %11 = call noundef ptr @_ZNSt3__212__tuple_leafILm0EN15driver_internal8KeyValueIPKciEELb0EEC2B7v160000IS5_vEEOT_(ptr noundef nonnull align 8 dereferenceable(16) %9, ptr noundef nonnull align 8 dereferenceable(12) %10) #16, !dbg !15915
  ret ptr %9, !dbg !15916
}

; Function Attrs: noinline nounwind optnone sspstrong uwtable
define linkonce_odr noundef ptr @_ZN15driver_internal8KeyValueIPKciEC2ES2_i(ptr noundef nonnull returned align 8 dereferenceable(12) %0, ptr noundef %1, i32 noundef %2) unnamed_addr #3 comdat align 2 !dbg !15917 {
  %4 = alloca ptr, align 8
  %5 = alloca ptr, align 8
  %6 = alloca i32, align 4
  store ptr %0, ptr %4, align 8
  call void @llvm.dbg.declare(metadata ptr %4, metadata !15918, metadata !DIExpression()), !dbg !15920
  store ptr %1, ptr %5, align 8
  call void @llvm.dbg.declare(metadata ptr %5, metadata !15921, metadata !DIExpression()), !dbg !15922
  store i32 %2, ptr %6, align 4
  call void @llvm.dbg.declare(metadata ptr %6, metadata !15923, metadata !DIExpression()), !dbg !15924
  %7 = load ptr, ptr %4, align 8
  %8 = getelementptr inbounds %"struct.driver_internal::KeyValue", ptr %7, i32 0, i32 0, !dbg !15925
  %9 = load ptr, ptr %5, align 8, !dbg !15926
  store ptr %9, ptr %8, align 8, !dbg !15925
  %10 = getelementptr inbounds %"struct.driver_internal::KeyValue", ptr %7, i32 0, i32 1, !dbg !15927
  %11 = load i32, ptr %6, align 4, !dbg !15928
  store i32 %11, ptr %10, align 8, !dbg !15927
  ret ptr %7, !dbg !15929
}

; Function Attrs: noinline nounwind optnone sspstrong uwtable
define linkonce_odr noundef ptr @_ZN15driver_internal6TupletIJNS_8KeyValueIPKciEEEEC2ENSt3__25tupleIJS4_EEEm(ptr noundef nonnull returned align 8 dereferenceable(24) %0, ptr %1, i32 %2, i64 noundef %3) unnamed_addr #3 comdat align 2 !dbg !15930 {
  %5 = alloca %"class.std::__2::tuple", align 8
  %6 = alloca ptr, align 8
  %7 = alloca i64, align 8
  %8 = getelementptr inbounds { ptr, i32 }, ptr %5, i32 0, i32 0
  store ptr %1, ptr %8, align 8
  %9 = getelementptr inbounds { ptr, i32 }, ptr %5, i32 0, i32 1
  store i32 %2, ptr %9, align 8
  store ptr %0, ptr %6, align 8
  call void @llvm.dbg.declare(metadata ptr %6, metadata !15931, metadata !DIExpression()), !dbg !15933
  call void @llvm.dbg.declare(metadata ptr %5, metadata !15934, metadata !DIExpression()), !dbg !15935
  store i64 %3, ptr %7, align 8
  call void @llvm.dbg.declare(metadata ptr %7, metadata !15936, metadata !DIExpression()), !dbg !15937
  %10 = load ptr, ptr %6, align 8
  %11 = getelementptr inbounds %"struct.driver_internal::Tuplet", ptr %10, i32 0, i32 0, !dbg !15938
  call void @llvm.memcpy.p0.p0.i64(ptr align 8 %11, ptr align 8 %5, i64 16, i1 false), !dbg !15938
  %12 = getelementptr inbounds %"struct.driver_internal::Tuplet", ptr %10, i32 0, i32 1, !dbg !15939
  %13 = load i64, ptr %7, align 8, !dbg !15940
  store i64 %13, ptr %12, align 8, !dbg !15939
  ret ptr %10, !dbg !15941
}

; Function Attrs: noinline nounwind optnone sspstrong uwtable
define linkonce_odr noundef ptr @_ZNSt3__25tupleIJPKciEEC2B7v160000IJRS2_RiELi0EEEDpOT_(ptr noundef nonnull returned align 8 dereferenceable(16) %0, ptr noundef nonnull align 8 dereferenceable(8) %1, ptr noundef nonnull align 4 dereferenceable(4) %2) unnamed_addr #3 comdat align 2 !dbg !15942 {
  %4 = alloca ptr, align 8
  %5 = alloca ptr, align 8
  %6 = alloca ptr, align 8
  %7 = alloca %"struct.std::__2::__tuple_indices.125", align 1
  %8 = alloca %"struct.std::__2::__tuple_types.126", align 1
  %9 = alloca %"struct.std::__2::__tuple_indices.122", align 1
  %10 = alloca %"struct.std::__2::__tuple_types.123", align 1
  store ptr %0, ptr %4, align 8
  call void @llvm.dbg.declare(metadata ptr %4, metadata !15948, metadata !DIExpression()), !dbg !15950
  store ptr %1, ptr %5, align 8
  call void @llvm.dbg.declare(metadata ptr %5, metadata !15951, metadata !DIExpression()), !dbg !15952
  store ptr %2, ptr %6, align 8
  call void @llvm.dbg.declare(metadata ptr %6, metadata !15953, metadata !DIExpression()), !dbg !15952
  %11 = load ptr, ptr %4, align 8
  %12 = getelementptr inbounds %"class.std::__2::tuple.113", ptr %11, i32 0, i32 0, !dbg !15954
  %13 = load ptr, ptr %5, align 8, !dbg !15955
  %14 = load ptr, ptr %6, align 8, !dbg !15955
  %15 = call noundef ptr @_ZNSt3__212__tuple_implINS_15__tuple_indicesIJLm0ELm1EEEEJPKciEEC2B7v160000IJLm0ELm1EEJS4_iEJEJEJRS4_RiEEENS1_IJXspT_EEEENS_13__tuple_typesIJDpT0_EEENS1_IJXspT1_EEEENSA_IJDpT2_EEEDpOT3_(ptr noundef nonnull align 8 dereferenceable(12) %12, ptr noundef nonnull align 8 dereferenceable(8) %13, ptr noundef nonnull align 4 dereferenceable(4) %14) #16, !dbg !15954
  ret ptr %11, !dbg !15956
}

; Function Attrs: noinline nounwind optnone sspstrong uwtable
define linkonce_odr noundef ptr @_ZNSt3__212__tuple_implINS_15__tuple_indicesIJLm0ELm1EEEEJPKciEEC2B7v160000IJLm0ELm1EEJS4_iEJEJEJRS4_RiEEENS1_IJXspT_EEEENS_13__tuple_typesIJDpT0_EEENS1_IJXspT1_EEEENSA_IJDpT2_EEEDpOT3_(ptr noundef nonnull returned align 8 dereferenceable(12) %0, ptr noundef nonnull align 8 dereferenceable(8) %1, ptr noundef nonnull align 4 dereferenceable(4) %2) unnamed_addr #3 comdat align 2 !dbg !15957 {
  %4 = alloca %"struct.std::__2::__tuple_indices.125", align 1
  %5 = alloca %"struct.std::__2::__tuple_types.126", align 1
  %6 = alloca %"struct.std::__2::__tuple_indices.122", align 1
  %7 = alloca %"struct.std::__2::__tuple_types.123", align 1
  %8 = alloca ptr, align 8
  %9 = alloca ptr, align 8
  %10 = alloca ptr, align 8
  store ptr %0, ptr %8, align 8
  call void @llvm.dbg.declare(metadata ptr %8, metadata !15965, metadata !DIExpression()), !dbg !15967
  call void @llvm.dbg.declare(metadata ptr %4, metadata !15968, metadata !DIExpression()), !dbg !15969
  call void @llvm.dbg.declare(metadata ptr %5, metadata !15970, metadata !DIExpression()), !dbg !15971
  call void @llvm.dbg.declare(metadata ptr %6, metadata !15972, metadata !DIExpression()), !dbg !15973
  call void @llvm.dbg.declare(metadata ptr %7, metadata !15974, metadata !DIExpression()), !dbg !15975
  store ptr %1, ptr %9, align 8
  call void @llvm.dbg.declare(metadata ptr %9, metadata !15976, metadata !DIExpression()), !dbg !15977
  store ptr %2, ptr %10, align 8
  call void @llvm.dbg.declare(metadata ptr %10, metadata !15978, metadata !DIExpression()), !dbg !15977
  %11 = load ptr, ptr %8, align 8
  %12 = load ptr, ptr %9, align 8, !dbg !15979
  %13 = call noundef ptr @_ZNSt3__212__tuple_leafILm0EPKcLb0EEC2B7v160000IRS2_vEEOT_(ptr noundef nonnull align 8 dereferenceable(8) %11, ptr noundef nonnull align 8 dereferenceable(8) %12) #16, !dbg !15980
  %14 = getelementptr inbounds i8, ptr %11, i64 8, !dbg !15981
  %15 = load ptr, ptr %10, align 8, !dbg !15979
  %16 = call noundef ptr @_ZNSt3__212__tuple_leafILm1EiLb0EEC2B7v160000IRivEEOT_(ptr noundef nonnull align 4 dereferenceable(4) %14, ptr noundef nonnull align 4 dereferenceable(4) %15) #16, !dbg !15980
  ret ptr %11, !dbg !15982
}

; Function Attrs: noinline nounwind optnone sspstrong uwtable
define linkonce_odr noundef ptr @_ZNSt3__212__tuple_leafILm0EPKcLb0EEC2B7v160000IRS2_vEEOT_(ptr noundef nonnull returned align 8 dereferenceable(8) %0, ptr noundef nonnull align 8 dereferenceable(8) %1) unnamed_addr #3 comdat align 2 !dbg !15983 {
  %3 = alloca ptr, align 8
  %4 = alloca ptr, align 8
  store ptr %0, ptr %3, align 8
  call void @llvm.dbg.declare(metadata ptr %3, metadata !15989, metadata !DIExpression()), !dbg !15990
  store ptr %1, ptr %4, align 8
  call void @llvm.dbg.declare(metadata ptr %4, metadata !15991, metadata !DIExpression()), !dbg !15992
  %5 = load ptr, ptr %3, align 8
  %6 = getelementptr inbounds %"class.std::__2::__tuple_leaf.115", ptr %5, i32 0, i32 0, !dbg !15993
  %7 = load ptr, ptr %4, align 8, !dbg !15994
  %8 = load ptr, ptr %7, align 8, !dbg !15995
  store ptr %8, ptr %6, align 8, !dbg !15993
  ret ptr %5, !dbg !15996
}

; Function Attrs: noinline nounwind optnone sspstrong uwtable
define linkonce_odr noundef ptr @_ZNSt3__212__tuple_leafILm1EiLb0EEC2B7v160000IRivEEOT_(ptr noundef nonnull returned align 4 dereferenceable(4) %0, ptr noundef nonnull align 4 dereferenceable(4) %1) unnamed_addr #3 comdat align 2 !dbg !15997 {
  %3 = alloca ptr, align 8
  %4 = alloca ptr, align 8
  store ptr %0, ptr %3, align 8
  call void @llvm.dbg.declare(metadata ptr %3, metadata !16003, metadata !DIExpression()), !dbg !16004
  store ptr %1, ptr %4, align 8
  call void @llvm.dbg.declare(metadata ptr %4, metadata !16005, metadata !DIExpression()), !dbg !16006
  %5 = load ptr, ptr %3, align 8
  %6 = getelementptr inbounds %"class.std::__2::__tuple_leaf.116", ptr %5, i32 0, i32 0, !dbg !16007
  %7 = load ptr, ptr %4, align 8, !dbg !16008
  %8 = load i32, ptr %7, align 4, !dbg !16009
  store i32 %8, ptr %6, align 4, !dbg !16007
  ret ptr %5, !dbg !16010
}

declare noundef i32 @_ZN6driver6Logger18GetAndResetDroppedEv(ptr noundef nonnull align 8 dereferenceable(36)) #6

declare void @_ZN6driver6Logger11BeginRecordERN14fuchsia_syslog9LogBufferEaNSt3__28optionalINS4_17basic_string_viewIcNS4_11char_traitsIcEEEEEEjSA_SA_bj(ptr noundef nonnull align 8 dereferenceable(36), ptr noundef nonnull align 8 dereferenceable(32888), i8 noundef signext, ptr noundef byval(%"class.std::__2::optional.127") align 8, i32 noundef, ptr noundef byval(%"class.std::__2::optional.127") align 8, ptr noundef byval(%"class.std::__2::optional.127") align 8, i1 noundef zeroext, i32 noundef) #6

; Function Attrs: mustprogress noinline optnone sspstrong uwtable
define internal void @_ZN15driver_internalL11FromCStringEPKc(ptr noalias sret(%"class.std::__2::optional.127") align 8 %0, ptr noundef %1) #0 !dbg !16011 {
  %3 = alloca ptr, align 8
  %4 = alloca %"class.std::__2::optional.142", align 8
  %5 = alloca %"struct.std::__2::nullopt_t", align 1
  store ptr %1, ptr %3, align 8
  call void @llvm.dbg.declare(metadata ptr %3, metadata !16014, metadata !DIExpression()), !dbg !16015
  %6 = load ptr, ptr %3, align 8, !dbg !16016
  %7 = icmp ne ptr %6, null, !dbg !16016
  br i1 %7, label %8, label %11, !dbg !16018

8:                                                ; preds = %2
  %9 = call noundef ptr @_ZNSt3__28optionalIPKcEC2B7v160000IRS2_Li0EEEOT_(ptr noundef nonnull align 8 dereferenceable(9) %4, ptr noundef nonnull align 8 dereferenceable(8) %3), !dbg !16019
  %10 = call noundef ptr @_ZNSt3__28optionalINS_17basic_string_viewIcNS_11char_traitsIcEEEEEC2B7v160000IPKcLi0EEEONS0_IT_EE(ptr noundef nonnull align 8 dereferenceable(17) %0, ptr noundef nonnull align 8 dereferenceable(9) %4), !dbg !16019
  br label %13, !dbg !16021

11:                                               ; preds = %2
  %12 = call noundef ptr @_ZNSt3__28optionalINS_17basic_string_viewIcNS_11char_traitsIcEEEEEC2B7v160000ENS_9nullopt_tE(ptr noundef nonnull align 8 dereferenceable(17) %0) #16, !dbg !16022
  br label %13, !dbg !16023

13:                                               ; preds = %11, %8
  ret void, !dbg !16024
}

; Function Attrs: mustprogress noinline optnone sspstrong uwtable
define linkonce_odr void @_ZN15driver_internal12EncoderState6EncodeILm0ELm1EJNS_8KeyValueIPKciEEELi0EEEvNS_6TupletIJDpT1_EEE(ptr noundef nonnull align 8 dereferenceable(32888) %0, ptr noundef byval(%"struct.driver_internal::Tuplet") align 8 %1) #0 comdat align 2 !dbg !16025 {
  %3 = alloca ptr, align 8
  %4 = alloca %"struct.driver_internal::KeyValue", align 8
  %5 = alloca %"struct.driver_internal::KeyValue", align 8
  %6 = alloca %"struct.driver_internal::Tuplet", align 8
  store ptr %0, ptr %3, align 8
  call void @llvm.dbg.declare(metadata ptr %3, metadata !16032, metadata !DIExpression()), !dbg !16034
  call void @llvm.dbg.declare(metadata ptr %1, metadata !16035, metadata !DIExpression()), !dbg !16036
  %7 = load ptr, ptr %3, align 8
  call void @llvm.dbg.declare(metadata ptr %4, metadata !16037, metadata !DIExpression()), !dbg !16038
  %8 = getelementptr inbounds %"struct.driver_internal::Tuplet", ptr %1, i32 0, i32 0, !dbg !16039
  %9 = call noundef nonnull align 8 dereferenceable(12) ptr @_ZNSt3__23getB7v160000ILm0EJN15driver_internal8KeyValueIPKciEEEEERNS_13tuple_elementIXT_ENS_5tupleIJDpT0_EEEE4typeERSA_(ptr noundef nonnull align 8 dereferenceable(16) %8) #16, !dbg !16040
  call void @llvm.memcpy.p0.p0.i64(ptr align 8 %4, ptr align 8 %9, i64 16, i1 false), !dbg !16040
  call void @llvm.memcpy.p0.p0.i64(ptr align 8 %5, ptr align 8 %4, i64 16, i1 false), !dbg !16041
  %10 = getelementptr inbounds { ptr, i32 }, ptr %5, i32 0, i32 0, !dbg !16042
  %11 = load ptr, ptr %10, align 8, !dbg !16042
  %12 = getelementptr inbounds { ptr, i32 }, ptr %5, i32 0, i32 1, !dbg !16042
  %13 = load i32, ptr %12, align 8, !dbg !16042
  call void @_ZN15driver_internal12EncoderState6EncodeENS_8KeyValueIPKciEE(ptr noundef nonnull align 8 dereferenceable(32888) %7, ptr %11, i32 %13), !dbg !16042
  call void @llvm.memcpy.p0.p0.i64(ptr align 8 %6, ptr align 8 %1, i64 24, i1 false), !dbg !16043
  call void @_ZN15driver_internal12EncoderState6EncodeILm1ELm1EJNS_8KeyValueIPKciEEELi0EEEvNS_6TupletIJDpT1_EEE(ptr noundef nonnull align 8 dereferenceable(32888) %7, ptr noundef byval(%"struct.driver_internal::Tuplet") align 8 %6), !dbg !16044
  ret void, !dbg !16045
}

declare noundef zeroext i1 @_ZN6driver6Logger11FlushRecordERN14fuchsia_syslog9LogBufferEj(ptr noundef nonnull align 8 dereferenceable(36), ptr noundef nonnull align 8 dereferenceable(32888), i32 noundef) #6

; Function Attrs: noinline optnone sspstrong uwtable
define linkonce_odr noundef ptr @_ZNSt3__28optionalIPKcEC2B7v160000IRS2_Li0EEEOT_(ptr noundef nonnull returned align 8 dereferenceable(9) %0, ptr noundef nonnull align 8 dereferenceable(8) %1) unnamed_addr #4 comdat align 2 !dbg !16046 {
  %3 = alloca ptr, align 8
  %4 = alloca ptr, align 8
  %5 = alloca %"struct.std::__2::in_place_t", align 1
  store ptr %0, ptr %3, align 8
  call void @llvm.dbg.declare(metadata ptr %3, metadata !16052, metadata !DIExpression()), !dbg !16054
  store ptr %1, ptr %4, align 8
  call void @llvm.dbg.declare(metadata ptr %4, metadata !16055, metadata !DIExpression()), !dbg !16056
  %6 = load ptr, ptr %3, align 8
  %7 = load ptr, ptr %4, align 8, !dbg !16057
  %8 = call noundef ptr @_ZNSt3__227__optional_move_assign_baseIPKcLb1EECI2NS_24__optional_destruct_baseIS2_Lb1EEEIJRS2_EEENS_10in_place_tEDpOT_(ptr noundef nonnull align 8 dereferenceable(9) %6, ptr noundef nonnull align 8 dereferenceable(8) %7), !dbg !16058
  ret ptr %6, !dbg !16059
}

; Function Attrs: noinline optnone sspstrong uwtable
define linkonce_odr noundef ptr @_ZNSt3__28optionalINS_17basic_string_viewIcNS_11char_traitsIcEEEEEC2B7v160000IPKcLi0EEEONS0_IT_EE(ptr noundef nonnull returned align 8 dereferenceable(17) %0, ptr noundef nonnull align 8 dereferenceable(9) %1) unnamed_addr #4 comdat align 2 !dbg !16060 {
  %3 = alloca ptr, align 8
  %4 = alloca ptr, align 8
  store ptr %0, ptr %3, align 8
  call void @llvm.dbg.declare(metadata ptr %3, metadata !16066, metadata !DIExpression()), !dbg !16068
  store ptr %1, ptr %4, align 8
  call void @llvm.dbg.declare(metadata ptr %4, metadata !16069, metadata !DIExpression()), !dbg !16070
  %5 = load ptr, ptr %3, align 8
  %6 = call noundef ptr @_ZNSt3__227__optional_move_assign_baseINS_17basic_string_viewIcNS_11char_traitsIcEEEELb1EEC2Ev(ptr noundef nonnull align 8 dereferenceable(17) %5) #16, !dbg !16071
  %7 = load ptr, ptr %4, align 8, !dbg !16072
  call void @_ZNSt3__223__optional_storage_baseINS_17basic_string_viewIcNS_11char_traitsIcEEEELb0EE16__construct_fromB7v160000INS_8optionalIPKcEEEEvOT_(ptr noundef nonnull align 8 dereferenceable(17) %5, ptr noundef nonnull align 8 dereferenceable(9) %7), !dbg !16074
  ret ptr %5, !dbg !16075
}

; Function Attrs: noinline nounwind optnone sspstrong uwtable
define linkonce_odr hidden noundef ptr @_ZNSt3__28optionalINS_17basic_string_viewIcNS_11char_traitsIcEEEEEC2B7v160000ENS_9nullopt_tE(ptr noundef nonnull returned align 8 dereferenceable(17) %0) unnamed_addr #3 comdat align 2 !dbg !16076 {
  %2 = alloca %"struct.std::__2::nullopt_t", align 1
  %3 = alloca ptr, align 8
  store ptr %0, ptr %3, align 8
  call void @llvm.dbg.declare(metadata ptr %3, metadata !16077, metadata !DIExpression()), !dbg !16078
  call void @llvm.dbg.declare(metadata ptr %2, metadata !16079, metadata !DIExpression()), !dbg !16080
  %4 = load ptr, ptr %3, align 8
  %5 = call noundef ptr @_ZNSt3__227__optional_move_assign_baseINS_17basic_string_viewIcNS_11char_traitsIcEEEELb1EEC2Ev(ptr noundef nonnull align 8 dereferenceable(17) %4) #16, !dbg !16081
  ret ptr %4, !dbg !16082
}

; Function Attrs: noinline optnone sspstrong uwtable
define linkonce_odr noundef ptr @_ZNSt3__227__optional_move_assign_baseIPKcLb1EECI2NS_24__optional_destruct_baseIS2_Lb1EEEIJRS2_EEENS_10in_place_tEDpOT_(ptr noundef nonnull returned align 8 dereferenceable(9) %0, ptr noundef nonnull align 8 dereferenceable(8) %1) unnamed_addr #4 comdat align 2 !dbg !16083 {
  %3 = alloca %"struct.std::__2::in_place_t", align 1
  %4 = alloca ptr, align 8
  %5 = alloca ptr, align 8
  store ptr %0, ptr %4, align 8
  call void @llvm.dbg.declare(metadata ptr %4, metadata !16088, metadata !DIExpression()), !dbg !16090
  call void @llvm.dbg.declare(metadata ptr %3, metadata !16091, metadata !DIExpression()), !dbg !16090
  store ptr %1, ptr %5, align 8
  call void @llvm.dbg.declare(metadata ptr %5, metadata !16092, metadata !DIExpression()), !dbg !16090
  %6 = load ptr, ptr %4, align 8
  %7 = load ptr, ptr %5, align 8, !dbg !16093
  %8 = call noundef ptr @_ZNSt3__227__optional_copy_assign_baseIPKcLb1EECI2NS_24__optional_destruct_baseIS2_Lb1EEEIJRS2_EEENS_10in_place_tEDpOT_(ptr noundef nonnull align 8 dereferenceable(9) %6, ptr noundef nonnull align 8 dereferenceable(8) %7), !dbg !16093
  ret ptr %6, !dbg !16093
}

; Function Attrs: noinline optnone sspstrong uwtable
define linkonce_odr noundef ptr @_ZNSt3__227__optional_copy_assign_baseIPKcLb1EECI2NS_24__optional_destruct_baseIS2_Lb1EEEIJRS2_EEENS_10in_place_tEDpOT_(ptr noundef nonnull returned align 8 dereferenceable(9) %0, ptr noundef nonnull align 8 dereferenceable(8) %1) unnamed_addr #4 comdat align 2 !dbg !16094 {
  %3 = alloca %"struct.std::__2::in_place_t", align 1
  %4 = alloca ptr, align 8
  %5 = alloca ptr, align 8
  store ptr %0, ptr %4, align 8
  call void @llvm.dbg.declare(metadata ptr %4, metadata !16099, metadata !DIExpression()), !dbg !16101
  call void @llvm.dbg.declare(metadata ptr %3, metadata !16102, metadata !DIExpression()), !dbg !16101
  store ptr %1, ptr %5, align 8
  call void @llvm.dbg.declare(metadata ptr %5, metadata !16103, metadata !DIExpression()), !dbg !16101
  %6 = load ptr, ptr %4, align 8
  %7 = load ptr, ptr %5, align 8, !dbg !16104
  %8 = call noundef ptr @_ZNSt3__220__optional_move_baseIPKcLb1EECI2NS_24__optional_destruct_baseIS2_Lb1EEEIJRS2_EEENS_10in_place_tEDpOT_(ptr noundef nonnull align 8 dereferenceable(9) %6, ptr noundef nonnull align 8 dereferenceable(8) %7), !dbg !16104
  ret ptr %6, !dbg !16104
}

; Function Attrs: noinline optnone sspstrong uwtable
define linkonce_odr noundef ptr @_ZNSt3__220__optional_move_baseIPKcLb1EECI2NS_24__optional_destruct_baseIS2_Lb1EEEIJRS2_EEENS_10in_place_tEDpOT_(ptr noundef nonnull returned align 8 dereferenceable(9) %0, ptr noundef nonnull align 8 dereferenceable(8) %1) unnamed_addr #4 comdat align 2 !dbg !16105 {
  %3 = alloca %"struct.std::__2::in_place_t", align 1
  %4 = alloca ptr, align 8
  %5 = alloca ptr, align 8
  store ptr %0, ptr %4, align 8
  call void @llvm.dbg.declare(metadata ptr %4, metadata !16110, metadata !DIExpression()), !dbg !16112
  call void @llvm.dbg.declare(metadata ptr %3, metadata !16113, metadata !DIExpression()), !dbg !16112
  store ptr %1, ptr %5, align 8
  call void @llvm.dbg.declare(metadata ptr %5, metadata !16114, metadata !DIExpression()), !dbg !16112
  %6 = load ptr, ptr %4, align 8
  %7 = load ptr, ptr %5, align 8, !dbg !16115
  %8 = call noundef ptr @_ZNSt3__220__optional_copy_baseIPKcLb1EECI2NS_24__optional_destruct_baseIS2_Lb1EEEIJRS2_EEENS_10in_place_tEDpOT_(ptr noundef nonnull align 8 dereferenceable(9) %6, ptr noundef nonnull align 8 dereferenceable(8) %7), !dbg !16115
  ret ptr %6, !dbg !16115
}

; Function Attrs: noinline optnone sspstrong uwtable
define linkonce_odr noundef ptr @_ZNSt3__220__optional_copy_baseIPKcLb1EECI2NS_24__optional_destruct_baseIS2_Lb1EEEIJRS2_EEENS_10in_place_tEDpOT_(ptr noundef nonnull returned align 8 dereferenceable(9) %0, ptr noundef nonnull align 8 dereferenceable(8) %1) unnamed_addr #4 comdat align 2 !dbg !16116 {
  %3 = alloca %"struct.std::__2::in_place_t", align 1
  %4 = alloca ptr, align 8
  %5 = alloca ptr, align 8
  store ptr %0, ptr %4, align 8
  call void @llvm.dbg.declare(metadata ptr %4, metadata !16121, metadata !DIExpression()), !dbg !16123
  call void @llvm.dbg.declare(metadata ptr %3, metadata !16124, metadata !DIExpression()), !dbg !16123
  store ptr %1, ptr %5, align 8
  call void @llvm.dbg.declare(metadata ptr %5, metadata !16125, metadata !DIExpression()), !dbg !16123
  %6 = load ptr, ptr %4, align 8
  %7 = load ptr, ptr %5, align 8, !dbg !16126
  %8 = call noundef ptr @_ZNSt3__223__optional_storage_baseIPKcLb0EECI2NS_24__optional_destruct_baseIS2_Lb1EEEIJRS2_EEENS_10in_place_tEDpOT_(ptr noundef nonnull align 8 dereferenceable(9) %6, ptr noundef nonnull align 8 dereferenceable(8) %7), !dbg !16126
  ret ptr %6, !dbg !16126
}

; Function Attrs: noinline optnone sspstrong uwtable
